
E:/个人文件/论文paper/SoftwareX/CFIEE/elf_files/nettle_md5_main.elf:     file format elf32-littleriscv


Disassembly of section .text:

00000000 <__start>:
       0:	200c0117          	auipc	sp,0x200c0
       4:	ff810113          	addi	sp,sp,-8 # 200bfff8 <__kernel_stack>
       8:	00006197          	auipc	gp,0x6
       c:	f7818193          	addi	gp,gp,-136 # 5f80 <__erodata>
      10:	20000217          	auipc	tp,0x20000
      14:	ff020213          	addi	tp,tp,-16 # 20000000 <__data_start__>
      18:	20001297          	auipc	t0,0x20001
      1c:	8d028293          	addi	t0,t0,-1840 # 200008e8 <__malloc_sbrk_base>
      20:	404282b3          	sub	t0,t0,tp
      24:	00028b63          	beqz	t0,3a <L_loop0_done>

00000028 <L_loop0>:
      28:	0001a303          	lw	t1,0(gp)
      2c:	00622023          	sw	t1,0(tp) # 0 <__start>
      30:	0191                	addi	gp,gp,4
      32:	0211                	addi	tp,tp,4
      34:	12f1                	addi	t0,t0,-4
      36:	fe0299e3          	bnez	t0,28 <L_loop0>

0000003a <L_loop0_done>:
      3a:	20001197          	auipc	gp,0x20001
      3e:	8ae18193          	addi	gp,gp,-1874 # 200008e8 <__malloc_sbrk_base>
      42:	20001217          	auipc	tp,0x20001
      46:	8ea20213          	addi	tp,tp,-1814 # 2000092c <__malloc_max_total_mem>
      4a:	4281                	li	t0,0
      4c:	40320233          	sub	tp,tp,gp
      50:	00020863          	beqz	tp,60 <L_loop1_done>

00000054 <L_loop1>:
      54:	0051a023          	sw	t0,0(gp)
      58:	0191                	addi	gp,gp,4
      5a:	1271                	addi	tp,tp,-4
      5c:	fe021ce3          	bnez	tp,54 <L_loop1>

00000060 <L_loop1_done>:
      60:	00000197          	auipc	gp,0x0
      64:	0e018193          	addi	gp,gp,224 # 140 <trap_handler>
      68:	30519073          	csrw	mtvec,gp
      6c:	00000197          	auipc	gp,0x0
      70:	11418193          	addi	gp,gp,276 # 180 <vector_table>
      74:	04018193          	addi	gp,gp,64
      78:	30719073          	csrw	mtvt,gp
      7c:	effff7b7          	lui	a5,0xeffff
      80:	00020837          	lui	a6,0x20
      84:	0107a023          	sw	a6,0(a5) # effff000 <__kernel_stack+0xcff3f008>
      88:	48b1                	li	a7,12
      8a:	0117a223          	sw	a7,4(a5)
      8e:	00040837          	lui	a6,0x40
      92:	48b1                	li	a7,12
      94:	0107a423          	sw	a6,8(a5)
      98:	0117a623          	sw	a7,12(a5)
      9c:	00050837          	lui	a6,0x50
      a0:	48c1                	li	a7,16
      a2:	0107a823          	sw	a6,16(a5)
      a6:	0117aa23          	sw	a7,20(a5)
      aa:	400117b7          	lui	a5,0x40011
      ae:	0ff00813          	li	a6,255
      b2:	0107a023          	sw	a6,0(a5) # 40011000 <__kernel_stack+0x1ff51008>
      b6:	480d                	li	a6,3
      b8:	0107a423          	sw	a6,8(a5)
      bc:	0047a803          	lw	a6,4(a5)
      c0:	08800193          	li	gp,136
      c4:	30019073          	csrw	mstatus,gp
      c8:	6189                	lui	gp,0x2
      ca:	3001a073          	csrs	mstatus,gp
      ce:	6185                	lui	gp,0x1
      d0:	03f18193          	addi	gp,gp,63 # 103f <_out_rev+0x79>
      d4:	7c119073          	csrw	mhcr,gp
      d8:	6191                	lui	gp,0x4
      da:	01b1                	addi	gp,gp,12
      dc:	7c519073          	csrw	mhint,gp

000000e0 <__to_main>:
      e0:	68d000ef          	jal	ra,f6c <main>

000000e4 <__exit>:
      e4:	0000100f          	fence.i
      e8:	0ff0000f          	fence
      ec:	60010237          	lui	tp,0x60010
      f0:	1261                	addi	tp,tp,-8
      f2:	0ff00193          	li	gp,255
      f6:	0192                	slli	gp,gp,0x4
      f8:	01bd                	addi	gp,gp,15
      fa:	00322023          	sw	gp,0(tp) # 60010000 <__kernel_stack+0x3ff50008>

000000fe <__fail>:
      fe:	0000100f          	fence.i
     102:	0ff0000f          	fence
     106:	60010237          	lui	tp,0x60010
     10a:	1261                	addi	tp,tp,-8
     10c:	0ee00193          	li	gp,238
     110:	0192                	slli	gp,gp,0x4
     112:	01b9                	addi	gp,gp,14
     114:	00322023          	sw	gp,0(tp) # 60010000 <__kernel_stack+0x3ff50008>
     118:	00000013          	nop
     11c:	00000013          	nop
     120:	00000013          	nop
     124:	00000013          	nop
     128:	00000013          	nop
     12c:	00000013          	nop
     130:	00000013          	nop
     134:	00000013          	nop
     138:	00000013          	nop
     13c:	00000013          	nop

00000140 <trap_handler>:
     140:	a019                	j	146 <__synchronous_exception>
     142:	0001                	nop
     144:	bf6d                	j	fe <__fail>

00000146 <__synchronous_exception>:
     146:	fed12e23          	sw	a3,-4(sp)
     14a:	fee12c23          	sw	a4,-8(sp)
     14e:	fef12a23          	sw	a5,-12(sp)
     152:	34202773          	csrr	a4,mcause
     156:	0ff77793          	andi	a5,a4,255
     15a:	836d                	srli	a4,a4,0x1b
     15c:	8b41                	andi	a4,a4,16
     15e:	973e                	add	a4,a4,a5
     160:	070a                	slli	a4,a4,0x2
     162:	00000797          	auipc	a5,0x0
     166:	01e78793          	addi	a5,a5,30 # 180 <vector_table>
     16a:	97ba                	add	a5,a5,a4
     16c:	4398                	lw	a4,0(a5)
     16e:	ffc12683          	lw	a3,-4(sp)
     172:	ff412783          	lw	a5,-12(sp)
     176:	8702                	jr	a4
     178:	00000013          	nop
     17c:	00000013          	nop

00000180 <vector_table>:
     180:	0580                	addi	s0,sp,704
     182:	0000                	unimp
     184:	0580                	addi	s0,sp,704
     186:	0000                	unimp
     188:	0580                	addi	s0,sp,704
     18a:	0000                	unimp
     18c:	0580                	addi	s0,sp,704
     18e:	0000                	unimp
     190:	0580                	addi	s0,sp,704
     192:	0000                	unimp
     194:	0580                	addi	s0,sp,704
     196:	0000                	unimp
     198:	0580                	addi	s0,sp,704
     19a:	0000                	unimp
     19c:	0580                	addi	s0,sp,704
     19e:	0000                	unimp
     1a0:	0580                	addi	s0,sp,704
     1a2:	0000                	unimp
     1a4:	0580                	addi	s0,sp,704
     1a6:	0000                	unimp
     1a8:	0580                	addi	s0,sp,704
     1aa:	0000                	unimp
     1ac:	0580                	addi	s0,sp,704
     1ae:	0000                	unimp
     1b0:	0580                	addi	s0,sp,704
     1b2:	0000                	unimp
     1b4:	0580                	addi	s0,sp,704
     1b6:	0000                	unimp
     1b8:	0580                	addi	s0,sp,704
     1ba:	0000                	unimp
     1bc:	0580                	addi	s0,sp,704
     1be:	0000                	unimp
     1c0:	0580                	addi	s0,sp,704
     1c2:	0000                	unimp
     1c4:	0580                	addi	s0,sp,704
     1c6:	0000                	unimp
     1c8:	0580                	addi	s0,sp,704
     1ca:	0000                	unimp
     1cc:	0580                	addi	s0,sp,704
     1ce:	0000                	unimp
     1d0:	0580                	addi	s0,sp,704
     1d2:	0000                	unimp
     1d4:	0580                	addi	s0,sp,704
     1d6:	0000                	unimp
     1d8:	0580                	addi	s0,sp,704
     1da:	0000                	unimp
     1dc:	0580                	addi	s0,sp,704
     1de:	0000                	unimp
     1e0:	0580                	addi	s0,sp,704
     1e2:	0000                	unimp
     1e4:	0580                	addi	s0,sp,704
     1e6:	0000                	unimp
     1e8:	0580                	addi	s0,sp,704
     1ea:	0000                	unimp
     1ec:	0580                	addi	s0,sp,704
     1ee:	0000                	unimp
     1f0:	0580                	addi	s0,sp,704
     1f2:	0000                	unimp
     1f4:	0580                	addi	s0,sp,704
     1f6:	0000                	unimp
     1f8:	0580                	addi	s0,sp,704
     1fa:	0000                	unimp
     1fc:	0580                	addi	s0,sp,704
     1fe:	0000                	unimp
     200:	0580                	addi	s0,sp,704
     202:	0000                	unimp
     204:	0580                	addi	s0,sp,704
     206:	0000                	unimp
     208:	0580                	addi	s0,sp,704
     20a:	0000                	unimp
     20c:	0580                	addi	s0,sp,704
     20e:	0000                	unimp
     210:	0580                	addi	s0,sp,704
     212:	0000                	unimp
     214:	0580                	addi	s0,sp,704
     216:	0000                	unimp
     218:	0580                	addi	s0,sp,704
     21a:	0000                	unimp
     21c:	0580                	addi	s0,sp,704
     21e:	0000                	unimp
     220:	0580                	addi	s0,sp,704
     222:	0000                	unimp
     224:	0580                	addi	s0,sp,704
     226:	0000                	unimp
     228:	0580                	addi	s0,sp,704
     22a:	0000                	unimp
     22c:	0580                	addi	s0,sp,704
     22e:	0000                	unimp
     230:	0580                	addi	s0,sp,704
     232:	0000                	unimp
     234:	0580                	addi	s0,sp,704
     236:	0000                	unimp
     238:	0580                	addi	s0,sp,704
     23a:	0000                	unimp
     23c:	0580                	addi	s0,sp,704
     23e:	0000                	unimp
     240:	0580                	addi	s0,sp,704
     242:	0000                	unimp
     244:	0580                	addi	s0,sp,704
     246:	0000                	unimp
     248:	0580                	addi	s0,sp,704
     24a:	0000                	unimp
     24c:	0580                	addi	s0,sp,704
     24e:	0000                	unimp
     250:	0580                	addi	s0,sp,704
     252:	0000                	unimp
     254:	0580                	addi	s0,sp,704
     256:	0000                	unimp
     258:	0580                	addi	s0,sp,704
     25a:	0000                	unimp
     25c:	0580                	addi	s0,sp,704
     25e:	0000                	unimp
     260:	0580                	addi	s0,sp,704
     262:	0000                	unimp
     264:	0580                	addi	s0,sp,704
     266:	0000                	unimp
     268:	0580                	addi	s0,sp,704
     26a:	0000                	unimp
     26c:	0580                	addi	s0,sp,704
     26e:	0000                	unimp
     270:	0580                	addi	s0,sp,704
     272:	0000                	unimp
     274:	0580                	addi	s0,sp,704
     276:	0000                	unimp
     278:	0580                	addi	s0,sp,704
     27a:	0000                	unimp
     27c:	0580                	addi	s0,sp,704
     27e:	0000                	unimp
     280:	0580                	addi	s0,sp,704
     282:	0000                	unimp
     284:	0580                	addi	s0,sp,704
     286:	0000                	unimp
     288:	0580                	addi	s0,sp,704
     28a:	0000                	unimp
     28c:	0580                	addi	s0,sp,704
     28e:	0000                	unimp
     290:	0580                	addi	s0,sp,704
     292:	0000                	unimp
     294:	0580                	addi	s0,sp,704
     296:	0000                	unimp
     298:	0580                	addi	s0,sp,704
     29a:	0000                	unimp
     29c:	0580                	addi	s0,sp,704
     29e:	0000                	unimp
     2a0:	0580                	addi	s0,sp,704
     2a2:	0000                	unimp
     2a4:	0580                	addi	s0,sp,704
     2a6:	0000                	unimp
     2a8:	0580                	addi	s0,sp,704
     2aa:	0000                	unimp
     2ac:	0580                	addi	s0,sp,704
     2ae:	0000                	unimp
     2b0:	0580                	addi	s0,sp,704
     2b2:	0000                	unimp
     2b4:	0580                	addi	s0,sp,704
     2b6:	0000                	unimp
     2b8:	0580                	addi	s0,sp,704
     2ba:	0000                	unimp
     2bc:	0580                	addi	s0,sp,704
     2be:	0000                	unimp
     2c0:	0580                	addi	s0,sp,704
     2c2:	0000                	unimp
     2c4:	0580                	addi	s0,sp,704
     2c6:	0000                	unimp
     2c8:	0580                	addi	s0,sp,704
     2ca:	0000                	unimp
     2cc:	0580                	addi	s0,sp,704
     2ce:	0000                	unimp
     2d0:	0580                	addi	s0,sp,704
     2d2:	0000                	unimp
     2d4:	0580                	addi	s0,sp,704
     2d6:	0000                	unimp
     2d8:	0580                	addi	s0,sp,704
     2da:	0000                	unimp
     2dc:	0580                	addi	s0,sp,704
     2de:	0000                	unimp
     2e0:	0580                	addi	s0,sp,704
     2e2:	0000                	unimp
     2e4:	0580                	addi	s0,sp,704
     2e6:	0000                	unimp
     2e8:	0580                	addi	s0,sp,704
     2ea:	0000                	unimp
     2ec:	0580                	addi	s0,sp,704
     2ee:	0000                	unimp
     2f0:	0580                	addi	s0,sp,704
     2f2:	0000                	unimp
     2f4:	0580                	addi	s0,sp,704
     2f6:	0000                	unimp
     2f8:	0580                	addi	s0,sp,704
     2fa:	0000                	unimp
     2fc:	0580                	addi	s0,sp,704
     2fe:	0000                	unimp
     300:	0580                	addi	s0,sp,704
     302:	0000                	unimp
     304:	0580                	addi	s0,sp,704
     306:	0000                	unimp
     308:	0580                	addi	s0,sp,704
     30a:	0000                	unimp
     30c:	0580                	addi	s0,sp,704
     30e:	0000                	unimp
     310:	0580                	addi	s0,sp,704
     312:	0000                	unimp
     314:	0580                	addi	s0,sp,704
     316:	0000                	unimp
     318:	0580                	addi	s0,sp,704
     31a:	0000                	unimp
     31c:	0580                	addi	s0,sp,704
     31e:	0000                	unimp
     320:	0580                	addi	s0,sp,704
     322:	0000                	unimp
     324:	0580                	addi	s0,sp,704
     326:	0000                	unimp
     328:	0580                	addi	s0,sp,704
     32a:	0000                	unimp
     32c:	0580                	addi	s0,sp,704
     32e:	0000                	unimp
     330:	0580                	addi	s0,sp,704
     332:	0000                	unimp
     334:	0580                	addi	s0,sp,704
     336:	0000                	unimp
     338:	0580                	addi	s0,sp,704
     33a:	0000                	unimp
     33c:	0580                	addi	s0,sp,704
     33e:	0000                	unimp
     340:	0580                	addi	s0,sp,704
     342:	0000                	unimp
     344:	0580                	addi	s0,sp,704
     346:	0000                	unimp
     348:	0580                	addi	s0,sp,704
     34a:	0000                	unimp
     34c:	0580                	addi	s0,sp,704
     34e:	0000                	unimp
     350:	0580                	addi	s0,sp,704
     352:	0000                	unimp
     354:	0580                	addi	s0,sp,704
     356:	0000                	unimp
     358:	0580                	addi	s0,sp,704
     35a:	0000                	unimp
     35c:	0580                	addi	s0,sp,704
     35e:	0000                	unimp
     360:	0580                	addi	s0,sp,704
     362:	0000                	unimp
     364:	0580                	addi	s0,sp,704
     366:	0000                	unimp
     368:	0580                	addi	s0,sp,704
     36a:	0000                	unimp
     36c:	0580                	addi	s0,sp,704
     36e:	0000                	unimp
     370:	0580                	addi	s0,sp,704
     372:	0000                	unimp
     374:	0580                	addi	s0,sp,704
     376:	0000                	unimp
     378:	0580                	addi	s0,sp,704
     37a:	0000                	unimp
     37c:	0580                	addi	s0,sp,704
     37e:	0000                	unimp
     380:	0580                	addi	s0,sp,704
     382:	0000                	unimp
     384:	0580                	addi	s0,sp,704
     386:	0000                	unimp
     388:	0580                	addi	s0,sp,704
     38a:	0000                	unimp
     38c:	0580                	addi	s0,sp,704
     38e:	0000                	unimp
     390:	0580                	addi	s0,sp,704
     392:	0000                	unimp
     394:	0580                	addi	s0,sp,704
     396:	0000                	unimp
     398:	0580                	addi	s0,sp,704
     39a:	0000                	unimp
     39c:	0580                	addi	s0,sp,704
     39e:	0000                	unimp
     3a0:	0580                	addi	s0,sp,704
     3a2:	0000                	unimp
     3a4:	0580                	addi	s0,sp,704
     3a6:	0000                	unimp
     3a8:	0580                	addi	s0,sp,704
     3aa:	0000                	unimp
     3ac:	0580                	addi	s0,sp,704
     3ae:	0000                	unimp
     3b0:	0580                	addi	s0,sp,704
     3b2:	0000                	unimp
     3b4:	0580                	addi	s0,sp,704
     3b6:	0000                	unimp
     3b8:	0580                	addi	s0,sp,704
     3ba:	0000                	unimp
     3bc:	0580                	addi	s0,sp,704
     3be:	0000                	unimp
     3c0:	0580                	addi	s0,sp,704
     3c2:	0000                	unimp
     3c4:	0580                	addi	s0,sp,704
     3c6:	0000                	unimp
     3c8:	0580                	addi	s0,sp,704
     3ca:	0000                	unimp
     3cc:	0580                	addi	s0,sp,704
     3ce:	0000                	unimp
     3d0:	0580                	addi	s0,sp,704
     3d2:	0000                	unimp
     3d4:	0580                	addi	s0,sp,704
     3d6:	0000                	unimp
     3d8:	0580                	addi	s0,sp,704
     3da:	0000                	unimp
     3dc:	0580                	addi	s0,sp,704
     3de:	0000                	unimp
     3e0:	0580                	addi	s0,sp,704
     3e2:	0000                	unimp
     3e4:	0580                	addi	s0,sp,704
     3e6:	0000                	unimp
     3e8:	0580                	addi	s0,sp,704
     3ea:	0000                	unimp
     3ec:	0580                	addi	s0,sp,704
     3ee:	0000                	unimp
     3f0:	0580                	addi	s0,sp,704
     3f2:	0000                	unimp
     3f4:	0580                	addi	s0,sp,704
     3f6:	0000                	unimp
     3f8:	0580                	addi	s0,sp,704
     3fa:	0000                	unimp
     3fc:	0580                	addi	s0,sp,704
     3fe:	0000                	unimp
     400:	0580                	addi	s0,sp,704
     402:	0000                	unimp
     404:	0580                	addi	s0,sp,704
     406:	0000                	unimp
     408:	0580                	addi	s0,sp,704
     40a:	0000                	unimp
     40c:	0580                	addi	s0,sp,704
     40e:	0000                	unimp
     410:	0580                	addi	s0,sp,704
     412:	0000                	unimp
     414:	0580                	addi	s0,sp,704
     416:	0000                	unimp
     418:	0580                	addi	s0,sp,704
     41a:	0000                	unimp
     41c:	0580                	addi	s0,sp,704
     41e:	0000                	unimp
     420:	0580                	addi	s0,sp,704
     422:	0000                	unimp
     424:	0580                	addi	s0,sp,704
     426:	0000                	unimp
     428:	0580                	addi	s0,sp,704
     42a:	0000                	unimp
     42c:	0580                	addi	s0,sp,704
     42e:	0000                	unimp
     430:	0580                	addi	s0,sp,704
     432:	0000                	unimp
     434:	0580                	addi	s0,sp,704
     436:	0000                	unimp
     438:	0580                	addi	s0,sp,704
     43a:	0000                	unimp
     43c:	0580                	addi	s0,sp,704
     43e:	0000                	unimp
     440:	0580                	addi	s0,sp,704
     442:	0000                	unimp
     444:	0580                	addi	s0,sp,704
     446:	0000                	unimp
     448:	0580                	addi	s0,sp,704
     44a:	0000                	unimp
     44c:	0580                	addi	s0,sp,704
     44e:	0000                	unimp
     450:	0580                	addi	s0,sp,704
     452:	0000                	unimp
     454:	0580                	addi	s0,sp,704
     456:	0000                	unimp
     458:	0580                	addi	s0,sp,704
     45a:	0000                	unimp
     45c:	0580                	addi	s0,sp,704
     45e:	0000                	unimp
     460:	0580                	addi	s0,sp,704
     462:	0000                	unimp
     464:	0580                	addi	s0,sp,704
     466:	0000                	unimp
     468:	0580                	addi	s0,sp,704
     46a:	0000                	unimp
     46c:	0580                	addi	s0,sp,704
     46e:	0000                	unimp
     470:	0580                	addi	s0,sp,704
     472:	0000                	unimp
     474:	0580                	addi	s0,sp,704
     476:	0000                	unimp
     478:	0580                	addi	s0,sp,704
     47a:	0000                	unimp
     47c:	0580                	addi	s0,sp,704
     47e:	0000                	unimp
     480:	0580                	addi	s0,sp,704
     482:	0000                	unimp
     484:	0580                	addi	s0,sp,704
     486:	0000                	unimp
     488:	0580                	addi	s0,sp,704
     48a:	0000                	unimp
     48c:	0580                	addi	s0,sp,704
     48e:	0000                	unimp
     490:	0580                	addi	s0,sp,704
     492:	0000                	unimp
     494:	0580                	addi	s0,sp,704
     496:	0000                	unimp
     498:	0580                	addi	s0,sp,704
     49a:	0000                	unimp
     49c:	0580                	addi	s0,sp,704
     49e:	0000                	unimp
     4a0:	0580                	addi	s0,sp,704
     4a2:	0000                	unimp
     4a4:	0580                	addi	s0,sp,704
     4a6:	0000                	unimp
     4a8:	0580                	addi	s0,sp,704
     4aa:	0000                	unimp
     4ac:	0580                	addi	s0,sp,704
     4ae:	0000                	unimp
     4b0:	0580                	addi	s0,sp,704
     4b2:	0000                	unimp
     4b4:	0580                	addi	s0,sp,704
     4b6:	0000                	unimp
     4b8:	0580                	addi	s0,sp,704
     4ba:	0000                	unimp
     4bc:	0580                	addi	s0,sp,704
     4be:	0000                	unimp
     4c0:	0580                	addi	s0,sp,704
     4c2:	0000                	unimp
     4c4:	0580                	addi	s0,sp,704
     4c6:	0000                	unimp
     4c8:	0580                	addi	s0,sp,704
     4ca:	0000                	unimp
     4cc:	0580                	addi	s0,sp,704
     4ce:	0000                	unimp
     4d0:	0580                	addi	s0,sp,704
     4d2:	0000                	unimp
     4d4:	0580                	addi	s0,sp,704
     4d6:	0000                	unimp
     4d8:	0580                	addi	s0,sp,704
     4da:	0000                	unimp
     4dc:	0580                	addi	s0,sp,704
     4de:	0000                	unimp
     4e0:	0580                	addi	s0,sp,704
     4e2:	0000                	unimp
     4e4:	0580                	addi	s0,sp,704
     4e6:	0000                	unimp
     4e8:	0580                	addi	s0,sp,704
     4ea:	0000                	unimp
     4ec:	0580                	addi	s0,sp,704
     4ee:	0000                	unimp
     4f0:	0580                	addi	s0,sp,704
     4f2:	0000                	unimp
     4f4:	0580                	addi	s0,sp,704
     4f6:	0000                	unimp
     4f8:	0580                	addi	s0,sp,704
     4fa:	0000                	unimp
     4fc:	0580                	addi	s0,sp,704
     4fe:	0000                	unimp
     500:	0580                	addi	s0,sp,704
     502:	0000                	unimp
     504:	0580                	addi	s0,sp,704
     506:	0000                	unimp
     508:	0580                	addi	s0,sp,704
     50a:	0000                	unimp
     50c:	0580                	addi	s0,sp,704
     50e:	0000                	unimp
     510:	0580                	addi	s0,sp,704
     512:	0000                	unimp
     514:	0580                	addi	s0,sp,704
     516:	0000                	unimp
     518:	0580                	addi	s0,sp,704
     51a:	0000                	unimp
     51c:	0580                	addi	s0,sp,704
     51e:	0000                	unimp
     520:	0580                	addi	s0,sp,704
     522:	0000                	unimp
     524:	0580                	addi	s0,sp,704
     526:	0000                	unimp
     528:	0580                	addi	s0,sp,704
     52a:	0000                	unimp
     52c:	0580                	addi	s0,sp,704
     52e:	0000                	unimp
     530:	0580                	addi	s0,sp,704
     532:	0000                	unimp
     534:	0580                	addi	s0,sp,704
     536:	0000                	unimp
     538:	0580                	addi	s0,sp,704
     53a:	0000                	unimp
     53c:	0580                	addi	s0,sp,704
     53e:	0000                	unimp
     540:	0580                	addi	s0,sp,704
     542:	0000                	unimp
     544:	0580                	addi	s0,sp,704
     546:	0000                	unimp
     548:	0580                	addi	s0,sp,704
     54a:	0000                	unimp
     54c:	0580                	addi	s0,sp,704
     54e:	0000                	unimp
     550:	0580                	addi	s0,sp,704
     552:	0000                	unimp
     554:	0580                	addi	s0,sp,704
     556:	0000                	unimp
     558:	0580                	addi	s0,sp,704
     55a:	0000                	unimp
     55c:	0580                	addi	s0,sp,704
     55e:	0000                	unimp
     560:	0580                	addi	s0,sp,704
     562:	0000                	unimp
     564:	0580                	addi	s0,sp,704
     566:	0000                	unimp
     568:	0580                	addi	s0,sp,704
     56a:	0000                	unimp
     56c:	0580                	addi	s0,sp,704
     56e:	0000                	unimp
     570:	0580                	addi	s0,sp,704
     572:	0000                	unimp
     574:	0580                	addi	s0,sp,704
     576:	0000                	unimp
     578:	0580                	addi	s0,sp,704
     57a:	0000                	unimp
     57c:	0580                	addi	s0,sp,704
	...

00000580 <__dummy>:
     580:	bebd                	j	fe <__fail>
	...

000005b4 <os_critical_enter>:
     5b4:	8082                	ret

000005b6 <os_critical_exit>:
     5b6:	8082                	ret

000005b8 <ck_intc_init>:
     5b8:	e00007b7          	lui	a5,0xe0000
     5bc:	0007a023          	sw	zero,0(a5) # e0000000 <__kernel_stack+0xbff40008>
     5c0:	00810737          	lui	a4,0x810
     5c4:	e08007b7          	lui	a5,0xe0800
     5c8:	40e7a823          	sw	a4,1040(a5) # e0800410 <__kernel_stack+0xc0740418>
     5cc:	8082                	ret

000005ce <delay_ms>:
     5ce:	8082                	ret

000005d0 <fputc>:
     5d0:	0ff57593          	andi	a1,a0,255
     5d4:	20000537          	lui	a0,0x20000
     5d8:	00450513          	addi	a0,a0,4 # 20000004 <uart0>
     5dc:	7e10106f          	j	25bc <ck_uart_putc>

000005e0 <_nettle_md5_compress>:
     5e0:	7119                	addi	sp,sp,-128
     5e2:	dca2                	sw	s0,120(sp)
     5e4:	04000613          	li	a2,64
     5e8:	842a                	mv	s0,a0
     5ea:	850a                	mv	a0,sp
     5ec:	daa6                	sw	s1,116(sp)
     5ee:	d8ca                	sw	s2,112(sp)
     5f0:	d6ce                	sw	s3,108(sp)
     5f2:	d4d2                	sw	s4,104(sp)
     5f4:	d2d6                	sw	s5,100(sp)
     5f6:	d0da                	sw	s6,96(sp)
     5f8:	cede                	sw	s7,92(sp)
     5fa:	cce2                	sw	s8,88(sp)
     5fc:	cae6                	sw	s9,84(sp)
     5fe:	c8ea                	sw	s10,80(sp)
     600:	c6ee                	sw	s11,76(sp)
     602:	de86                	sw	ra,124(sp)
     604:	749040ef          	jal	ra,554c <memcpy>
     608:	00842c83          	lw	s9,8(s0)
     60c:	00c42d83          	lw	s11,12(s0)
     610:	00442883          	lw	a7,4(s0)
     614:	4c02                	lw	s8,0(sp)
     616:	4014                	lw	a3,0(s0)
     618:	d76aa737          	lui	a4,0xd76aa
     61c:	01bcc7b3          	xor	a5,s9,s11
     620:	47870713          	addi	a4,a4,1144 # d76aa478 <__kernel_stack+0xb75ea480>
     624:	9762                	add	a4,a4,s8
     626:	0117f7b3          	and	a5,a5,a7
     62a:	9736                	add	a4,a4,a3
     62c:	01b7c7b3          	xor	a5,a5,s11
     630:	97ba                	add	a5,a5,a4
     632:	4492                	lw	s1,4(sp)
     634:	00779713          	slli	a4,a5,0x7
     638:	83e5                	srli	a5,a5,0x19
     63a:	8fd9                	or	a5,a5,a4
     63c:	e8c7b737          	lui	a4,0xe8c7b
     640:	97c6                	add	a5,a5,a7
     642:	0198c6b3          	xor	a3,a7,s9
     646:	75670713          	addi	a4,a4,1878 # e8c7b756 <__kernel_stack+0xc8bbb75e>
     64a:	9726                	add	a4,a4,s1
     64c:	8efd                	and	a3,a3,a5
     64e:	976e                	add	a4,a4,s11
     650:	0196c6b3          	xor	a3,a3,s9
     654:	96ba                	add	a3,a3,a4
     656:	4322                	lw	t1,8(sp)
     658:	00c69713          	slli	a4,a3,0xc
     65c:	82d1                	srli	a3,a3,0x14
     65e:	8ed9                	or	a3,a3,a4
     660:	24207737          	lui	a4,0x24207
     664:	96be                	add	a3,a3,a5
     666:	00f8c633          	xor	a2,a7,a5
     66a:	0db70713          	addi	a4,a4,219 # 242070db <__kernel_stack+0x41470e3>
     66e:	971a                	add	a4,a4,t1
     670:	8e75                	and	a2,a2,a3
     672:	9766                	add	a4,a4,s9
     674:	01164633          	xor	a2,a2,a7
     678:	963a                	add	a2,a2,a4
     67a:	49b2                	lw	s3,12(sp)
     67c:	00f65713          	srli	a4,a2,0xf
     680:	0646                	slli	a2,a2,0x11
     682:	8e59                	or	a2,a2,a4
     684:	c1bdd5b7          	lui	a1,0xc1bdd
     688:	9636                	add	a2,a2,a3
     68a:	00d7c733          	xor	a4,a5,a3
     68e:	eee58593          	addi	a1,a1,-274 # c1bdceee <__kernel_stack+0xa1b1cef6>
     692:	95ce                	add	a1,a1,s3
     694:	8f71                	and	a4,a4,a2
     696:	95c6                	add	a1,a1,a7
     698:	8f3d                	xor	a4,a4,a5
     69a:	972e                	add	a4,a4,a1
     69c:	4ec2                	lw	t4,16(sp)
     69e:	00a75593          	srli	a1,a4,0xa
     6a2:	075a                	slli	a4,a4,0x16
     6a4:	8f4d                	or	a4,a4,a1
     6a6:	f57c1537          	lui	a0,0xf57c1
     6aa:	9732                	add	a4,a4,a2
     6ac:	00c6c5b3          	xor	a1,a3,a2
     6b0:	faf50513          	addi	a0,a0,-81 # f57c0faf <__kernel_stack+0xd5700fb7>
     6b4:	8df9                	and	a1,a1,a4
     6b6:	9576                	add	a0,a0,t4
     6b8:	953e                	add	a0,a0,a5
     6ba:	00d5c7b3          	xor	a5,a1,a3
     6be:	97aa                	add	a5,a5,a0
     6c0:	4ad2                	lw	s5,20(sp)
     6c2:	00779593          	slli	a1,a5,0x7
     6c6:	83e5                	srli	a5,a5,0x19
     6c8:	8fcd                	or	a5,a5,a1
     6ca:	4787c537          	lui	a0,0x4787c
     6ce:	97ba                	add	a5,a5,a4
     6d0:	00e645b3          	xor	a1,a2,a4
     6d4:	62a50513          	addi	a0,a0,1578 # 4787c62a <__kernel_stack+0x277bc632>
     6d8:	8dfd                	and	a1,a1,a5
     6da:	9556                	add	a0,a0,s5
     6dc:	9536                	add	a0,a0,a3
     6de:	00c5c6b3          	xor	a3,a1,a2
     6e2:	96aa                	add	a3,a3,a0
     6e4:	4fe2                	lw	t6,24(sp)
     6e6:	00c69593          	slli	a1,a3,0xc
     6ea:	82d1                	srli	a3,a3,0x14
     6ec:	8ecd                	or	a3,a3,a1
     6ee:	a8304537          	lui	a0,0xa8304
     6f2:	96be                	add	a3,a3,a5
     6f4:	00f745b3          	xor	a1,a4,a5
     6f8:	61350513          	addi	a0,a0,1555 # a8304613 <__kernel_stack+0x8824461b>
     6fc:	8df5                	and	a1,a1,a3
     6fe:	957e                	add	a0,a0,t6
     700:	9532                	add	a0,a0,a2
     702:	00e5c633          	xor	a2,a1,a4
     706:	962a                	add	a2,a2,a0
     708:	4bf2                	lw	s7,28(sp)
     70a:	00f65593          	srli	a1,a2,0xf
     70e:	0646                	slli	a2,a2,0x11
     710:	8e4d                	or	a2,a2,a1
     712:	fd469537          	lui	a0,0xfd469
     716:	9636                	add	a2,a2,a3
     718:	00d7c5b3          	xor	a1,a5,a3
     71c:	50150513          	addi	a0,a0,1281 # fd469501 <__kernel_stack+0xdd3a9509>
     720:	8df1                	and	a1,a1,a2
     722:	955e                	add	a0,a0,s7
     724:	953a                	add	a0,a0,a4
     726:	00f5c733          	xor	a4,a1,a5
     72a:	972a                	add	a4,a4,a0
     72c:	5382                	lw	t2,32(sp)
     72e:	00a75593          	srli	a1,a4,0xa
     732:	075a                	slli	a4,a4,0x16
     734:	8f4d                	or	a4,a4,a1
     736:	6980a537          	lui	a0,0x6980a
     73a:	9732                	add	a4,a4,a2
     73c:	00c6c5b3          	xor	a1,a3,a2
     740:	8d850513          	addi	a0,a0,-1832 # 698098d8 <__kernel_stack+0x497498e0>
     744:	8df9                	and	a1,a1,a4
     746:	951e                	add	a0,a0,t2
     748:	953e                	add	a0,a0,a5
     74a:	00d5c7b3          	xor	a5,a1,a3
     74e:	97aa                	add	a5,a5,a0
     750:	00779593          	slli	a1,a5,0x7
     754:	5512                	lw	a0,36(sp)
     756:	83e5                	srli	a5,a5,0x19
     758:	8fcd                	or	a5,a5,a1
     75a:	8b44f837          	lui	a6,0x8b44f
     75e:	97ba                	add	a5,a5,a4
     760:	00e645b3          	xor	a1,a2,a4
     764:	7af80813          	addi	a6,a6,1967 # 8b44f7af <__kernel_stack+0x6b38f7b7>
     768:	8dfd                	and	a1,a1,a5
     76a:	982a                	add	a6,a6,a0
     76c:	9836                	add	a6,a6,a3
     76e:	00c5c6b3          	xor	a3,a1,a2
     772:	96c2                	add	a3,a3,a6
     774:	5922                	lw	s2,40(sp)
     776:	00c69593          	slli	a1,a3,0xc
     77a:	82d1                	srli	a3,a3,0x14
     77c:	8ecd                	or	a3,a3,a1
     77e:	7859                	lui	a6,0xffff6
     780:	96be                	add	a3,a3,a5
     782:	00f745b3          	xor	a1,a4,a5
     786:	bb180813          	addi	a6,a6,-1103 # ffff5bb1 <__kernel_stack+0xdff35bb9>
     78a:	8df5                	and	a1,a1,a3
     78c:	984a                	add	a6,a6,s2
     78e:	9832                	add	a6,a6,a2
     790:	00e5c633          	xor	a2,a1,a4
     794:	9642                	add	a2,a2,a6
     796:	5e32                	lw	t3,44(sp)
     798:	00f65593          	srli	a1,a2,0xf
     79c:	0646                	slli	a2,a2,0x11
     79e:	8e4d                	or	a2,a2,a1
     7a0:	895cd837          	lui	a6,0x895cd
     7a4:	9636                	add	a2,a2,a3
     7a6:	00d7c5b3          	xor	a1,a5,a3
     7aa:	7be80813          	addi	a6,a6,1982 # 895cd7be <__kernel_stack+0x6950d7c6>
     7ae:	8df1                	and	a1,a1,a2
     7b0:	9872                	add	a6,a6,t3
     7b2:	983a                	add	a6,a6,a4
     7b4:	00f5c733          	xor	a4,a1,a5
     7b8:	9742                	add	a4,a4,a6
     7ba:	5a42                	lw	s4,48(sp)
     7bc:	00a75593          	srli	a1,a4,0xa
     7c0:	075a                	slli	a4,a4,0x16
     7c2:	8f4d                	or	a4,a4,a1
     7c4:	6b901837          	lui	a6,0x6b901
     7c8:	9732                	add	a4,a4,a2
     7ca:	00c6c5b3          	xor	a1,a3,a2
     7ce:	12280813          	addi	a6,a6,290 # 6b901122 <__kernel_stack+0x4b84112a>
     7d2:	8df9                	and	a1,a1,a4
     7d4:	9852                	add	a6,a6,s4
     7d6:	983e                	add	a6,a6,a5
     7d8:	00d5c7b3          	xor	a5,a1,a3
     7dc:	97c2                	add	a5,a5,a6
     7de:	5f52                	lw	t5,52(sp)
     7e0:	00779593          	slli	a1,a5,0x7
     7e4:	83e5                	srli	a5,a5,0x19
     7e6:	8fcd                	or	a5,a5,a1
     7e8:	fd987837          	lui	a6,0xfd987
     7ec:	97ba                	add	a5,a5,a4
     7ee:	00e645b3          	xor	a1,a2,a4
     7f2:	19380813          	addi	a6,a6,403 # fd987193 <__kernel_stack+0xdd8c719b>
     7f6:	8dfd                	and	a1,a1,a5
     7f8:	987a                	add	a6,a6,t5
     7fa:	9836                	add	a6,a6,a3
     7fc:	00c5c6b3          	xor	a3,a1,a2
     800:	96c2                	add	a3,a3,a6
     802:	5b62                	lw	s6,56(sp)
     804:	00c69593          	slli	a1,a3,0xc
     808:	82d1                	srli	a3,a3,0x14
     80a:	8ecd                	or	a3,a3,a1
     80c:	a6794837          	lui	a6,0xa6794
     810:	96be                	add	a3,a3,a5
     812:	00f745b3          	xor	a1,a4,a5
     816:	38e80813          	addi	a6,a6,910 # a679438e <__kernel_stack+0x866d4396>
     81a:	8df5                	and	a1,a1,a3
     81c:	985a                	add	a6,a6,s6
     81e:	9832                	add	a6,a6,a2
     820:	00e5c633          	xor	a2,a1,a4
     824:	9642                	add	a2,a2,a6
     826:	52f2                	lw	t0,60(sp)
     828:	00f65593          	srli	a1,a2,0xf
     82c:	0646                	slli	a2,a2,0x11
     82e:	8e4d                	or	a2,a2,a1
     830:	49b41837          	lui	a6,0x49b41
     834:	9636                	add	a2,a2,a3
     836:	00d7c5b3          	xor	a1,a5,a3
     83a:	82180813          	addi	a6,a6,-2015 # 49b40821 <__kernel_stack+0x29a80829>
     83e:	8df1                	and	a1,a1,a2
     840:	9816                	add	a6,a6,t0
     842:	983a                	add	a6,a6,a4
     844:	00f5c733          	xor	a4,a1,a5
     848:	9742                	add	a4,a4,a6
     84a:	00a75593          	srli	a1,a4,0xa
     84e:	075a                	slli	a4,a4,0x16
     850:	8f4d                	or	a4,a4,a1
     852:	9732                	add	a4,a4,a2
     854:	f61e2837          	lui	a6,0xf61e2
     858:	00e645b3          	xor	a1,a2,a4
     85c:	56280813          	addi	a6,a6,1378 # f61e2562 <__kernel_stack+0xd612256a>
     860:	8df5                	and	a1,a1,a3
     862:	9826                	add	a6,a6,s1
     864:	983e                	add	a6,a6,a5
     866:	00c5c7b3          	xor	a5,a1,a2
     86a:	97c2                	add	a5,a5,a6
     86c:	00579593          	slli	a1,a5,0x5
     870:	83ed                	srli	a5,a5,0x1b
     872:	8fcd                	or	a5,a5,a1
     874:	97ba                	add	a5,a5,a4
     876:	c040b837          	lui	a6,0xc040b
     87a:	00f745b3          	xor	a1,a4,a5
     87e:	34080813          	addi	a6,a6,832 # c040b340 <__kernel_stack+0xa034b348>
     882:	8df1                	and	a1,a1,a2
     884:	987e                	add	a6,a6,t6
     886:	9836                	add	a6,a6,a3
     888:	00e5c6b3          	xor	a3,a1,a4
     88c:	96c2                	add	a3,a3,a6
     88e:	00969593          	slli	a1,a3,0x9
     892:	82dd                	srli	a3,a3,0x17
     894:	8ecd                	or	a3,a3,a1
     896:	96be                	add	a3,a3,a5
     898:	265e6837          	lui	a6,0x265e6
     89c:	00d7c5b3          	xor	a1,a5,a3
     8a0:	a5180813          	addi	a6,a6,-1455 # 265e5a51 <__kernel_stack+0x6525a59>
     8a4:	8df9                	and	a1,a1,a4
     8a6:	9872                	add	a6,a6,t3
     8a8:	9832                	add	a6,a6,a2
     8aa:	00f5c633          	xor	a2,a1,a5
     8ae:	9642                	add	a2,a2,a6
     8b0:	00e61593          	slli	a1,a2,0xe
     8b4:	8249                	srli	a2,a2,0x12
     8b6:	8e4d                	or	a2,a2,a1
     8b8:	9636                	add	a2,a2,a3
     8ba:	e9b6c837          	lui	a6,0xe9b6c
     8be:	00c6c5b3          	xor	a1,a3,a2
     8c2:	7aa80813          	addi	a6,a6,1962 # e9b6c7aa <__kernel_stack+0xc9aac7b2>
     8c6:	8dfd                	and	a1,a1,a5
     8c8:	9862                	add	a6,a6,s8
     8ca:	983a                	add	a6,a6,a4
     8cc:	00d5c733          	xor	a4,a1,a3
     8d0:	9742                	add	a4,a4,a6
     8d2:	00c75593          	srli	a1,a4,0xc
     8d6:	0752                	slli	a4,a4,0x14
     8d8:	8f4d                	or	a4,a4,a1
     8da:	9732                	add	a4,a4,a2
     8dc:	d62f1837          	lui	a6,0xd62f1
     8e0:	00e645b3          	xor	a1,a2,a4
     8e4:	05d80813          	addi	a6,a6,93 # d62f105d <__kernel_stack+0xb6231065>
     8e8:	8df5                	and	a1,a1,a3
     8ea:	9856                	add	a6,a6,s5
     8ec:	983e                	add	a6,a6,a5
     8ee:	00c5c7b3          	xor	a5,a1,a2
     8f2:	97c2                	add	a5,a5,a6
     8f4:	00579593          	slli	a1,a5,0x5
     8f8:	83ed                	srli	a5,a5,0x1b
     8fa:	8fcd                	or	a5,a5,a1
     8fc:	97ba                	add	a5,a5,a4
     8fe:	02441837          	lui	a6,0x2441
     902:	00f745b3          	xor	a1,a4,a5
     906:	45380813          	addi	a6,a6,1107 # 2441453 <_global_impure_ptr+0x243b43b>
     90a:	8df1                	and	a1,a1,a2
     90c:	984a                	add	a6,a6,s2
     90e:	9836                	add	a6,a6,a3
     910:	00e5c6b3          	xor	a3,a1,a4
     914:	96c2                	add	a3,a3,a6
     916:	00969593          	slli	a1,a3,0x9
     91a:	82dd                	srli	a3,a3,0x17
     91c:	8ecd                	or	a3,a3,a1
     91e:	96be                	add	a3,a3,a5
     920:	d8a1e837          	lui	a6,0xd8a1e
     924:	00d7c5b3          	xor	a1,a5,a3
     928:	68180813          	addi	a6,a6,1665 # d8a1e681 <__kernel_stack+0xb895e689>
     92c:	8df9                	and	a1,a1,a4
     92e:	9816                	add	a6,a6,t0
     930:	9832                	add	a6,a6,a2
     932:	00f5c633          	xor	a2,a1,a5
     936:	9642                	add	a2,a2,a6
     938:	00e61593          	slli	a1,a2,0xe
     93c:	8249                	srli	a2,a2,0x12
     93e:	8e4d                	or	a2,a2,a1
     940:	9636                	add	a2,a2,a3
     942:	e7d40837          	lui	a6,0xe7d40
     946:	00c6c5b3          	xor	a1,a3,a2
     94a:	bc880813          	addi	a6,a6,-1080 # e7d3fbc8 <__kernel_stack+0xc7c7fbd0>
     94e:	8dfd                	and	a1,a1,a5
     950:	9876                	add	a6,a6,t4
     952:	983a                	add	a6,a6,a4
     954:	00d5c733          	xor	a4,a1,a3
     958:	9742                	add	a4,a4,a6
     95a:	00c75593          	srli	a1,a4,0xc
     95e:	0752                	slli	a4,a4,0x14
     960:	8f4d                	or	a4,a4,a1
     962:	9732                	add	a4,a4,a2
     964:	21e1d837          	lui	a6,0x21e1d
     968:	00e645b3          	xor	a1,a2,a4
     96c:	de680813          	addi	a6,a6,-538 # 21e1cde6 <__kernel_stack+0x1d5cdee>
     970:	8df5                	and	a1,a1,a3
     972:	982a                	add	a6,a6,a0
     974:	983e                	add	a6,a6,a5
     976:	00c5c7b3          	xor	a5,a1,a2
     97a:	97c2                	add	a5,a5,a6
     97c:	00579593          	slli	a1,a5,0x5
     980:	83ed                	srli	a5,a5,0x1b
     982:	8fcd                	or	a5,a5,a1
     984:	97ba                	add	a5,a5,a4
     986:	c3370837          	lui	a6,0xc3370
     98a:	00f745b3          	xor	a1,a4,a5
     98e:	7d680813          	addi	a6,a6,2006 # c33707d6 <__kernel_stack+0xa32b07de>
     992:	8df1                	and	a1,a1,a2
     994:	985a                	add	a6,a6,s6
     996:	9836                	add	a6,a6,a3
     998:	00e5c6b3          	xor	a3,a1,a4
     99c:	96c2                	add	a3,a3,a6
     99e:	00969593          	slli	a1,a3,0x9
     9a2:	82dd                	srli	a3,a3,0x17
     9a4:	8ecd                	or	a3,a3,a1
     9a6:	96be                	add	a3,a3,a5
     9a8:	f4d51837          	lui	a6,0xf4d51
     9ac:	00d7c5b3          	xor	a1,a5,a3
     9b0:	d8780813          	addi	a6,a6,-633 # f4d50d87 <__kernel_stack+0xd4c90d8f>
     9b4:	8df9                	and	a1,a1,a4
     9b6:	984e                	add	a6,a6,s3
     9b8:	9832                	add	a6,a6,a2
     9ba:	00f5c633          	xor	a2,a1,a5
     9be:	9642                	add	a2,a2,a6
     9c0:	00e61593          	slli	a1,a2,0xe
     9c4:	8249                	srli	a2,a2,0x12
     9c6:	8e4d                	or	a2,a2,a1
     9c8:	9636                	add	a2,a2,a3
     9ca:	455a1837          	lui	a6,0x455a1
     9ce:	00c6c5b3          	xor	a1,a3,a2
     9d2:	4ed80813          	addi	a6,a6,1261 # 455a14ed <__kernel_stack+0x254e14f5>
     9d6:	8dfd                	and	a1,a1,a5
     9d8:	981e                	add	a6,a6,t2
     9da:	983a                	add	a6,a6,a4
     9dc:	00d5c733          	xor	a4,a1,a3
     9e0:	9742                	add	a4,a4,a6
     9e2:	00c75593          	srli	a1,a4,0xc
     9e6:	0752                	slli	a4,a4,0x14
     9e8:	8f4d                	or	a4,a4,a1
     9ea:	9732                	add	a4,a4,a2
     9ec:	a9e3f837          	lui	a6,0xa9e3f
     9f0:	00e645b3          	xor	a1,a2,a4
     9f4:	90580813          	addi	a6,a6,-1787 # a9e3e905 <__kernel_stack+0x89d7e90d>
     9f8:	8df5                	and	a1,a1,a3
     9fa:	987a                	add	a6,a6,t5
     9fc:	983e                	add	a6,a6,a5
     9fe:	00c5c7b3          	xor	a5,a1,a2
     a02:	97c2                	add	a5,a5,a6
     a04:	00579593          	slli	a1,a5,0x5
     a08:	83ed                	srli	a5,a5,0x1b
     a0a:	8fcd                	or	a5,a5,a1
     a0c:	97ba                	add	a5,a5,a4
     a0e:	fcefa837          	lui	a6,0xfcefa
     a12:	00f745b3          	xor	a1,a4,a5
     a16:	3f880813          	addi	a6,a6,1016 # fcefa3f8 <__kernel_stack+0xdce3a400>
     a1a:	8df1                	and	a1,a1,a2
     a1c:	981a                	add	a6,a6,t1
     a1e:	9836                	add	a6,a6,a3
     a20:	00e5c6b3          	xor	a3,a1,a4
     a24:	96c2                	add	a3,a3,a6
     a26:	00969593          	slli	a1,a3,0x9
     a2a:	82dd                	srli	a3,a3,0x17
     a2c:	8ecd                	or	a3,a3,a1
     a2e:	96be                	add	a3,a3,a5
     a30:	676f0837          	lui	a6,0x676f0
     a34:	00d7c5b3          	xor	a1,a5,a3
     a38:	2d980813          	addi	a6,a6,729 # 676f02d9 <__kernel_stack+0x476302e1>
     a3c:	985e                	add	a6,a6,s7
     a3e:	8df9                	and	a1,a1,a4
     a40:	9642                	add	a2,a2,a6
     a42:	8dbd                	xor	a1,a1,a5
     a44:	95b2                	add	a1,a1,a2
     a46:	00e59613          	slli	a2,a1,0xe
     a4a:	81c9                	srli	a1,a1,0x12
     a4c:	8dd1                	or	a1,a1,a2
     a4e:	95b6                	add	a1,a1,a3
     a50:	8d2a5d37          	lui	s10,0x8d2a5
     a54:	00b6c633          	xor	a2,a3,a1
     a58:	c8ad0d13          	addi	s10,s10,-886 # 8d2a4c8a <__kernel_stack+0x6d1e4c92>
     a5c:	9d52                	add	s10,s10,s4
     a5e:	00f67833          	and	a6,a2,a5
     a62:	00d84833          	xor	a6,a6,a3
     a66:	976a                	add	a4,a4,s10
     a68:	9742                	add	a4,a4,a6
     a6a:	00c75d13          	srli	s10,a4,0xc
     a6e:	fffa4837          	lui	a6,0xfffa4
     a72:	0752                	slli	a4,a4,0x14
     a74:	01a76733          	or	a4,a4,s10
     a78:	94280813          	addi	a6,a6,-1726 # fffa3942 <__kernel_stack+0xdfee394a>
     a7c:	972e                	add	a4,a4,a1
     a7e:	9856                	add	a6,a6,s5
     a80:	983e                	add	a6,a6,a5
     a82:	00e647b3          	xor	a5,a2,a4
     a86:	97c2                	add	a5,a5,a6
     a88:	00479613          	slli	a2,a5,0x4
     a8c:	8771f837          	lui	a6,0x8771f
     a90:	83f1                	srli	a5,a5,0x1c
     a92:	8fd1                	or	a5,a5,a2
     a94:	68180813          	addi	a6,a6,1665 # 8771f681 <__kernel_stack+0x6765f689>
     a98:	97ba                	add	a5,a5,a4
     a9a:	00e5c633          	xor	a2,a1,a4
     a9e:	981e                	add	a6,a6,t2
     aa0:	9836                	add	a6,a6,a3
     aa2:	00f646b3          	xor	a3,a2,a5
     aa6:	96c2                	add	a3,a3,a6
     aa8:	00b69613          	slli	a2,a3,0xb
     aac:	6d9d6837          	lui	a6,0x6d9d6
     ab0:	82d5                	srli	a3,a3,0x15
     ab2:	8ed1                	or	a3,a3,a2
     ab4:	12280813          	addi	a6,a6,290 # 6d9d6122 <__kernel_stack+0x4d91612a>
     ab8:	96be                	add	a3,a3,a5
     aba:	9872                	add	a6,a6,t3
     abc:	00f74633          	xor	a2,a4,a5
     ac0:	95c2                	add	a1,a1,a6
     ac2:	8e35                	xor	a2,a2,a3
     ac4:	962e                	add	a2,a2,a1
     ac6:	01061593          	slli	a1,a2,0x10
     aca:	fde54837          	lui	a6,0xfde54
     ace:	8241                	srli	a2,a2,0x10
     ad0:	8e4d                	or	a2,a2,a1
     ad2:	80c80813          	addi	a6,a6,-2036 # fde5380c <__kernel_stack+0xddd93814>
     ad6:	9636                	add	a2,a2,a3
     ad8:	00d7c5b3          	xor	a1,a5,a3
     adc:	985a                	add	a6,a6,s6
     ade:	983a                	add	a6,a6,a4
     ae0:	00c5c733          	xor	a4,a1,a2
     ae4:	9742                	add	a4,a4,a6
     ae6:	00975593          	srli	a1,a4,0x9
     aea:	a4bef837          	lui	a6,0xa4bef
     aee:	075e                	slli	a4,a4,0x17
     af0:	8f4d                	or	a4,a4,a1
     af2:	a4480813          	addi	a6,a6,-1468 # a4beea44 <__kernel_stack+0x84b2ea4c>
     af6:	9732                	add	a4,a4,a2
     af8:	9826                	add	a6,a6,s1
     afa:	00c6c5b3          	xor	a1,a3,a2
     afe:	97c2                	add	a5,a5,a6
     b00:	8db9                	xor	a1,a1,a4
     b02:	95be                	add	a1,a1,a5
     b04:	00459793          	slli	a5,a1,0x4
     b08:	4bded837          	lui	a6,0x4bded
     b0c:	81f1                	srli	a1,a1,0x1c
     b0e:	8ddd                	or	a1,a1,a5
     b10:	fa980813          	addi	a6,a6,-87 # 4bdecfa9 <__kernel_stack+0x2bd2cfb1>
     b14:	95ba                	add	a1,a1,a4
     b16:	00e647b3          	xor	a5,a2,a4
     b1a:	9876                	add	a6,a6,t4
     b1c:	9836                	add	a6,a6,a3
     b1e:	00b7c6b3          	xor	a3,a5,a1
     b22:	96c2                	add	a3,a3,a6
     b24:	00b69793          	slli	a5,a3,0xb
     b28:	f6bb5837          	lui	a6,0xf6bb5
     b2c:	82d5                	srli	a3,a3,0x15
     b2e:	8edd                	or	a3,a3,a5
     b30:	b6080813          	addi	a6,a6,-1184 # f6bb4b60 <__kernel_stack+0xd6af4b68>
     b34:	96ae                	add	a3,a3,a1
     b36:	985e                	add	a6,a6,s7
     b38:	00b747b3          	xor	a5,a4,a1
     b3c:	9642                	add	a2,a2,a6
     b3e:	8fb5                	xor	a5,a5,a3
     b40:	97b2                	add	a5,a5,a2
     b42:	01079613          	slli	a2,a5,0x10
     b46:	bebfc837          	lui	a6,0xbebfc
     b4a:	83c1                	srli	a5,a5,0x10
     b4c:	8fd1                	or	a5,a5,a2
     b4e:	c7080813          	addi	a6,a6,-912 # bebfbc70 <__kernel_stack+0x9eb3bc78>
     b52:	97b6                	add	a5,a5,a3
     b54:	984a                	add	a6,a6,s2
     b56:	00d5c633          	xor	a2,a1,a3
     b5a:	9742                	add	a4,a4,a6
     b5c:	8e3d                	xor	a2,a2,a5
     b5e:	963a                	add	a2,a2,a4
     b60:	00965713          	srli	a4,a2,0x9
     b64:	289b8837          	lui	a6,0x289b8
     b68:	065e                	slli	a2,a2,0x17
     b6a:	8e59                	or	a2,a2,a4
     b6c:	ec680813          	addi	a6,a6,-314 # 289b7ec6 <__kernel_stack+0x88f7ece>
     b70:	963e                	add	a2,a2,a5
     b72:	987a                	add	a6,a6,t5
     b74:	00f6c733          	xor	a4,a3,a5
     b78:	95c2                	add	a1,a1,a6
     b7a:	8f31                	xor	a4,a4,a2
     b7c:	972e                	add	a4,a4,a1
     b7e:	00471593          	slli	a1,a4,0x4
     b82:	eaa12837          	lui	a6,0xeaa12
     b86:	8371                	srli	a4,a4,0x1c
     b88:	8f4d                	or	a4,a4,a1
     b8a:	7fa80813          	addi	a6,a6,2042 # eaa127fa <__kernel_stack+0xca952802>
     b8e:	9732                	add	a4,a4,a2
     b90:	00c7c5b3          	xor	a1,a5,a2
     b94:	9862                	add	a6,a6,s8
     b96:	9836                	add	a6,a6,a3
     b98:	00e5c6b3          	xor	a3,a1,a4
     b9c:	96c2                	add	a3,a3,a6
     b9e:	00b69593          	slli	a1,a3,0xb
     ba2:	d4ef3837          	lui	a6,0xd4ef3
     ba6:	82d5                	srli	a3,a3,0x15
     ba8:	8ecd                	or	a3,a3,a1
     baa:	08580813          	addi	a6,a6,133 # d4ef3085 <__kernel_stack+0xb4e3308d>
     bae:	96ba                	add	a3,a3,a4
     bb0:	984e                	add	a6,a6,s3
     bb2:	00e645b3          	xor	a1,a2,a4
     bb6:	97c2                	add	a5,a5,a6
     bb8:	8db5                	xor	a1,a1,a3
     bba:	95be                	add	a1,a1,a5
     bbc:	01059793          	slli	a5,a1,0x10
     bc0:	04882837          	lui	a6,0x4882
     bc4:	81c1                	srli	a1,a1,0x10
     bc6:	8ddd                	or	a1,a1,a5
     bc8:	d0580813          	addi	a6,a6,-763 # 4881d05 <_global_impure_ptr+0x487bced>
     bcc:	95b6                	add	a1,a1,a3
     bce:	987e                	add	a6,a6,t6
     bd0:	00d747b3          	xor	a5,a4,a3
     bd4:	9642                	add	a2,a2,a6
     bd6:	8fad                	xor	a5,a5,a1
     bd8:	97b2                	add	a5,a5,a2
     bda:	0097d613          	srli	a2,a5,0x9
     bde:	d9d4d837          	lui	a6,0xd9d4d
     be2:	07de                	slli	a5,a5,0x17
     be4:	8fd1                	or	a5,a5,a2
     be6:	03980813          	addi	a6,a6,57 # d9d4d039 <__kernel_stack+0xb9c8d041>
     bea:	97ae                	add	a5,a5,a1
     bec:	00b6c633          	xor	a2,a3,a1
     bf0:	982a                	add	a6,a6,a0
     bf2:	983a                	add	a6,a6,a4
     bf4:	00f64733          	xor	a4,a2,a5
     bf8:	9742                	add	a4,a4,a6
     bfa:	00471613          	slli	a2,a4,0x4
     bfe:	e6dba837          	lui	a6,0xe6dba
     c02:	8371                	srli	a4,a4,0x1c
     c04:	8f51                	or	a4,a4,a2
     c06:	9e580813          	addi	a6,a6,-1563 # e6db99e5 <__kernel_stack+0xc6cf99ed>
     c0a:	973e                	add	a4,a4,a5
     c0c:	9852                	add	a6,a6,s4
     c0e:	00f5c633          	xor	a2,a1,a5
     c12:	96c2                	add	a3,a3,a6
     c14:	8e39                	xor	a2,a2,a4
     c16:	9636                	add	a2,a2,a3
     c18:	00b61693          	slli	a3,a2,0xb
     c1c:	1fa28837          	lui	a6,0x1fa28
     c20:	8255                	srli	a2,a2,0x15
     c22:	8e55                	or	a2,a2,a3
     c24:	cf880813          	addi	a6,a6,-776 # 1fa27cf8 <_global_impure_ptr+0x1fa21ce0>
     c28:	963a                	add	a2,a2,a4
     c2a:	9816                	add	a6,a6,t0
     c2c:	00e7c6b3          	xor	a3,a5,a4
     c30:	95c2                	add	a1,a1,a6
     c32:	8eb1                	xor	a3,a3,a2
     c34:	96ae                	add	a3,a3,a1
     c36:	01069593          	slli	a1,a3,0x10
     c3a:	c4ac5837          	lui	a6,0xc4ac5
     c3e:	82c1                	srli	a3,a3,0x10
     c40:	8ecd                	or	a3,a3,a1
     c42:	66580813          	addi	a6,a6,1637 # c4ac5665 <__kernel_stack+0xa4a0566d>
     c46:	96b2                	add	a3,a3,a2
     c48:	00c745b3          	xor	a1,a4,a2
     c4c:	981a                	add	a6,a6,t1
     c4e:	983e                	add	a6,a6,a5
     c50:	00d5c7b3          	xor	a5,a1,a3
     c54:	97c2                	add	a5,a5,a6
     c56:	0097d593          	srli	a1,a5,0x9
     c5a:	07de                	slli	a5,a5,0x17
     c5c:	8fcd                	or	a5,a5,a1
     c5e:	f4292837          	lui	a6,0xf4292
     c62:	97b6                	add	a5,a5,a3
     c64:	fff64593          	not	a1,a2
     c68:	24480813          	addi	a6,a6,580 # f4292244 <__kernel_stack+0xd41d224c>
     c6c:	9c42                	add	s8,s8,a6
     c6e:	8ddd                	or	a1,a1,a5
     c70:	9762                	add	a4,a4,s8
     c72:	8db5                	xor	a1,a1,a3
     c74:	95ba                	add	a1,a1,a4
     c76:	00659713          	slli	a4,a1,0x6
     c7a:	81e9                	srli	a1,a1,0x1a
     c7c:	8dd9                	or	a1,a1,a4
     c7e:	432b0837          	lui	a6,0x432b0
     c82:	95be                	add	a1,a1,a5
     c84:	fff6c713          	not	a4,a3
     c88:	f9780813          	addi	a6,a6,-105 # 432aff97 <__kernel_stack+0x231eff9f>
     c8c:	9bc2                	add	s7,s7,a6
     c8e:	8f4d                	or	a4,a4,a1
     c90:	965e                	add	a2,a2,s7
     c92:	8f3d                	xor	a4,a4,a5
     c94:	9732                	add	a4,a4,a2
     c96:	00a71613          	slli	a2,a4,0xa
     c9a:	8359                	srli	a4,a4,0x16
     c9c:	8f51                	or	a4,a4,a2
     c9e:	ab942837          	lui	a6,0xab942
     ca2:	972e                	add	a4,a4,a1
     ca4:	fff7c613          	not	a2,a5
     ca8:	3a780813          	addi	a6,a6,935 # ab9423a7 <__kernel_stack+0x8b8823af>
     cac:	8e59                	or	a2,a2,a4
     cae:	9b42                	add	s6,s6,a6
     cb0:	9b36                	add	s6,s6,a3
     cb2:	00b646b3          	xor	a3,a2,a1
     cb6:	96da                	add	a3,a3,s6
     cb8:	00f69613          	slli	a2,a3,0xf
     cbc:	82c5                	srli	a3,a3,0x11
     cbe:	8ed1                	or	a3,a3,a2
     cc0:	fc93a837          	lui	a6,0xfc93a
     cc4:	96ba                	add	a3,a3,a4
     cc6:	fff5c613          	not	a2,a1
     cca:	03980813          	addi	a6,a6,57 # fc93a039 <__kernel_stack+0xdc87a041>
     cce:	9ac2                	add	s5,s5,a6
     cd0:	8e55                	or	a2,a2,a3
     cd2:	97d6                	add	a5,a5,s5
     cd4:	8e39                	xor	a2,a2,a4
     cd6:	963e                	add	a2,a2,a5
     cd8:	00b65793          	srli	a5,a2,0xb
     cdc:	0656                	slli	a2,a2,0x15
     cde:	8e5d                	or	a2,a2,a5
     ce0:	655b6837          	lui	a6,0x655b6
     ce4:	9636                	add	a2,a2,a3
     ce6:	fff74793          	not	a5,a4
     cea:	9c380813          	addi	a6,a6,-1597 # 655b59c3 <__kernel_stack+0x454f59cb>
     cee:	9a42                	add	s4,s4,a6
     cf0:	8fd1                	or	a5,a5,a2
     cf2:	95d2                	add	a1,a1,s4
     cf4:	8fb5                	xor	a5,a5,a3
     cf6:	97ae                	add	a5,a5,a1
     cf8:	00679593          	slli	a1,a5,0x6
     cfc:	83e9                	srli	a5,a5,0x1a
     cfe:	8fcd                	or	a5,a5,a1
     d00:	8f0cd837          	lui	a6,0x8f0cd
     d04:	97b2                	add	a5,a5,a2
     d06:	fff6c593          	not	a1,a3
     d0a:	c9280813          	addi	a6,a6,-878 # 8f0ccc92 <__kernel_stack+0x6f00cc9a>
     d0e:	8ddd                	or	a1,a1,a5
     d10:	99c2                	add	s3,s3,a6
     d12:	99ba                	add	s3,s3,a4
     d14:	00c5c733          	xor	a4,a1,a2
     d18:	974e                	add	a4,a4,s3
     d1a:	00a71593          	slli	a1,a4,0xa
     d1e:	8359                	srli	a4,a4,0x16
     d20:	8f4d                	or	a4,a4,a1
     d22:	ffeff837          	lui	a6,0xffeff
     d26:	973e                	add	a4,a4,a5
     d28:	fff64593          	not	a1,a2
     d2c:	47d80813          	addi	a6,a6,1149 # ffeff47d <__kernel_stack+0xdfe3f485>
     d30:	8dd9                	or	a1,a1,a4
     d32:	9942                	add	s2,s2,a6
     d34:	9936                	add	s2,s2,a3
     d36:	00f5c6b3          	xor	a3,a1,a5
     d3a:	96ca                	add	a3,a3,s2
     d3c:	00f69593          	slli	a1,a3,0xf
     d40:	82c5                	srli	a3,a3,0x11
     d42:	8ecd                	or	a3,a3,a1
     d44:	85846837          	lui	a6,0x85846
     d48:	96ba                	add	a3,a3,a4
     d4a:	fff7c593          	not	a1,a5
     d4e:	dd180813          	addi	a6,a6,-559 # 85845dd1 <__kernel_stack+0x65785dd9>
     d52:	8dd5                	or	a1,a1,a3
     d54:	94c2                	add	s1,s1,a6
     d56:	94b2                	add	s1,s1,a2
     d58:	00e5c633          	xor	a2,a1,a4
     d5c:	9626                	add	a2,a2,s1
     d5e:	00b65593          	srli	a1,a2,0xb
     d62:	0656                	slli	a2,a2,0x15
     d64:	8e4d                	or	a2,a2,a1
     d66:	6fa88837          	lui	a6,0x6fa88
     d6a:	9636                	add	a2,a2,a3
     d6c:	fff74593          	not	a1,a4
     d70:	e4f80813          	addi	a6,a6,-433 # 6fa87e4f <__kernel_stack+0x4f9c7e57>
     d74:	981e                	add	a6,a6,t2
     d76:	00c5e3b3          	or	t2,a1,a2
     d7a:	97c2                	add	a5,a5,a6
     d7c:	00d3c3b3          	xor	t2,t2,a3
     d80:	93be                	add	t2,t2,a5
     d82:	00639793          	slli	a5,t2,0x6
     d86:	01a3d393          	srli	t2,t2,0x1a
     d8a:	00f3e3b3          	or	t2,t2,a5
     d8e:	fe2ce7b7          	lui	a5,0xfe2ce
     d92:	93b2                	add	t2,t2,a2
     d94:	fff6c813          	not	a6,a3
     d98:	6e078793          	addi	a5,a5,1760 # fe2ce6e0 <__kernel_stack+0xde20e6e8>
     d9c:	92be                	add	t0,t0,a5
     d9e:	00786833          	or	a6,a6,t2
     da2:	9716                	add	a4,a4,t0
     da4:	00c84833          	xor	a6,a6,a2
     da8:	983a                	add	a6,a6,a4
     daa:	00a81793          	slli	a5,a6,0xa
     dae:	01685813          	srli	a6,a6,0x16
     db2:	00f86833          	or	a6,a6,a5
     db6:	a30147b7          	lui	a5,0xa3014
     dba:	981e                	add	a6,a6,t2
     dbc:	fff64593          	not	a1,a2
     dc0:	31478793          	addi	a5,a5,788 # a3014314 <__kernel_stack+0x82f5431c>
     dc4:	9fbe                	add	t6,t6,a5
     dc6:	0105e5b3          	or	a1,a1,a6
     dca:	96fe                	add	a3,a3,t6
     dcc:	0075c5b3          	xor	a1,a1,t2
     dd0:	95b6                	add	a1,a1,a3
     dd2:	00f59793          	slli	a5,a1,0xf
     dd6:	81c5                	srli	a1,a1,0x11
     dd8:	8ddd                	or	a1,a1,a5
     dda:	4e081737          	lui	a4,0x4e081
     dde:	95c2                	add	a1,a1,a6
     de0:	fff3c793          	not	a5,t2
     de4:	1a170713          	addi	a4,a4,417 # 4e0811a1 <__kernel_stack+0x2dfc11a9>
     de8:	8fcd                	or	a5,a5,a1
     dea:	9f3a                	add	t5,t5,a4
     dec:	9f32                	add	t5,t5,a2
     dee:	0107c633          	xor	a2,a5,a6
     df2:	967a                	add	a2,a2,t5
     df4:	00b65793          	srli	a5,a2,0xb
     df8:	0656                	slli	a2,a2,0x15
     dfa:	8e5d                	or	a2,a2,a5
     dfc:	f7538737          	lui	a4,0xf7538
     e00:	962e                	add	a2,a2,a1
     e02:	fff84793          	not	a5,a6
     e06:	e8270713          	addi	a4,a4,-382 # f7537e82 <__kernel_stack+0xd7477e8a>
     e0a:	9eba                	add	t4,t4,a4
     e0c:	8fd1                	or	a5,a5,a2
     e0e:	8fad                	xor	a5,a5,a1
     e10:	93f6                	add	t2,t2,t4
     e12:	979e                	add	a5,a5,t2
     e14:	00679713          	slli	a4,a5,0x6
     e18:	83e9                	srli	a5,a5,0x1a
     e1a:	8fd9                	or	a5,a5,a4
     e1c:	bd3af6b7          	lui	a3,0xbd3af
     e20:	97b2                	add	a5,a5,a2
     e22:	fff5c713          	not	a4,a1
     e26:	23568693          	addi	a3,a3,565 # bd3af235 <__kernel_stack+0x9d2ef23d>
     e2a:	9e36                	add	t3,t3,a3
     e2c:	8f5d                	or	a4,a4,a5
     e2e:	9872                	add	a6,a6,t3
     e30:	8f31                	xor	a4,a4,a2
     e32:	9742                	add	a4,a4,a6
     e34:	00a71693          	slli	a3,a4,0xa
     e38:	8359                	srli	a4,a4,0x16
     e3a:	8f55                	or	a4,a4,a3
     e3c:	2ad7d837          	lui	a6,0x2ad7d
     e40:	973e                	add	a4,a4,a5
     e42:	fff64693          	not	a3,a2
     e46:	2bb80813          	addi	a6,a6,699 # 2ad7d2bb <__kernel_stack+0xacbd2c3>
     e4a:	9342                	add	t1,t1,a6
     e4c:	8ed9                	or	a3,a3,a4
     e4e:	959a                	add	a1,a1,t1
     e50:	8ebd                	xor	a3,a3,a5
     e52:	96ae                	add	a3,a3,a1
     e54:	00f69593          	slli	a1,a3,0xf
     e58:	82c5                	srli	a3,a3,0x11
     e5a:	8ecd                	or	a3,a3,a1
     e5c:	eb86d837          	lui	a6,0xeb86d
     e60:	96ba                	add	a3,a3,a4
     e62:	fff7c593          	not	a1,a5
     e66:	39180813          	addi	a6,a6,913 # eb86d391 <__kernel_stack+0xcb7ad399>
     e6a:	8dd5                	or	a1,a1,a3
     e6c:	9542                	add	a0,a0,a6
     e6e:	9532                	add	a0,a0,a2
     e70:	00e5c633          	xor	a2,a1,a4
     e74:	962a                	add	a2,a2,a0
     e76:	00b65593          	srli	a1,a2,0xb
     e7a:	0656                	slli	a2,a2,0x15
     e7c:	8e4d                	or	a2,a2,a1
     e7e:	400c                	lw	a1,0(s0)
     e80:	98b6                	add	a7,a7,a3
     e82:	976e                	add	a4,a4,s11
     e84:	96e6                	add	a3,a3,s9
     e86:	97ae                	add	a5,a5,a1
     e88:	98b2                	add	a7,a7,a2
     e8a:	50f6                	lw	ra,124(sp)
     e8c:	c01c                	sw	a5,0(s0)
     e8e:	01142223          	sw	a7,4(s0)
     e92:	c414                	sw	a3,8(s0)
     e94:	c458                	sw	a4,12(s0)
     e96:	5466                	lw	s0,120(sp)
     e98:	54d6                	lw	s1,116(sp)
     e9a:	5946                	lw	s2,112(sp)
     e9c:	59b6                	lw	s3,108(sp)
     e9e:	5a26                	lw	s4,104(sp)
     ea0:	5a96                	lw	s5,100(sp)
     ea2:	5b06                	lw	s6,96(sp)
     ea4:	4bf6                	lw	s7,92(sp)
     ea6:	4c66                	lw	s8,88(sp)
     ea8:	4cd6                	lw	s9,84(sp)
     eaa:	4d46                	lw	s10,80(sp)
     eac:	4db6                	lw	s11,76(sp)
     eae:	6109                	addi	sp,sp,128
     eb0:	8082                	ret

00000eb2 <initialise_benchmark>:
     eb2:	8082                	ret

00000eb4 <benchmark>:
     eb4:	6799                	lui	a5,0x6
     eb6:	b9c78793          	addi	a5,a5,-1124 # 5b9c <digest_ref>
     eba:	0007a803          	lw	a6,0(a5)
     ebe:	43d0                	lw	a2,4(a5)
     ec0:	4794                	lw	a3,8(a5)
     ec2:	47d8                	lw	a4,12(a5)
     ec4:	1141                	addi	sp,sp,-16
     ec6:	20001537          	lui	a0,0x20001
     eca:	c606                	sw	ra,12(sp)
     ecc:	8f450793          	addi	a5,a0,-1804 # 200008f4 <digest>
     ed0:	200005b7          	lui	a1,0x20000
     ed4:	8f450513          	addi	a0,a0,-1804
     ed8:	02458593          	addi	a1,a1,36 # 20000024 <input>
     edc:	0107a023          	sw	a6,0(a5)
     ee0:	c3d0                	sw	a2,4(a5)
     ee2:	c794                	sw	a3,8(a5)
     ee4:	c7d8                	sw	a4,12(a5)
     ee6:	efaff0ef          	jal	ra,5e0 <_nettle_md5_compress>
     eea:	40b2                	lw	ra,12(sp)
     eec:	4501                	li	a0,0
     eee:	0141                	addi	sp,sp,16
     ef0:	8082                	ret

00000ef2 <verify_benchmark>:
     ef2:	7179                	addi	sp,sp,-48
     ef4:	d422                	sw	s0,40(sp)
     ef6:	20001437          	lui	s0,0x20001
     efa:	ce4e                	sw	s3,28(sp)
     efc:	8f440993          	addi	s3,s0,-1804 # 200008f4 <digest>
     f00:	d226                	sw	s1,36(sp)
     f02:	d04a                	sw	s2,32(sp)
     f04:	d606                	sw	ra,44(sp)
     f06:	8f440413          	addi	s0,s0,-1804
     f0a:	01098913          	addi	s2,s3,16
     f0e:	6499                	lui	s1,0x6
     f10:	400c                	lw	a1,0(s0)
     f12:	b8048513          	addi	a0,s1,-1152 # 5b80 <__errno+0xe>
     f16:	0411                	addi	s0,s0,4
     f18:	37e010ef          	jal	ra,2296 <printf>
     f1c:	ff241ae3          	bne	s0,s2,f10 <verify_benchmark+0x1e>
     f20:	6799                	lui	a5,0x6
     f22:	b9c78793          	addi	a5,a5,-1124 # 5b9c <digest_ref>
     f26:	4bcc                	lw	a1,20(a5)
     f28:	4f90                	lw	a2,24(a5)
     f2a:	4fd4                	lw	a3,28(a5)
     f2c:	0009a703          	lw	a4,0(s3)
     f30:	4b9c                	lw	a5,16(a5)
     f32:	c22e                	sw	a1,4(sp)
     f34:	c432                	sw	a2,8(sp)
     f36:	c636                	sw	a3,12(sp)
     f38:	00f70c63          	beq	a4,a5,f50 <verify_benchmark+0x5e>
     f3c:	4505                	li	a0,1
     f3e:	50b2                	lw	ra,44(sp)
     f40:	5422                	lw	s0,40(sp)
     f42:	5492                	lw	s1,36(sp)
     f44:	5902                	lw	s2,32(sp)
     f46:	49f2                	lw	s3,28(sp)
     f48:	00154513          	xori	a0,a0,1
     f4c:	6145                	addi	sp,sp,48
     f4e:	8082                	ret
     f50:	0049a703          	lw	a4,4(s3)
     f54:	feb714e3          	bne	a4,a1,f3c <verify_benchmark+0x4a>
     f58:	0089a703          	lw	a4,8(s3)
     f5c:	fec710e3          	bne	a4,a2,f3c <verify_benchmark+0x4a>
     f60:	00c9a703          	lw	a4,12(s3)
     f64:	4501                	li	a0,0
     f66:	fcd71be3          	bne	a4,a3,f3c <verify_benchmark+0x4a>
     f6a:	bfd1                	j	f3e <verify_benchmark+0x4c>

00000f6c <main>:
     f6c:	6795                	lui	a5,0x5
     f6e:	7179                	addi	sp,sp,-48
     f70:	b0078793          	addi	a5,a5,-1280 # 4b00 <__subdf3+0x6b4>
     f74:	d422                	sw	s0,40(sp)
     f76:	c43e                	sw	a5,8(sp)
     f78:	20000437          	lui	s0,0x20000
     f7c:	478d                	li	a5,3
     f7e:	ca3e                	sw	a5,20(sp)
     f80:	4581                	li	a1,0
     f82:	4785                	li	a5,1
     f84:	00440513          	addi	a0,s0,4 # 20000004 <uart0>
     f88:	d606                	sw	ra,44(sp)
     f8a:	ce3e                	sw	a5,28(sp)
     f8c:	c802                	sw	zero,16(sp)
     f8e:	c602                	sw	zero,12(sp)
     f90:	55a010ef          	jal	ra,24ea <ck_uart_open>
     f94:	002c                	addi	a1,sp,8
     f96:	00440513          	addi	a0,s0,4
     f9a:	564010ef          	jal	ra,24fe <ck_uart_init>
     f9e:	3f19                	jal	eb4 <benchmark>
     fa0:	4505                	li	a0,1
     fa2:	3f81                	jal	ef2 <verify_benchmark>
     fa4:	6519                	lui	a0,0x6
     fa6:	b8450513          	addi	a0,a0,-1148 # 5b84 <__errno+0x12>
     faa:	2a2010ef          	jal	ra,224c <puts>
     fae:	50b2                	lw	ra,44(sp)
     fb0:	5422                	lw	s0,40(sp)
     fb2:	4501                	li	a0,0
     fb4:	6145                	addi	sp,sp,48
     fb6:	8082                	ret

00000fb8 <_out_buffer>:
     fb8:	00d67563          	bgeu	a2,a3,fc2 <_out_buffer+0xa>
     fbc:	95b2                	add	a1,a1,a2
     fbe:	00a58023          	sb	a0,0(a1)
     fc2:	8082                	ret

00000fc4 <_out_null>:
     fc4:	8082                	ret

00000fc6 <_out_rev>:
     fc6:	7179                	addi	sp,sp,-48
     fc8:	d226                	sw	s1,36(sp)
     fca:	d04a                	sw	s2,32(sp)
     fcc:	ce4e                	sw	s3,28(sp)
     fce:	cc52                	sw	s4,24(sp)
     fd0:	ca56                	sw	s5,20(sp)
     fd2:	c85a                	sw	s6,16(sp)
     fd4:	8ab2                	mv	s5,a2
     fd6:	c462                	sw	s8,8(sp)
     fd8:	c266                	sw	s9,4(sp)
     fda:	c06a                	sw	s10,0(sp)
     fdc:	d606                	sw	ra,44(sp)
     fde:	d422                	sw	s0,40(sp)
     fe0:	c65e                	sw	s7,12(sp)
     fe2:	0038f613          	andi	a2,a7,3
     fe6:	8cc6                	mv	s9,a7
     fe8:	892a                	mv	s2,a0
     fea:	89ae                	mv	s3,a1
     fec:	8a36                	mv	s4,a3
     fee:	8b3a                	mv	s6,a4
     ff0:	8d3e                	mv	s10,a5
     ff2:	8c42                	mv	s8,a6
     ff4:	84d6                	mv	s1,s5
     ff6:	e205                	bnez	a2,1016 <_out_rev+0x50>
     ff8:	0107ff63          	bgeu	a5,a6,1016 <_out_rev+0x50>
     ffc:	40f804b3          	sub	s1,a6,a5
    1000:	94d6                	add	s1,s1,s5
    1002:	8456                	mv	s0,s5
    1004:	8622                	mv	a2,s0
    1006:	86d2                	mv	a3,s4
    1008:	0405                	addi	s0,s0,1
    100a:	85ce                	mv	a1,s3
    100c:	02000513          	li	a0,32
    1010:	9902                	jalr	s2
    1012:	fe9419e3          	bne	s0,s1,1004 <_out_rev+0x3e>
    1016:	020d0163          	beqz	s10,1038 <_out_rev+0x72>
    101a:	01ab0433          	add	s0,s6,s10
    101e:	00940bb3          	add	s7,s0,s1
    1022:	fff44503          	lbu	a0,-1(s0)
    1026:	408b8633          	sub	a2,s7,s0
    102a:	86d2                	mv	a3,s4
    102c:	147d                	addi	s0,s0,-1
    102e:	85ce                	mv	a1,s3
    1030:	9902                	jalr	s2
    1032:	fe8b18e3          	bne	s6,s0,1022 <_out_rev+0x5c>
    1036:	94ea                	add	s1,s1,s10
    1038:	002cfc93          	andi	s9,s9,2
    103c:	020c8063          	beqz	s9,105c <_out_rev+0x96>
    1040:	41548ab3          	sub	s5,s1,s5
    1044:	018afc63          	bgeu	s5,s8,105c <_out_rev+0x96>
    1048:	8626                	mv	a2,s1
    104a:	0a85                	addi	s5,s5,1
    104c:	86d2                	mv	a3,s4
    104e:	85ce                	mv	a1,s3
    1050:	02000513          	li	a0,32
    1054:	0485                	addi	s1,s1,1
    1056:	9902                	jalr	s2
    1058:	ff8ae8e3          	bltu	s5,s8,1048 <_out_rev+0x82>
    105c:	50b2                	lw	ra,44(sp)
    105e:	5422                	lw	s0,40(sp)
    1060:	5902                	lw	s2,32(sp)
    1062:	49f2                	lw	s3,28(sp)
    1064:	4a62                	lw	s4,24(sp)
    1066:	4ad2                	lw	s5,20(sp)
    1068:	4b42                	lw	s6,16(sp)
    106a:	4bb2                	lw	s7,12(sp)
    106c:	4c22                	lw	s8,8(sp)
    106e:	4c92                	lw	s9,4(sp)
    1070:	4d02                	lw	s10,0(sp)
    1072:	8526                	mv	a0,s1
    1074:	5492                	lw	s1,36(sp)
    1076:	6145                	addi	sp,sp,48
    1078:	8082                	ret

0000107a <_ntoa_format>:
    107a:	43a2                	lw	t2,8(sp)
    107c:	4282                	lw	t0,0(sp)
    107e:	4f92                	lw	t6,4(sp)
    1080:	0023f313          	andi	t1,t2,2
    1084:	8f42                	mv	t5,a6
    1086:	04031f63          	bnez	t1,10e4 <_ntoa_format+0x6a>
    108a:	0013f813          	andi	a6,t2,1
    108e:	0e0f9d63          	bnez	t6,1188 <_ntoa_format+0x10e>
    1092:	0257f363          	bgeu	a5,t0,10b8 <_ntoa_format+0x3e>
    1096:	437d                	li	t1,31
    1098:	1cf36b63          	bltu	t1,a5,126e <_ntoa_format+0x1f4>
    109c:	03000e13          	li	t3,48
    10a0:	02000e93          	li	t4,32
    10a4:	a019                	j	10aa <_ntoa_format+0x30>
    10a6:	01d78963          	beq	a5,t4,10b8 <_ntoa_format+0x3e>
    10aa:	0785                	addi	a5,a5,1
    10ac:	00f70333          	add	t1,a4,a5
    10b0:	ffc30fa3          	sb	t3,-1(t1)
    10b4:	fe57e9e3          	bltu	a5,t0,10a6 <_ntoa_format+0x2c>
    10b8:	02080663          	beqz	a6,10e4 <_ntoa_format+0x6a>
    10bc:	03f7f463          	bgeu	a5,t6,10e4 <_ntoa_format+0x6a>
    10c0:	02000813          	li	a6,32
    10c4:	0f078363          	beq	a5,a6,11aa <_ntoa_format+0x130>
    10c8:	03000e13          	li	t3,48
    10cc:	02000e93          	li	t4,32
    10d0:	a019                	j	10d6 <_ntoa_format+0x5c>
    10d2:	0dd78c63          	beq	a5,t4,11aa <_ntoa_format+0x130>
    10d6:	0785                	addi	a5,a5,1
    10d8:	00f70333          	add	t1,a4,a5
    10dc:	ffc30fa3          	sb	t3,-1(t1)
    10e0:	fff799e3          	bne	a5,t6,10d2 <_ntoa_format+0x58>
    10e4:	0103f813          	andi	a6,t2,16
    10e8:	06080a63          	beqz	a6,115c <_ntoa_format+0xe2>
    10ec:	4003f813          	andi	a6,t2,1024
    10f0:	04081563          	bnez	a6,113a <_ntoa_format+0xc0>
    10f4:	02079f63          	bnez	a5,1132 <_ntoa_format+0xb8>
    10f8:	47c1                	li	a5,16
    10fa:	12f88663          	beq	a7,a5,1226 <_ntoa_format+0x1ac>
    10fe:	4789                	li	a5,2
    1100:	16f88163          	beq	a7,a5,1262 <_ntoa_format+0x1e8>
    1104:	03000793          	li	a5,48
    1108:	00f70023          	sb	a5,0(a4)
    110c:	4785                	li	a5,1
    110e:	040f0d63          	beqz	t5,1168 <_ntoa_format+0xee>
    1112:	00f70833          	add	a6,a4,a5
    1116:	02d00893          	li	a7,45
    111a:	01180023          	sb	a7,0(a6)
    111e:	0785                	addi	a5,a5,1
    1120:	889e                	mv	a7,t2
    1122:	887e                	mv	a6,t6
    1124:	b54d                	j	fc6 <_out_rev>
    1126:	4003f793          	andi	a5,t2,1024
    112a:	12079363          	bnez	a5,1250 <_ntoa_format+0x1d6>
    112e:	02000793          	li	a5,32
    1132:	0af28e63          	beq	t0,a5,11ee <_ntoa_format+0x174>
    1136:	0aff8c63          	beq	t6,a5,11ee <_ntoa_format+0x174>
    113a:	4841                	li	a6,16
    113c:	0d088563          	beq	a7,a6,1206 <_ntoa_format+0x18c>
    1140:	4809                	li	a6,2
    1142:	09088c63          	beq	a7,a6,11da <_ntoa_format+0x160>
    1146:	02000813          	li	a6,32
    114a:	fd078be3          	beq	a5,a6,1120 <_ntoa_format+0xa6>
    114e:	00f70833          	add	a6,a4,a5
    1152:	03000893          	li	a7,48
    1156:	01180023          	sb	a7,0(a6)
    115a:	0785                	addi	a5,a5,1
    115c:	02000813          	li	a6,32
    1160:	fd0780e3          	beq	a5,a6,1120 <_ntoa_format+0xa6>
    1164:	fa0f17e3          	bnez	t5,1112 <_ntoa_format+0x98>
    1168:	0043f813          	andi	a6,t2,4
    116c:	04081d63          	bnez	a6,11c6 <_ntoa_format+0x14c>
    1170:	0083f813          	andi	a6,t2,8
    1174:	fa0806e3          	beqz	a6,1120 <_ntoa_format+0xa6>
    1178:	00f70833          	add	a6,a4,a5
    117c:	02000893          	li	a7,32
    1180:	01180023          	sb	a7,0(a6)
    1184:	0785                	addi	a5,a5,1
    1186:	bf69                	j	1120 <_ntoa_format+0xa6>
    1188:	02080763          	beqz	a6,11b6 <_ntoa_format+0x13c>
    118c:	040f1f63          	bnez	t5,11ea <_ntoa_format+0x170>
    1190:	00c3f313          	andi	t1,t2,12
    1194:	04031b63          	bnez	t1,11ea <_ntoa_format+0x170>
    1198:	f257f2e3          	bgeu	a5,t0,10bc <_ntoa_format+0x42>
    119c:	437d                	li	t1,31
    119e:	eef37fe3          	bgeu	t1,a5,109c <_ntoa_format+0x22>
    11a2:	02000793          	li	a5,32
    11a6:	f3f7ffe3          	bgeu	a5,t6,10e4 <_ntoa_format+0x6a>
    11aa:	0103f793          	andi	a5,t2,16
    11ae:	ffa5                	bnez	a5,1126 <_ntoa_format+0xac>
    11b0:	02000793          	li	a5,32
    11b4:	b7b5                	j	1120 <_ntoa_format+0xa6>
    11b6:	f257f7e3          	bgeu	a5,t0,10e4 <_ntoa_format+0x6a>
    11ba:	437d                	li	t1,31
    11bc:	eef370e3          	bgeu	t1,a5,109c <_ntoa_format+0x22>
    11c0:	02000793          	li	a5,32
    11c4:	b705                	j	10e4 <_ntoa_format+0x6a>
    11c6:	00f70833          	add	a6,a4,a5
    11ca:	02b00893          	li	a7,43
    11ce:	01180023          	sb	a7,0(a6)
    11d2:	0785                	addi	a5,a5,1
    11d4:	889e                	mv	a7,t2
    11d6:	887e                	mv	a6,t6
    11d8:	b3fd                	j	fc6 <_out_rev>
    11da:	02000813          	li	a6,32
    11de:	f50781e3          	beq	a5,a6,1120 <_ntoa_format+0xa6>
    11e2:	00f70833          	add	a6,a4,a5
    11e6:	0785                	addi	a5,a5,1
    11e8:	a055                	j	128c <_ntoa_format+0x212>
    11ea:	1ffd                	addi	t6,t6,-1
    11ec:	b775                	j	1198 <_ntoa_format+0x11e>
    11ee:	fff78813          	addi	a6,a5,-1
    11f2:	f00803e3          	beqz	a6,10f8 <_ntoa_format+0x7e>
    11f6:	4341                	li	t1,16
    11f8:	08688063          	beq	a7,t1,1278 <_ntoa_format+0x1fe>
    11fc:	4309                	li	t1,2
    11fe:	08688663          	beq	a7,t1,128a <_ntoa_format+0x210>
    1202:	87c2                	mv	a5,a6
    1204:	b7a9                	j	114e <_ntoa_format+0xd4>
    1206:	0203f813          	andi	a6,t2,32
    120a:	02081763          	bnez	a6,1238 <_ntoa_format+0x1be>
    120e:	02000813          	li	a6,32
    1212:	f10787e3          	beq	a5,a6,1120 <_ntoa_format+0xa6>
    1216:	00f708b3          	add	a7,a4,a5
    121a:	0785                	addi	a5,a5,1
    121c:	07800813          	li	a6,120
    1220:	01088023          	sb	a6,0(a7)
    1224:	b70d                	j	1146 <_ntoa_format+0xcc>
    1226:	0203f793          	andi	a5,t2,32
    122a:	e795                	bnez	a5,1256 <_ntoa_format+0x1dc>
    122c:	07800793          	li	a5,120
    1230:	00f70023          	sb	a5,0(a4)
    1234:	4785                	li	a5,1
    1236:	bf21                	j	114e <_ntoa_format+0xd4>
    1238:	02000813          	li	a6,32
    123c:	ef0782e3          	beq	a5,a6,1120 <_ntoa_format+0xa6>
    1240:	00f70833          	add	a6,a4,a5
    1244:	05800893          	li	a7,88
    1248:	01180023          	sb	a7,0(a6)
    124c:	0785                	addi	a5,a5,1
    124e:	bde5                	j	1146 <_ntoa_format+0xcc>
    1250:	02000793          	li	a5,32
    1254:	b5dd                	j	113a <_ntoa_format+0xc0>
    1256:	05800793          	li	a5,88
    125a:	00f70023          	sb	a5,0(a4)
    125e:	4785                	li	a5,1
    1260:	b5fd                	j	114e <_ntoa_format+0xd4>
    1262:	06200793          	li	a5,98
    1266:	00f70023          	sb	a5,0(a4)
    126a:	4785                	li	a5,1
    126c:	b5cd                	j	114e <_ntoa_format+0xd4>
    126e:	02000793          	li	a5,32
    1272:	e40815e3          	bnez	a6,10bc <_ntoa_format+0x42>
    1276:	b5bd                	j	10e4 <_ntoa_format+0x6a>
    1278:	0203f893          	andi	a7,t2,32
    127c:	17f9                	addi	a5,a5,-2
    127e:	fc0891e3          	bnez	a7,1240 <_ntoa_format+0x1c6>
    1282:	00f708b3          	add	a7,a4,a5
    1286:	87c2                	mv	a5,a6
    1288:	bf51                	j	121c <_ntoa_format+0x1a2>
    128a:	983a                	add	a6,a6,a4
    128c:	06200893          	li	a7,98
    1290:	01180023          	sb	a7,0(a6)
    1294:	bd4d                	j	1146 <_ntoa_format+0xcc>

00001296 <_ntoa_long>:
    1296:	7139                	addi	sp,sp,-64
    1298:	dc22                	sw	s0,56(sp)
    129a:	de06                	sw	ra,60(sp)
    129c:	8ec2                	mv	t4,a6
    129e:	4416                	lw	s0,68(sp)
    12a0:	8e3a                	mv	t3,a4
    12a2:	883e                	mv	a6,a5
    12a4:	e709                	bnez	a4,12ae <_ntoa_long+0x18>
    12a6:	40047793          	andi	a5,s0,1024
    12aa:	983d                	andi	s0,s0,-17
    12ac:	e3bd                	bnez	a5,1312 <_ntoa_long+0x7c>
    12ae:	02047713          	andi	a4,s0,32
    12b2:	06100293          	li	t0,97
    12b6:	eb39                	bnez	a4,130c <_ntoa_long+0x76>
    12b8:	4781                	li	a5,0
    12ba:	0818                	addi	a4,sp,16
    12bc:	43a5                	li	t2,9
    12be:	12d9                	addi	t0,t0,-10
    12c0:	02000093          	li	ra,32
    12c4:	a021                	j	12cc <_ntoa_long+0x36>
    12c6:	02178963          	beq	a5,ra,12f8 <_ntoa_long+0x62>
    12ca:	8e1a                	mv	t3,t1
    12cc:	03de7f33          	remu	t5,t3,t4
    12d0:	0fff7313          	andi	t1,t5,255
    12d4:	03030f93          	addi	t6,t1,48
    12d8:	9316                	add	t1,t1,t0
    12da:	0ff37313          	andi	t1,t1,255
    12de:	01e3e463          	bltu	t2,t5,12e6 <_ntoa_long+0x50>
    12e2:	0ffff313          	andi	t1,t6,255
    12e6:	0785                	addi	a5,a5,1
    12e8:	00f70f33          	add	t5,a4,a5
    12ec:	fe6f0fa3          	sb	t1,-1(t5)
    12f0:	03de5333          	divu	t1,t3,t4
    12f4:	fdde79e3          	bgeu	t3,t4,12c6 <_ntoa_long+0x30>
    12f8:	4306                	lw	t1,64(sp)
    12fa:	c422                	sw	s0,8(sp)
    12fc:	c046                	sw	a7,0(sp)
    12fe:	c21a                	sw	t1,4(sp)
    1300:	88f6                	mv	a7,t4
    1302:	3ba5                	jal	107a <_ntoa_format>
    1304:	50f2                	lw	ra,60(sp)
    1306:	5462                	lw	s0,56(sp)
    1308:	6121                	addi	sp,sp,64
    130a:	8082                	ret
    130c:	04100293          	li	t0,65
    1310:	b765                	j	12b8 <_ntoa_long+0x22>
    1312:	4781                	li	a5,0
    1314:	0818                	addi	a4,sp,16
    1316:	b7cd                	j	12f8 <_ntoa_long+0x62>

00001318 <_ntoa_long_long>:
    1318:	7175                	addi	sp,sp,-144
    131a:	d2d6                	sw	s5,100(sp)
    131c:	d0da                	sw	s6,96(sp)
    131e:	cede                	sw	s7,92(sp)
    1320:	cce2                	sw	s8,88(sp)
    1322:	cae6                	sw	s9,84(sp)
    1324:	c8ea                	sw	s10,80(sp)
    1326:	c6ee                	sw	s11,76(sp)
    1328:	de86                	sw	ra,124(sp)
    132a:	8dbe                	mv	s11,a5
    132c:	dca2                	sw	s0,120(sp)
    132e:	daa6                	sw	s1,116(sp)
    1330:	d8ca                	sw	s2,112(sp)
    1332:	d6ce                	sw	s3,108(sp)
    1334:	d4d2                	sw	s4,104(sp)
    1336:	c746                	sw	a7,140(sp)
    1338:	8fd9                	or	a5,a5,a4
    133a:	cc2a                	sw	a0,24(sp)
    133c:	ce2e                	sw	a1,28(sp)
    133e:	4b4a                	lw	s6,144(sp)
    1340:	8aba                	mv	s5,a4
    1342:	8bb2                	mv	s7,a2
    1344:	8c36                	mv	s8,a3
    1346:	8cc2                	mv	s9,a6
    1348:	8d46                	mv	s10,a7
    134a:	eb89                	bnez	a5,135c <_ntoa_long_long+0x44>
    134c:	477a                	lw	a4,156(sp)
    134e:	47fa                	lw	a5,156(sp)
    1350:	fef77a13          	andi	s4,a4,-17
    1354:	4007f793          	andi	a5,a5,1024
    1358:	cf52                	sw	s4,156(sp)
    135a:	e3bd                	bnez	a5,13c0 <_ntoa_long_long+0xa8>
    135c:	47fa                	lw	a5,156(sp)
    135e:	06100413          	li	s0,97
    1362:	0207f793          	andi	a5,a5,32
    1366:	e3c5                	bnez	a5,1406 <_ntoa_long_long+0xee>
    1368:	4a01                	li	s4,0
    136a:	1004                	addi	s1,sp,32
    136c:	4925                	li	s2,9
    136e:	1459                	addi	s0,s0,-10
    1370:	02000993          	li	s3,32
    1374:	866a                	mv	a2,s10
    1376:	86da                	mv	a3,s6
    1378:	8556                	mv	a0,s5
    137a:	85ee                	mv	a1,s11
    137c:	69e010ef          	jal	ra,2a1a <__umoddi3>
    1380:	0ff57513          	andi	a0,a0,255
    1384:	00850833          	add	a6,a0,s0
    1388:	03050613          	addi	a2,a0,48
    138c:	0ff87813          	andi	a6,a6,255
    1390:	00a96463          	bltu	s2,a0,1398 <_ntoa_long_long+0x80>
    1394:	0ff67813          	andi	a6,a2,255
    1398:	0a05                	addi	s4,s4,1
    139a:	014488b3          	add	a7,s1,s4
    139e:	8556                	mv	a0,s5
    13a0:	85ee                	mv	a1,s11
    13a2:	866a                	mv	a2,s10
    13a4:	86da                	mv	a3,s6
    13a6:	ff088fa3          	sb	a6,-1(a7)
    13aa:	310010ef          	jal	ra,26ba <__udivdi3>
    13ae:	016deb63          	bltu	s11,s6,13c4 <_ntoa_long_long+0xac>
    13b2:	05bb0763          	beq	s6,s11,1400 <_ntoa_long_long+0xe8>
    13b6:	013a0763          	beq	s4,s3,13c4 <_ntoa_long_long+0xac>
    13ba:	8aaa                	mv	s5,a0
    13bc:	8dae                	mv	s11,a1
    13be:	bf5d                	j	1374 <_ntoa_long_long+0x5c>
    13c0:	4a01                	li	s4,0
    13c2:	1004                	addi	s1,sp,32
    13c4:	476a                	lw	a4,152(sp)
    13c6:	47fa                	lw	a5,156(sp)
    13c8:	45f2                	lw	a1,28(sp)
    13ca:	c23a                	sw	a4,4(sp)
    13cc:	475a                	lw	a4,148(sp)
    13ce:	4562                	lw	a0,24(sp)
    13d0:	c43e                	sw	a5,8(sp)
    13d2:	c03a                	sw	a4,0(sp)
    13d4:	88ea                	mv	a7,s10
    13d6:	8866                	mv	a6,s9
    13d8:	87d2                	mv	a5,s4
    13da:	8726                	mv	a4,s1
    13dc:	86e2                	mv	a3,s8
    13de:	865e                	mv	a2,s7
    13e0:	3969                	jal	107a <_ntoa_format>
    13e2:	50f6                	lw	ra,124(sp)
    13e4:	5466                	lw	s0,120(sp)
    13e6:	54d6                	lw	s1,116(sp)
    13e8:	5946                	lw	s2,112(sp)
    13ea:	59b6                	lw	s3,108(sp)
    13ec:	5a26                	lw	s4,104(sp)
    13ee:	5a96                	lw	s5,100(sp)
    13f0:	5b06                	lw	s6,96(sp)
    13f2:	4bf6                	lw	s7,92(sp)
    13f4:	4c66                	lw	s8,88(sp)
    13f6:	4cd6                	lw	s9,84(sp)
    13f8:	4d46                	lw	s10,80(sp)
    13fa:	4db6                	lw	s11,76(sp)
    13fc:	6149                	addi	sp,sp,144
    13fe:	8082                	ret
    1400:	fbaafbe3          	bgeu	s5,s10,13b6 <_ntoa_long_long+0x9e>
    1404:	b7c1                	j	13c4 <_ntoa_long_long+0xac>
    1406:	04100413          	li	s0,65
    140a:	bfb9                	j	1368 <_ntoa_long_long+0x50>

0000140c <_etoa>:
    140c:	7119                	addi	sp,sp,-128
    140e:	d8ca                	sw	s2,112(sp)
    1410:	d6ce                	sw	s3,108(sp)
    1412:	d4d2                	sw	s4,104(sp)
    1414:	d2d6                	sw	s5,100(sp)
    1416:	89aa                	mv	s3,a0
    1418:	8a2e                	mv	s4,a1
    141a:	8932                	mv	s2,a2
    141c:	8ab6                	mv	s5,a3
    141e:	863a                	mv	a2,a4
    1420:	86be                	mv	a3,a5
    1422:	853a                	mv	a0,a4
    1424:	85be                	mv	a1,a5
    1426:	dca2                	sw	s0,120(sp)
    1428:	daa6                	sw	s1,116(sp)
    142a:	d0da                	sw	s6,96(sp)
    142c:	cce2                	sw	s8,88(sp)
    142e:	cae6                	sw	s9,84(sp)
    1430:	de86                	sw	ra,124(sp)
    1432:	cede                	sw	s7,92(sp)
    1434:	c8ea                	sw	s10,80(sp)
    1436:	c6ee                	sw	s11,76(sp)
    1438:	843a                	mv	s0,a4
    143a:	84be                	mv	s1,a5
    143c:	8c42                	mv	s8,a6
    143e:	8b46                	mv	s6,a7
    1440:	05f020ef          	jal	ra,3c9e <__eqdf2>
    1444:	4c8a                	lw	s9,128(sp)
    1446:	36051063          	bnez	a0,17a6 <_etoa+0x39a>
    144a:	6799                	lui	a5,0x6
    144c:	f807a603          	lw	a2,-128(a5) # 5f80 <__erodata>
    1450:	f847a683          	lw	a3,-124(a5)
    1454:	8522                	mv	a0,s0
    1456:	85a6                	mv	a1,s1
    1458:	0eb020ef          	jal	ra,3d42 <__gedf2>
    145c:	34a04563          	bgtz	a0,17a6 <_etoa+0x39a>
    1460:	6799                	lui	a5,0x6
    1462:	f887a603          	lw	a2,-120(a5) # 5f88 <__erodata+0x8>
    1466:	f8c7a683          	lw	a3,-116(a5)
    146a:	8522                	mv	a0,s0
    146c:	85a6                	mv	a1,s1
    146e:	18b020ef          	jal	ra,3df8 <__ledf2>
    1472:	32054a63          	bltz	a0,17a6 <_etoa+0x39a>
    1476:	8522                	mv	a0,s0
    1478:	85a6                	mv	a1,s1
    147a:	4601                	li	a2,0
    147c:	4681                	li	a3,0
    147e:	17b020ef          	jal	ra,3df8 <__ledf2>
    1482:	80000bb7          	lui	s7,0x80000
    1486:	d222                	sw	s0,36(sp)
    1488:	009bcbb3          	xor	s7,s7,s1
    148c:	00054363          	bltz	a0,1492 <_etoa+0x86>
    1490:	8ba6                	mv	s7,s1
    1492:	400cf793          	andi	a5,s9,1024
    1496:	de3e                	sw	a5,60(sp)
    1498:	e391                	bnez	a5,149c <_etoa+0x90>
    149a:	4c19                	li	s8,6
    149c:	014bd513          	srli	a0,s7,0x14
    14a0:	7ff57513          	andi	a0,a0,2047
    14a4:	c0150513          	addi	a0,a0,-1023
    14a8:	1d1030ef          	jal	ra,4e78 <__floatsidf>
    14ac:	6799                	lui	a5,0x6
    14ae:	f907a603          	lw	a2,-112(a5) # 5f90 <__erodata+0x10>
    14b2:	f947a683          	lw	a3,-108(a5)
    14b6:	1f9020ef          	jal	ra,3eae <__muldf3>
    14ba:	6799                	lui	a5,0x6
    14bc:	f987a603          	lw	a2,-104(a5) # 5f98 <__erodata+0x18>
    14c0:	f9c7a683          	lw	a3,-100(a5)
    14c4:	097010ef          	jal	ra,2d5a <__adddf3>
    14c8:	00cb9793          	slli	a5,s7,0xc
    14cc:	00c7d713          	srli	a4,a5,0xc
    14d0:	6799                	lui	a5,0x6
    14d2:	fa07a603          	lw	a2,-96(a5) # 5fa0 <__erodata+0x20>
    14d6:	fa47a683          	lw	a3,-92(a5)
    14da:	3ff007b7          	lui	a5,0x3ff00
    14de:	8fd9                	or	a5,a5,a4
    14e0:	8daa                	mv	s11,a0
    14e2:	8d2e                	mv	s10,a1
    14e4:	8522                	mv	a0,s0
    14e6:	85be                	mv	a1,a5
    14e8:	765020ef          	jal	ra,444c <__subdf3>
    14ec:	6799                	lui	a5,0x6
    14ee:	fa87a603          	lw	a2,-88(a5) # 5fa8 <__erodata+0x28>
    14f2:	fac7a683          	lw	a3,-84(a5)
    14f6:	1b9020ef          	jal	ra,3eae <__muldf3>
    14fa:	862a                	mv	a2,a0
    14fc:	86ae                	mv	a3,a1
    14fe:	856e                	mv	a0,s11
    1500:	85ea                	mv	a1,s10
    1502:	059010ef          	jal	ra,2d5a <__adddf3>
    1506:	013030ef          	jal	ra,4d18 <__fixdfsi>
    150a:	8d2a                	mv	s10,a0
    150c:	16d030ef          	jal	ra,4e78 <__floatsidf>
    1510:	6799                	lui	a5,0x6
    1512:	fb07a603          	lw	a2,-80(a5) # 5fb0 <__erodata+0x30>
    1516:	fb47a683          	lw	a3,-76(a5)
    151a:	8dae                	mv	s11,a1
    151c:	cc2a                	sw	a0,24(sp)
    151e:	191020ef          	jal	ra,3eae <__muldf3>
    1522:	6719                	lui	a4,0x6
    1524:	fb872603          	lw	a2,-72(a4) # 5fb8 <__erodata+0x38>
    1528:	fbc72683          	lw	a3,-68(a4)
    152c:	02f010ef          	jal	ra,2d5a <__adddf3>
    1530:	7e8030ef          	jal	ra,4d18 <__fixdfsi>
    1534:	47e2                	lw	a5,24(sp)
    1536:	6699                	lui	a3,0x6
    1538:	fc06a603          	lw	a2,-64(a3) # 5fc0 <__erodata+0x40>
    153c:	fc46a683          	lw	a3,-60(a3)
    1540:	872a                	mv	a4,a0
    1542:	85ee                	mv	a1,s11
    1544:	853e                	mv	a0,a5
    1546:	8dba                	mv	s11,a4
    1548:	167020ef          	jal	ra,3eae <__muldf3>
    154c:	87aa                	mv	a5,a0
    154e:	856e                	mv	a0,s11
    1550:	cc3e                	sw	a5,24(sp)
    1552:	d46e                	sw	s11,40(sp)
    1554:	8dae                	mv	s11,a1
    1556:	123030ef          	jal	ra,4e78 <__floatsidf>
    155a:	6719                	lui	a4,0x6
    155c:	fc872603          	lw	a2,-56(a4) # 5fc8 <__erodata+0x48>
    1560:	fcc72683          	lw	a3,-52(a4)
    1564:	14b020ef          	jal	ra,3eae <__muldf3>
    1568:	47e2                	lw	a5,24(sp)
    156a:	862a                	mv	a2,a0
    156c:	86ae                	mv	a3,a1
    156e:	853e                	mv	a0,a5
    1570:	85ee                	mv	a1,s11
    1572:	6db020ef          	jal	ra,444c <__subdf3>
    1576:	862a                	mv	a2,a0
    1578:	86ae                	mv	a3,a1
    157a:	d62a                	sw	a0,44(sp)
    157c:	cc2e                	sw	a1,24(sp)
    157e:	131020ef          	jal	ra,3eae <__muldf3>
    1582:	47e2                	lw	a5,24(sp)
    1584:	5732                	lw	a4,44(sp)
    1586:	8daa                	mv	s11,a0
    1588:	86be                	mv	a3,a5
    158a:	882e                	mv	a6,a1
    158c:	863a                	mv	a2,a4
    158e:	85be                	mv	a1,a5
    1590:	853a                	mv	a0,a4
    1592:	da3e                	sw	a5,52(sp)
    1594:	dc3a                	sw	a4,56(sp)
    1596:	cc42                	sw	a6,24(sp)
    1598:	7c2010ef          	jal	ra,2d5a <__adddf3>
    159c:	6699                	lui	a3,0x6
    159e:	882e                	mv	a6,a1
    15a0:	fd06a603          	lw	a2,-48(a3) # 5fd0 <__erodata+0x50>
    15a4:	45e2                	lw	a1,24(sp)
    15a6:	fd46a683          	lw	a3,-44(a3)
    15aa:	88aa                	mv	a7,a0
    15ac:	856e                	mv	a0,s11
    15ae:	d846                	sw	a7,48(sp)
    15b0:	d642                	sw	a6,44(sp)
    15b2:	060020ef          	jal	ra,3612 <__divdf3>
    15b6:	6719                	lui	a4,0x6
    15b8:	fd872603          	lw	a2,-40(a4) # 5fd8 <__erodata+0x58>
    15bc:	fdc72683          	lw	a3,-36(a4)
    15c0:	79a010ef          	jal	ra,2d5a <__adddf3>
    15c4:	86ae                	mv	a3,a1
    15c6:	45e2                	lw	a1,24(sp)
    15c8:	862a                	mv	a2,a0
    15ca:	856e                	mv	a0,s11
    15cc:	046020ef          	jal	ra,3612 <__divdf3>
    15d0:	6699                	lui	a3,0x6
    15d2:	fe06a603          	lw	a2,-32(a3) # 5fe0 <__erodata+0x60>
    15d6:	fe46a683          	lw	a3,-28(a3)
    15da:	780010ef          	jal	ra,2d5a <__adddf3>
    15de:	86ae                	mv	a3,a1
    15e0:	45e2                	lw	a1,24(sp)
    15e2:	862a                	mv	a2,a0
    15e4:	856e                	mv	a0,s11
    15e6:	02c020ef          	jal	ra,3612 <__divdf3>
    15ea:	5762                	lw	a4,56(sp)
    15ec:	57d2                	lw	a5,52(sp)
    15ee:	6699                	lui	a3,0x6
    15f0:	832a                	mv	t1,a0
    15f2:	8dae                	mv	s11,a1
    15f4:	fe86a503          	lw	a0,-24(a3) # 5fe8 <__erodata+0x68>
    15f8:	fec6a583          	lw	a1,-20(a3)
    15fc:	863a                	mv	a2,a4
    15fe:	86be                	mv	a3,a5
    1600:	cc1a                	sw	t1,24(sp)
    1602:	64b020ef          	jal	ra,444c <__subdf3>
    1606:	4362                	lw	t1,24(sp)
    1608:	862a                	mv	a2,a0
    160a:	86ae                	mv	a3,a1
    160c:	851a                	mv	a0,t1
    160e:	85ee                	mv	a1,s11
    1610:	74a010ef          	jal	ra,2d5a <__adddf3>
    1614:	58c2                	lw	a7,48(sp)
    1616:	5832                	lw	a6,44(sp)
    1618:	862a                	mv	a2,a0
    161a:	86ae                	mv	a3,a1
    161c:	8546                	mv	a0,a7
    161e:	85c2                	mv	a1,a6
    1620:	7f3010ef          	jal	ra,3612 <__divdf3>
    1624:	6799                	lui	a5,0x6
    1626:	ff07a603          	lw	a2,-16(a5) # 5ff0 <__erodata+0x70>
    162a:	ff47a683          	lw	a3,-12(a5)
    162e:	72c010ef          	jal	ra,2d5a <__adddf3>
    1632:	57a2                	lw	a5,40(sp)
    1634:	4601                	li	a2,0
    1636:	3ff78793          	addi	a5,a5,1023
    163a:	07d2                	slli	a5,a5,0x14
    163c:	86be                	mv	a3,a5
    163e:	071020ef          	jal	ra,3eae <__muldf3>
    1642:	8622                	mv	a2,s0
    1644:	86de                	mv	a3,s7
    1646:	8daa                	mv	s11,a0
    1648:	cc2e                	sw	a1,24(sp)
    164a:	6f8020ef          	jal	ra,3d42 <__gedf2>
    164e:	18a04463          	bgtz	a0,17d6 <_etoa+0x3ca>
    1652:	43e2                	lw	t2,24(sp)
    1654:	836e                	mv	t1,s11
    1656:	063d0d93          	addi	s11,s10,99
    165a:	00bcd793          	srli	a5,s9,0xb
    165e:	0c600713          	li	a4,198
    1662:	01b73db3          	sltu	s11,a4,s11
    1666:	8b85                	andi	a5,a5,1
    1668:	0d91                	addi	s11,s11,4
    166a:	c7a1                	beqz	a5,16b2 <_etoa+0x2a6>
    166c:	6799                	lui	a5,0x6
    166e:	ff87a603          	lw	a2,-8(a5) # 5ff8 <__erodata+0x78>
    1672:	ffc7a683          	lw	a3,-4(a5)
    1676:	8522                	mv	a0,s0
    1678:	85de                	mv	a1,s7
    167a:	cc1a                	sw	t1,24(sp)
    167c:	ce1e                	sw	t2,28(sp)
    167e:	6c4020ef          	jal	ra,3d42 <__gedf2>
    1682:	4362                	lw	t1,24(sp)
    1684:	43f2                	lw	t2,28(sp)
    1686:	00054f63          	bltz	a0,16a4 <_etoa+0x298>
    168a:	6799                	lui	a5,0x6
    168c:	0007a603          	lw	a2,0(a5) # 6000 <__erodata+0x80>
    1690:	0047a683          	lw	a3,4(a5)
    1694:	8522                	mv	a0,s0
    1696:	85de                	mv	a1,s7
    1698:	760020ef          	jal	ra,3df8 <__ledf2>
    169c:	4362                	lw	t1,24(sp)
    169e:	43f2                	lw	t2,28(sp)
    16a0:	14054863          	bltz	a0,17f0 <_etoa+0x3e4>
    16a4:	000c0763          	beqz	s8,16b2 <_etoa+0x2a6>
    16a8:	57f2                	lw	a5,60(sp)
    16aa:	00f037b3          	snez	a5,a5
    16ae:	40fc0c33          	sub	s8,s8,a5
    16b2:	4881                	li	a7,0
    16b4:	016df463          	bgeu	s11,s6,16bc <_etoa+0x2b0>
    16b8:	41bb08b3          	sub	a7,s6,s11
    16bc:	002cf793          	andi	a5,s9,2
    16c0:	d43e                	sw	a5,40(sp)
    16c2:	c799                	beqz	a5,16d0 <_etoa+0x2c4>
    16c4:	001db793          	seqz	a5,s11
    16c8:	40f007b3          	neg	a5,a5
    16cc:	00f8f8b3          	and	a7,a7,a5
    16d0:	000d0c63          	beqz	s10,16e8 <_etoa+0x2dc>
    16d4:	85de                	mv	a1,s7
    16d6:	8522                	mv	a0,s0
    16d8:	861a                	mv	a2,t1
    16da:	869e                	mv	a3,t2
    16dc:	cc46                	sw	a7,24(sp)
    16de:	735010ef          	jal	ra,3612 <__divdf3>
    16e2:	48e2                	lw	a7,24(sp)
    16e4:	d22a                	sw	a0,36(sp)
    16e6:	8bae                	mv	s7,a1
    16e8:	8522                	mv	a0,s0
    16ea:	85a6                	mv	a1,s1
    16ec:	4601                	li	a2,0
    16ee:	4681                	li	a3,0
    16f0:	cc46                	sw	a7,24(sp)
    16f2:	706020ef          	jal	ra,3df8 <__ledf2>
    16f6:	48e2                	lw	a7,24(sp)
    16f8:	00055663          	bgez	a0,1704 <_etoa+0x2f8>
    16fc:	800007b7          	lui	a5,0x80000
    1700:	0177cbb3          	xor	s7,a5,s7
    1704:	5512                	lw	a0,36(sp)
    1706:	77fd                	lui	a5,0xfffff
    1708:	7ff78793          	addi	a5,a5,2047 # fffff7ff <__kernel_stack+0xdff3f807>
    170c:	00fcf7b3          	and	a5,s9,a5
    1710:	c03e                	sw	a5,0(sp)
    1712:	872a                	mv	a4,a0
    1714:	8862                	mv	a6,s8
    1716:	87de                	mv	a5,s7
    1718:	86d6                	mv	a3,s5
    171a:	864a                	mv	a2,s2
    171c:	85d2                	mv	a1,s4
    171e:	854e                	mv	a0,s3
    1720:	20e5                	jal	1808 <_ftoa>
    1722:	842a                	mv	s0,a0
    1724:	060d8163          	beqz	s11,1786 <_etoa+0x37a>
    1728:	01ac9513          	slli	a0,s9,0x1a
    172c:	857d                	srai	a0,a0,0x1f
    172e:	9901                	andi	a0,a0,-32
    1730:	8622                	mv	a2,s0
    1732:	86d6                	mv	a3,s5
    1734:	85d2                	mv	a1,s4
    1736:	06550513          	addi	a0,a0,101
    173a:	9982                	jalr	s3
    173c:	41fd5713          	srai	a4,s10,0x1f
    1740:	01a746b3          	xor	a3,a4,s10
    1744:	4795                	li	a5,5
    1746:	1dfd                	addi	s11,s11,-1
    1748:	00140613          	addi	a2,s0,1
    174c:	c23e                	sw	a5,4(sp)
    174e:	40e68733          	sub	a4,a3,a4
    1752:	01fd5793          	srli	a5,s10,0x1f
    1756:	c06e                	sw	s11,0(sp)
    1758:	4881                	li	a7,0
    175a:	4829                	li	a6,10
    175c:	86d6                	mv	a3,s5
    175e:	85d2                	mv	a1,s4
    1760:	854e                	mv	a0,s3
    1762:	3e15                	jal	1296 <_ntoa_long>
    1764:	57a2                	lw	a5,40(sp)
    1766:	842a                	mv	s0,a0
    1768:	cf99                	beqz	a5,1786 <_etoa+0x37a>
    176a:	41250933          	sub	s2,a0,s2
    176e:	01697c63          	bgeu	s2,s6,1786 <_etoa+0x37a>
    1772:	8622                	mv	a2,s0
    1774:	0905                	addi	s2,s2,1
    1776:	86d6                	mv	a3,s5
    1778:	85d2                	mv	a1,s4
    177a:	02000513          	li	a0,32
    177e:	0405                	addi	s0,s0,1
    1780:	9982                	jalr	s3
    1782:	ff6968e3          	bltu	s2,s6,1772 <_etoa+0x366>
    1786:	50f6                	lw	ra,124(sp)
    1788:	8522                	mv	a0,s0
    178a:	5466                	lw	s0,120(sp)
    178c:	54d6                	lw	s1,116(sp)
    178e:	5946                	lw	s2,112(sp)
    1790:	59b6                	lw	s3,108(sp)
    1792:	5a26                	lw	s4,104(sp)
    1794:	5a96                	lw	s5,100(sp)
    1796:	5b06                	lw	s6,96(sp)
    1798:	4bf6                	lw	s7,92(sp)
    179a:	4c66                	lw	s8,88(sp)
    179c:	4cd6                	lw	s9,84(sp)
    179e:	4d46                	lw	s10,80(sp)
    17a0:	4db6                	lw	s11,76(sp)
    17a2:	6109                	addi	sp,sp,128
    17a4:	8082                	ret
    17a6:	8722                	mv	a4,s0
    17a8:	5466                	lw	s0,120(sp)
    17aa:	c166                	sw	s9,128(sp)
    17ac:	50f6                	lw	ra,124(sp)
    17ae:	4bf6                	lw	s7,92(sp)
    17b0:	4cd6                	lw	s9,84(sp)
    17b2:	4d46                	lw	s10,80(sp)
    17b4:	4db6                	lw	s11,76(sp)
    17b6:	87a6                	mv	a5,s1
    17b8:	88da                	mv	a7,s6
    17ba:	54d6                	lw	s1,116(sp)
    17bc:	5b06                	lw	s6,96(sp)
    17be:	8862                	mv	a6,s8
    17c0:	86d6                	mv	a3,s5
    17c2:	4c66                	lw	s8,88(sp)
    17c4:	5a96                	lw	s5,100(sp)
    17c6:	864a                	mv	a2,s2
    17c8:	85d2                	mv	a1,s4
    17ca:	5946                	lw	s2,112(sp)
    17cc:	5a26                	lw	s4,104(sp)
    17ce:	854e                	mv	a0,s3
    17d0:	59b6                	lw	s3,108(sp)
    17d2:	6109                	addi	sp,sp,128
    17d4:	a815                	j	1808 <_ftoa>
    17d6:	6799                	lui	a5,0x6
    17d8:	fd87a603          	lw	a2,-40(a5) # 5fd8 <__erodata+0x58>
    17dc:	fdc7a683          	lw	a3,-36(a5)
    17e0:	45e2                	lw	a1,24(sp)
    17e2:	856e                	mv	a0,s11
    17e4:	1d7d                	addi	s10,s10,-1
    17e6:	62d010ef          	jal	ra,3612 <__divdf3>
    17ea:	832a                	mv	t1,a0
    17ec:	83ae                	mv	t2,a1
    17ee:	b5a5                	j	1656 <_etoa+0x24a>
    17f0:	018d5a63          	bge	s10,s8,1804 <_etoa+0x3f8>
    17f4:	41ac0c33          	sub	s8,s8,s10
    17f8:	1c7d                	addi	s8,s8,-1
    17fa:	400cec93          	ori	s9,s9,1024
    17fe:	4d81                	li	s11,0
    1800:	4d01                	li	s10,0
    1802:	bd45                	j	16b2 <_etoa+0x2a6>
    1804:	4c01                	li	s8,0
    1806:	bfd5                	j	17fa <_etoa+0x3ee>

00001808 <_ftoa>:
    1808:	7119                	addi	sp,sp,-128
    180a:	d6ce                	sw	s3,108(sp)
    180c:	d4d2                	sw	s4,104(sp)
    180e:	d2d6                	sw	s5,100(sp)
    1810:	cce2                	sw	s8,88(sp)
    1812:	89aa                	mv	s3,a0
    1814:	8a2e                	mv	s4,a1
    1816:	8ab2                	mv	s5,a2
    1818:	8c36                	mv	s8,a3
    181a:	863a                	mv	a2,a4
    181c:	86be                	mv	a3,a5
    181e:	853a                	mv	a0,a4
    1820:	85be                	mv	a1,a5
    1822:	dca2                	sw	s0,120(sp)
    1824:	daa6                	sw	s1,116(sp)
    1826:	d8ca                	sw	s2,112(sp)
    1828:	d0da                	sw	s6,96(sp)
    182a:	cae6                	sw	s9,84(sp)
    182c:	de86                	sw	ra,124(sp)
    182e:	cede                	sw	s7,92(sp)
    1830:	c8ea                	sw	s10,80(sp)
    1832:	c6ee                	sw	s11,76(sp)
    1834:	84ba                	mv	s1,a4
    1836:	843e                	mv	s0,a5
    1838:	8b42                	mv	s6,a6
    183a:	8946                	mv	s2,a7
    183c:	462020ef          	jal	ra,3c9e <__eqdf2>
    1840:	4c8a                	lw	s9,128(sp)
    1842:	16051d63          	bnez	a0,19bc <_ftoa+0x1b4>
    1846:	6799                	lui	a5,0x6
    1848:	f887a603          	lw	a2,-120(a5) # 5f88 <__erodata+0x8>
    184c:	f8c7a683          	lw	a3,-116(a5)
    1850:	8526                	mv	a0,s1
    1852:	85a2                	mv	a1,s0
    1854:	5a4020ef          	jal	ra,3df8 <__ledf2>
    1858:	1e054463          	bltz	a0,1a40 <_ftoa+0x238>
    185c:	6799                	lui	a5,0x6
    185e:	f807a603          	lw	a2,-128(a5) # 5f80 <__erodata>
    1862:	f847a683          	lw	a3,-124(a5)
    1866:	8526                	mv	a0,s1
    1868:	85a2                	mv	a1,s0
    186a:	4d8020ef          	jal	ra,3d42 <__gedf2>
    186e:	12a04d63          	bgtz	a0,19a8 <_ftoa+0x1a0>
    1872:	6799                	lui	a5,0x6
    1874:	0087a603          	lw	a2,8(a5) # 6008 <__erodata+0x88>
    1878:	00c7a683          	lw	a3,12(a5)
    187c:	8526                	mv	a0,s1
    187e:	85a2                	mv	a1,s0
    1880:	4c2020ef          	jal	ra,3d42 <__gedf2>
    1884:	18a04663          	bgtz	a0,1a10 <_ftoa+0x208>
    1888:	6799                	lui	a5,0x6
    188a:	0107a603          	lw	a2,16(a5) # 6010 <__erodata+0x90>
    188e:	0147a683          	lw	a3,20(a5)
    1892:	8526                	mv	a0,s1
    1894:	85a2                	mv	a1,s0
    1896:	562020ef          	jal	ra,3df8 <__ledf2>
    189a:	16054b63          	bltz	a0,1a10 <_ftoa+0x208>
    189e:	8526                	mv	a0,s1
    18a0:	85a2                	mv	a1,s0
    18a2:	4601                	li	a2,0
    18a4:	4681                	li	a3,0
    18a6:	552020ef          	jal	ra,3df8 <__ledf2>
    18aa:	14054863          	bltz	a0,19fa <_ftoa+0x1f2>
    18ae:	ce02                	sw	zero,28(sp)
    18b0:	400cf793          	andi	a5,s9,1024
    18b4:	e391                	bnez	a5,18b8 <_ftoa+0xb0>
    18b6:	4b19                	li	s6,6
    18b8:	1014                	addi	a3,sp,32
    18ba:	fe0b0513          	addi	a0,s6,-32
    18be:	8bda                	mv	s7,s6
    18c0:	4625                	li	a2,9
    18c2:	03000593          	li	a1,48
    18c6:	a039                	j	18d4 <_ftoa+0xcc>
    18c8:	00b68023          	sb	a1,0(a3)
    18cc:	1bfd                	addi	s7,s7,-1
    18ce:	0685                	addi	a3,a3,1
    18d0:	26ab8363          	beq	s7,a0,1b36 <_ftoa+0x32e>
    18d4:	417b0db3          	sub	s11,s6,s7
    18d8:	ff7668e3          	bltu	a2,s7,18c8 <_ftoa+0xc0>
    18dc:	85a2                	mv	a1,s0
    18de:	8526                	mv	a0,s1
    18e0:	438030ef          	jal	ra,4d18 <__fixdfsi>
    18e4:	6619                	lui	a2,0x6
    18e6:	db860613          	addi	a2,a2,-584 # 5db8 <pow10.0>
    18ea:	003b9693          	slli	a3,s7,0x3
    18ee:	96b2                	add	a3,a3,a2
    18f0:	0046a803          	lw	a6,4(a3)
    18f4:	429c                	lw	a5,0(a3)
    18f6:	8d2a                	mv	s10,a0
    18f8:	c642                	sw	a6,12(sp)
    18fa:	c43e                	sw	a5,8(sp)
    18fc:	57c030ef          	jal	ra,4e78 <__floatsidf>
    1900:	862a                	mv	a2,a0
    1902:	86ae                	mv	a3,a1
    1904:	8526                	mv	a0,s1
    1906:	85a2                	mv	a1,s0
    1908:	345020ef          	jal	ra,444c <__subdf3>
    190c:	4622                	lw	a2,8(sp)
    190e:	46b2                	lw	a3,12(sp)
    1910:	59e020ef          	jal	ra,3eae <__muldf3>
    1914:	ca2e                	sw	a1,20(sp)
    1916:	cc2a                	sw	a0,24(sp)
    1918:	4c6030ef          	jal	ra,4dde <__fixunsdfsi>
    191c:	8b2a                	mv	s6,a0
    191e:	5c0030ef          	jal	ra,4ede <__floatunsidf>
    1922:	47d2                	lw	a5,20(sp)
    1924:	4362                	lw	t1,24(sp)
    1926:	862a                	mv	a2,a0
    1928:	86ae                	mv	a3,a1
    192a:	851a                	mv	a0,t1
    192c:	85be                	mv	a1,a5
    192e:	31f020ef          	jal	ra,444c <__subdf3>
    1932:	6719                	lui	a4,0x6
    1934:	fb872303          	lw	t1,-72(a4) # 5fb8 <__erodata+0x38>
    1938:	fbc72383          	lw	t2,-68(a4)
    193c:	ca2a                	sw	a0,20(sp)
    193e:	861a                	mv	a2,t1
    1940:	869e                	mv	a3,t2
    1942:	cc2e                	sw	a1,24(sp)
    1944:	3fe020ef          	jal	ra,3d42 <__gedf2>
    1948:	6799                	lui	a5,0x6
    194a:	fb87a303          	lw	t1,-72(a5) # 5fb8 <__erodata+0x38>
    194e:	fbc7a383          	lw	t2,-68(a5)
    1952:	1ca05663          	blez	a0,1b1e <_ftoa+0x316>
    1956:	0b05                	addi	s6,s6,1
    1958:	855a                	mv	a0,s6
    195a:	584030ef          	jal	ra,4ede <__floatunsidf>
    195e:	862a                	mv	a2,a0
    1960:	86ae                	mv	a3,a1
    1962:	4522                	lw	a0,8(sp)
    1964:	45b2                	lw	a1,12(sp)
    1966:	492020ef          	jal	ra,3df8 <__ledf2>
    196a:	00a04463          	bgtz	a0,1972 <_ftoa+0x16a>
    196e:	0d05                	addi	s10,s10,1
    1970:	4b01                	li	s6,0
    1972:	100b8d63          	beqz	s7,1a8c <_ftoa+0x284>
    1976:	02000313          	li	t1,32
    197a:	4629                	li	a2,10
    197c:	4e25                	li	t3,9
    197e:	0c6d8863          	beq	s11,t1,1a4e <_ftoa+0x246>
    1982:	02cb76b3          	remu	a3,s6,a2
    1986:	0d85                	addi	s11,s11,1
    1988:	101c                	addi	a5,sp,32
    198a:	01b78533          	add	a0,a5,s11
    198e:	fffb8593          	addi	a1,s7,-1 # 7fffffff <__kernel_stack+0x5ff40007>
    1992:	03068693          	addi	a3,a3,48
    1996:	fed50fa3          	sb	a3,-1(a0)
    199a:	02cb56b3          	divu	a3,s6,a2
    199e:	1f6e7b63          	bgeu	t3,s6,1b94 <_ftoa+0x38c>
    19a2:	8bae                	mv	s7,a1
    19a4:	8b36                	mv	s6,a3
    19a6:	bfe1                	j	197e <_ftoa+0x176>
    19a8:	004cf793          	andi	a5,s9,4
    19ac:	e3b1                	bnez	a5,19f0 <_ftoa+0x1e8>
    19ae:	6719                	lui	a4,0x6
    19b0:	bbc70713          	addi	a4,a4,-1092 # 5bbc <digest_ref+0x20>
    19b4:	478d                	li	a5,3
    19b6:	88e6                	mv	a7,s9
    19b8:	884a                	mv	a6,s2
    19ba:	a039                	j	19c8 <_ftoa+0x1c0>
    19bc:	6719                	lui	a4,0x6
    19be:	88e6                	mv	a7,s9
    19c0:	884a                	mv	a6,s2
    19c2:	478d                	li	a5,3
    19c4:	bc870713          	addi	a4,a4,-1080 # 5bc8 <digest_ref+0x2c>
    19c8:	5466                	lw	s0,120(sp)
    19ca:	50f6                	lw	ra,124(sp)
    19cc:	54d6                	lw	s1,116(sp)
    19ce:	5946                	lw	s2,112(sp)
    19d0:	5b06                	lw	s6,96(sp)
    19d2:	4bf6                	lw	s7,92(sp)
    19d4:	4cd6                	lw	s9,84(sp)
    19d6:	4d46                	lw	s10,80(sp)
    19d8:	4db6                	lw	s11,76(sp)
    19da:	86e2                	mv	a3,s8
    19dc:	8656                	mv	a2,s5
    19de:	4c66                	lw	s8,88(sp)
    19e0:	5a96                	lw	s5,100(sp)
    19e2:	85d2                	mv	a1,s4
    19e4:	854e                	mv	a0,s3
    19e6:	5a26                	lw	s4,104(sp)
    19e8:	59b6                	lw	s3,108(sp)
    19ea:	6109                	addi	sp,sp,128
    19ec:	ddaff06f          	j	fc6 <_out_rev>
    19f0:	6719                	lui	a4,0x6
    19f2:	bc070713          	addi	a4,a4,-1088 # 5bc0 <digest_ref+0x24>
    19f6:	4791                	li	a5,4
    19f8:	bf7d                	j	19b6 <_ftoa+0x1ae>
    19fa:	8626                	mv	a2,s1
    19fc:	86a2                	mv	a3,s0
    19fe:	4501                	li	a0,0
    1a00:	4581                	li	a1,0
    1a02:	24b020ef          	jal	ra,444c <__subdf3>
    1a06:	4785                	li	a5,1
    1a08:	84aa                	mv	s1,a0
    1a0a:	842e                	mv	s0,a1
    1a0c:	ce3e                	sw	a5,28(sp)
    1a0e:	b54d                	j	18b0 <_ftoa+0xa8>
    1a10:	87a2                	mv	a5,s0
    1a12:	5466                	lw	s0,120(sp)
    1a14:	c166                	sw	s9,128(sp)
    1a16:	50f6                	lw	ra,124(sp)
    1a18:	4bf6                	lw	s7,92(sp)
    1a1a:	4cd6                	lw	s9,84(sp)
    1a1c:	4d46                	lw	s10,80(sp)
    1a1e:	4db6                	lw	s11,76(sp)
    1a20:	8726                	mv	a4,s1
    1a22:	88ca                	mv	a7,s2
    1a24:	54d6                	lw	s1,116(sp)
    1a26:	5946                	lw	s2,112(sp)
    1a28:	885a                	mv	a6,s6
    1a2a:	86e2                	mv	a3,s8
    1a2c:	5b06                	lw	s6,96(sp)
    1a2e:	4c66                	lw	s8,88(sp)
    1a30:	8656                	mv	a2,s5
    1a32:	85d2                	mv	a1,s4
    1a34:	5a96                	lw	s5,100(sp)
    1a36:	5a26                	lw	s4,104(sp)
    1a38:	854e                	mv	a0,s3
    1a3a:	59b6                	lw	s3,108(sp)
    1a3c:	6109                	addi	sp,sp,128
    1a3e:	b2f9                	j	140c <_etoa>
    1a40:	6719                	lui	a4,0x6
    1a42:	88e6                	mv	a7,s9
    1a44:	884a                	mv	a6,s2
    1a46:	4791                	li	a5,4
    1a48:	bcc70713          	addi	a4,a4,-1076 # 5bcc <digest_ref+0x30>
    1a4c:	bfb5                	j	19c8 <_ftoa+0x1c0>
    1a4e:	003cf793          	andi	a5,s9,3
    1a52:	4705                	li	a4,1
    1a54:	0ee78463          	beq	a5,a4,1b3c <_ftoa+0x334>
    1a58:	02000793          	li	a5,32
    1a5c:	88e6                	mv	a7,s9
    1a5e:	884a                	mv	a6,s2
    1a60:	1018                	addi	a4,sp,32
    1a62:	86e2                	mv	a3,s8
    1a64:	8656                	mv	a2,s5
    1a66:	85d2                	mv	a1,s4
    1a68:	854e                	mv	a0,s3
    1a6a:	d5cff0ef          	jal	ra,fc6 <_out_rev>
    1a6e:	50f6                	lw	ra,124(sp)
    1a70:	5466                	lw	s0,120(sp)
    1a72:	54d6                	lw	s1,116(sp)
    1a74:	5946                	lw	s2,112(sp)
    1a76:	59b6                	lw	s3,108(sp)
    1a78:	5a26                	lw	s4,104(sp)
    1a7a:	5a96                	lw	s5,100(sp)
    1a7c:	5b06                	lw	s6,96(sp)
    1a7e:	4bf6                	lw	s7,92(sp)
    1a80:	4c66                	lw	s8,88(sp)
    1a82:	4cd6                	lw	s9,84(sp)
    1a84:	4d46                	lw	s10,80(sp)
    1a86:	4db6                	lw	s11,76(sp)
    1a88:	6109                	addi	sp,sp,128
    1a8a:	8082                	ret
    1a8c:	856a                	mv	a0,s10
    1a8e:	3ea030ef          	jal	ra,4e78 <__floatsidf>
    1a92:	862a                	mv	a2,a0
    1a94:	86ae                	mv	a3,a1
    1a96:	8526                	mv	a0,s1
    1a98:	85a2                	mv	a1,s0
    1a9a:	1b3020ef          	jal	ra,444c <__subdf3>
    1a9e:	6799                	lui	a5,0x6
    1aa0:	fb87ab03          	lw	s6,-72(a5) # 5fb8 <__erodata+0x38>
    1aa4:	fbc7ab83          	lw	s7,-68(a5)
    1aa8:	84aa                	mv	s1,a0
    1aaa:	865a                	mv	a2,s6
    1aac:	86de                	mv	a3,s7
    1aae:	842e                	mv	s0,a1
    1ab0:	348020ef          	jal	ra,3df8 <__ledf2>
    1ab4:	00055a63          	bgez	a0,1ac8 <_ftoa+0x2c0>
    1ab8:	8526                	mv	a0,s1
    1aba:	85a2                	mv	a1,s0
    1abc:	865a                	mv	a2,s6
    1abe:	86de                	mv	a3,s7
    1ac0:	282020ef          	jal	ra,3d42 <__gedf2>
    1ac4:	00a05563          	blez	a0,1ace <_ftoa+0x2c6>
    1ac8:	001d7793          	andi	a5,s10,1
    1acc:	9d3e                	add	s10,s10,a5
    1ace:	02000593          	li	a1,32
    1ad2:	46a9                	li	a3,10
    1ad4:	f6bd8de3          	beq	s11,a1,1a4e <_ftoa+0x246>
    1ad8:	02dd67b3          	rem	a5,s10,a3
    1adc:	0d85                	addi	s11,s11,1
    1ade:	1018                	addi	a4,sp,32
    1ae0:	01b70633          	add	a2,a4,s11
    1ae4:	02dd4d33          	div	s10,s10,a3
    1ae8:	03078793          	addi	a5,a5,48
    1aec:	fef60fa3          	sb	a5,-1(a2)
    1af0:	fe0d12e3          	bnez	s10,1ad4 <_ftoa+0x2cc>
    1af4:	003cf793          	andi	a5,s9,3
    1af8:	4685                	li	a3,1
    1afa:	04d78363          	beq	a5,a3,1b40 <_ftoa+0x338>
    1afe:	02000693          	li	a3,32
    1b02:	f4dd8be3          	beq	s11,a3,1a58 <_ftoa+0x250>
    1b06:	47f2                	lw	a5,28(sp)
    1b08:	c7bd                	beqz	a5,1b76 <_ftoa+0x36e>
    1b0a:	009c                	addi	a5,sp,64
    1b0c:	01b786b3          	add	a3,a5,s11
    1b10:	02d00713          	li	a4,45
    1b14:	001d8793          	addi	a5,s11,1
    1b18:	fee68023          	sb	a4,-32(a3)
    1b1c:	b781                	j	1a5c <_ftoa+0x254>
    1b1e:	4552                	lw	a0,20(sp)
    1b20:	45e2                	lw	a1,24(sp)
    1b22:	861a                	mv	a2,t1
    1b24:	869e                	mv	a3,t2
    1b26:	2d2020ef          	jal	ra,3df8 <__ledf2>
    1b2a:	e40544e3          	bltz	a0,1972 <_ftoa+0x16a>
    1b2e:	0a0b1263          	bnez	s6,1bd2 <_ftoa+0x3ca>
    1b32:	0b05                	addi	s6,s6,1
    1b34:	bd3d                	j	1972 <_ftoa+0x16a>
    1b36:	02000d93          	li	s11,32
    1b3a:	b34d                	j	18dc <_ftoa+0xd4>
    1b3c:	02000d93          	li	s11,32
    1b40:	fa090fe3          	beqz	s2,1afe <_ftoa+0x2f6>
    1b44:	47f2                	lw	a5,28(sp)
    1b46:	e7d5                	bnez	a5,1bf2 <_ftoa+0x3ea>
    1b48:	00ccf793          	andi	a5,s9,12
    1b4c:	e3dd                	bnez	a5,1bf2 <_ftoa+0x3ea>
    1b4e:	fb2df8e3          	bgeu	s11,s2,1afe <_ftoa+0x2f6>
    1b52:	02000793          	li	a5,32
    1b56:	03000613          	li	a2,48
    1b5a:	02000693          	li	a3,32
    1b5e:	eefd8de3          	beq	s11,a5,1a58 <_ftoa+0x250>
    1b62:	0d85                	addi	s11,s11,1
    1b64:	101c                	addi	a5,sp,32
    1b66:	97ee                	add	a5,a5,s11
    1b68:	fec78fa3          	sb	a2,-1(a5)
    1b6c:	f92d89e3          	beq	s11,s2,1afe <_ftoa+0x2f6>
    1b70:	fedd99e3          	bne	s11,a3,1b62 <_ftoa+0x35a>
    1b74:	b5d5                	j	1a58 <_ftoa+0x250>
    1b76:	004cf793          	andi	a5,s9,4
    1b7a:	e3b5                	bnez	a5,1bde <_ftoa+0x3d6>
    1b7c:	008cf613          	andi	a2,s9,8
    1b80:	87ee                	mv	a5,s11
    1b82:	ec060de3          	beqz	a2,1a5c <_ftoa+0x254>
    1b86:	0098                	addi	a4,sp,64
    1b88:	976e                	add	a4,a4,s11
    1b8a:	001d8793          	addi	a5,s11,1
    1b8e:	fed70023          	sb	a3,-32(a4)
    1b92:	b5e9                	j	1a5c <_ftoa+0x254>
    1b94:	ea6d8de3          	beq	s11,t1,1a4e <_ftoa+0x246>
    1b98:	866e                	mv	a2,s11
    1b9a:	03000893          	li	a7,48
    1b9e:	02000513          	li	a0,32
    1ba2:	cd99                	beqz	a1,1bc0 <_ftoa+0x3b8>
    1ba4:	0605                	addi	a2,a2,1
    1ba6:	101c                	addi	a5,sp,32
    1ba8:	fff64693          	not	a3,a2
    1bac:	00c785b3          	add	a1,a5,a2
    1bb0:	96ee                	add	a3,a3,s11
    1bb2:	ff158fa3          	sb	a7,-1(a1)
    1bb6:	96de                	add	a3,a3,s7
    1bb8:	e8a60be3          	beq	a2,a0,1a4e <_ftoa+0x246>
    1bbc:	fe0694e3          	bnez	a3,1ba4 <_ftoa+0x39c>
    1bc0:	009c                	addi	a5,sp,64
    1bc2:	97b2                	add	a5,a5,a2
    1bc4:	02e00693          	li	a3,46
    1bc8:	00160d93          	addi	s11,a2,1
    1bcc:	fed78023          	sb	a3,-32(a5)
    1bd0:	bdfd                	j	1ace <_ftoa+0x2c6>
    1bd2:	001b7693          	andi	a3,s6,1
    1bd6:	d8068ee3          	beqz	a3,1972 <_ftoa+0x16a>
    1bda:	0b05                	addi	s6,s6,1
    1bdc:	bb59                	j	1972 <_ftoa+0x16a>
    1bde:	009c                	addi	a5,sp,64
    1be0:	01b786b3          	add	a3,a5,s11
    1be4:	02b00713          	li	a4,43
    1be8:	001d8793          	addi	a5,s11,1
    1bec:	fee68023          	sb	a4,-32(a3)
    1bf0:	b5b5                	j	1a5c <_ftoa+0x254>
    1bf2:	197d                	addi	s2,s2,-1
    1bf4:	bfa9                	j	1b4e <_ftoa+0x346>

00001bf6 <_out_char>:
    1bf6:	e111                	bnez	a0,1bfa <_out_char+0x4>
    1bf8:	8082                	ret
    1bfa:	55fd                	li	a1,-1
    1bfc:	9d5fe06f          	j	5d0 <fputc>

00001c00 <_out_fct>:
    1c00:	c501                	beqz	a0,1c08 <_out_fct+0x8>
    1c02:	419c                	lw	a5,0(a1)
    1c04:	41cc                	lw	a1,4(a1)
    1c06:	8782                	jr	a5
    1c08:	8082                	ret

00001c0a <_vsnprintf>:
    1c0a:	7159                	addi	sp,sp,-112
    1c0c:	d4a2                	sw	s0,104(sp)
    1c0e:	d2a6                	sw	s1,100(sp)
    1c10:	d0ca                	sw	s2,96(sp)
    1c12:	cece                	sw	s3,92(sp)
    1c14:	c6de                	sw	s7,76(sp)
    1c16:	d686                	sw	ra,108(sp)
    1c18:	ccd2                	sw	s4,88(sp)
    1c1a:	cad6                	sw	s5,84(sp)
    1c1c:	c8da                	sw	s6,80(sp)
    1c1e:	c4e2                	sw	s8,72(sp)
    1c20:	c2e6                	sw	s9,68(sp)
    1c22:	c0ea                	sw	s10,64(sp)
    1c24:	de6e                	sw	s11,60(sp)
    1c26:	892e                	mv	s2,a1
    1c28:	84b2                	mv	s1,a2
    1c2a:	8bb6                	mv	s7,a3
    1c2c:	843a                	mv	s0,a4
    1c2e:	89aa                	mv	s3,a0
    1c30:	38058e63          	beqz	a1,1fcc <_vsnprintf+0x3c2>
    1c34:	000bc503          	lbu	a0,0(s7)
    1c38:	4d81                	li	s11,0
    1c3a:	3a050163          	beqz	a0,1fdc <_vsnprintf+0x3d2>
    1c3e:	6799                	lui	a5,0x6
    1c40:	c6878793          	addi	a5,a5,-920 # 5c68 <digest_ref+0xcc>
    1c44:	6b19                	lui	s6,0x6
    1c46:	6a19                	lui	s4,0x6
    1c48:	d23e                	sw	a5,36(sp)
    1c4a:	c1cb0793          	addi	a5,s6,-996 # 5c1c <digest_ref+0x80>
    1c4e:	02500a93          	li	s5,37
    1c52:	bd8a0a13          	addi	s4,s4,-1064 # 5bd8 <digest_ref+0x3c>
    1c56:	d03e                	sw	a5,32(sp)
    1c58:	a809                	j	1c6a <_vsnprintf+0x60>
    1c5a:	866e                	mv	a2,s11
    1c5c:	86a6                	mv	a3,s1
    1c5e:	85ca                	mv	a1,s2
    1c60:	0d85                	addi	s11,s11,1
    1c62:	9982                	jalr	s3
    1c64:	000bc503          	lbu	a0,0(s7)
    1c68:	c955                	beqz	a0,1d1c <_vsnprintf+0x112>
    1c6a:	0b85                	addi	s7,s7,1
    1c6c:	ff5517e3          	bne	a0,s5,1c5a <_vsnprintf+0x50>
    1c70:	4681                	li	a3,0
    1c72:	45c1                	li	a1,16
    1c74:	000bc503          	lbu	a0,0(s7)
    1c78:	001b8713          	addi	a4,s7,1
    1c7c:	863a                	mv	a2,a4
    1c7e:	fe050793          	addi	a5,a0,-32
    1c82:	0ff7f793          	andi	a5,a5,255
    1c86:	00f5e663          	bltu	a1,a5,1c92 <_vsnprintf+0x88>
    1c8a:	078a                	slli	a5,a5,0x2
    1c8c:	97d2                	add	a5,a5,s4
    1c8e:	439c                	lw	a5,0(a5)
    1c90:	8782                	jr	a5
    1c92:	fd050793          	addi	a5,a0,-48
    1c96:	0ff7f793          	andi	a5,a5,255
    1c9a:	45a5                	li	a1,9
    1c9c:	10f5f263          	bgeu	a1,a5,1da0 <_vsnprintf+0x196>
    1ca0:	02a00793          	li	a5,42
    1ca4:	12f50863          	beq	a0,a5,1dd4 <_vsnprintf+0x1ca>
    1ca8:	865e                	mv	a2,s7
    1caa:	4c01                	li	s8,0
    1cac:	8bba                	mv	s7,a4
    1cae:	02e00793          	li	a5,46
    1cb2:	4b01                	li	s6,0
    1cb4:	08f50e63          	beq	a0,a5,1d50 <_vsnprintf+0x146>
    1cb8:	f9850793          	addi	a5,a0,-104
    1cbc:	0ff7f793          	andi	a5,a5,255
    1cc0:	4749                	li	a4,18
    1cc2:	00f76c63          	bltu	a4,a5,1cda <_vsnprintf+0xd0>
    1cc6:	5702                	lw	a4,32(sp)
    1cc8:	078a                	slli	a5,a5,0x2
    1cca:	97ba                	add	a5,a5,a4
    1ccc:	439c                	lw	a5,0(a5)
    1cce:	8782                	jr	a5
    1cd0:	00164503          	lbu	a0,1(a2)
    1cd4:	1006e693          	ori	a3,a3,256
    1cd8:	0b85                	addi	s7,s7,1
    1cda:	fdb50793          	addi	a5,a0,-37
    1cde:	0ff7f793          	andi	a5,a5,255
    1ce2:	05300713          	li	a4,83
    1ce6:	f6f76ae3          	bltu	a4,a5,1c5a <_vsnprintf+0x50>
    1cea:	5712                	lw	a4,36(sp)
    1cec:	078a                	slli	a5,a5,0x2
    1cee:	97ba                	add	a5,a5,a4
    1cf0:	439c                	lw	a5,0(a5)
    1cf2:	8782                	jr	a5
    1cf4:	0016e693          	ori	a3,a3,1
    1cf8:	8bba                	mv	s7,a4
    1cfa:	bfad                	j	1c74 <_vsnprintf+0x6a>
    1cfc:	0026e693          	ori	a3,a3,2
    1d00:	8bba                	mv	s7,a4
    1d02:	bf8d                	j	1c74 <_vsnprintf+0x6a>
    1d04:	0046e693          	ori	a3,a3,4
    1d08:	8bba                	mv	s7,a4
    1d0a:	b7ad                	j	1c74 <_vsnprintf+0x6a>
    1d0c:	0106e693          	ori	a3,a3,16
    1d10:	8bba                	mv	s7,a4
    1d12:	b78d                	j	1c74 <_vsnprintf+0x6a>
    1d14:	0086e693          	ori	a3,a3,8
    1d18:	8bba                	mv	s7,a4
    1d1a:	bfa9                	j	1c74 <_vsnprintf+0x6a>
    1d1c:	846e                	mv	s0,s11
    1d1e:	009de463          	bltu	s11,s1,1d26 <_vsnprintf+0x11c>
    1d22:	fff48d93          	addi	s11,s1,-1
    1d26:	86a6                	mv	a3,s1
    1d28:	866e                	mv	a2,s11
    1d2a:	85ca                	mv	a1,s2
    1d2c:	4501                	li	a0,0
    1d2e:	9982                	jalr	s3
    1d30:	50b6                	lw	ra,108(sp)
    1d32:	8522                	mv	a0,s0
    1d34:	5426                	lw	s0,104(sp)
    1d36:	5496                	lw	s1,100(sp)
    1d38:	5906                	lw	s2,96(sp)
    1d3a:	49f6                	lw	s3,92(sp)
    1d3c:	4a66                	lw	s4,88(sp)
    1d3e:	4ad6                	lw	s5,84(sp)
    1d40:	4b46                	lw	s6,80(sp)
    1d42:	4bb6                	lw	s7,76(sp)
    1d44:	4c26                	lw	s8,72(sp)
    1d46:	4c96                	lw	s9,68(sp)
    1d48:	4d06                	lw	s10,64(sp)
    1d4a:	5df2                	lw	s11,60(sp)
    1d4c:	6165                	addi	sp,sp,112
    1d4e:	8082                	ret
    1d50:	00164503          	lbu	a0,1(a2)
    1d54:	4725                	li	a4,9
    1d56:	4006e693          	ori	a3,a3,1024
    1d5a:	fd050793          	addi	a5,a0,-48
    1d5e:	0ff7f793          	andi	a5,a5,255
    1d62:	00f77963          	bgeu	a4,a5,1d74 <_vsnprintf+0x16a>
    1d66:	02a00793          	li	a5,42
    1d6a:	26f50d63          	beq	a0,a5,1fe4 <_vsnprintf+0x3da>
    1d6e:	865e                	mv	a2,s7
    1d70:	0b85                	addi	s7,s7,1
    1d72:	b799                	j	1cb8 <_vsnprintf+0xae>
    1d74:	002b1793          	slli	a5,s6,0x2
    1d78:	01678833          	add	a6,a5,s6
    1d7c:	85de                	mv	a1,s7
    1d7e:	0806                	slli	a6,a6,0x1
    1d80:	0b85                	addi	s7,s7,1
    1d82:	982a                	add	a6,a6,a0
    1d84:	000bc503          	lbu	a0,0(s7)
    1d88:	fd080b13          	addi	s6,a6,-48
    1d8c:	fd050793          	addi	a5,a0,-48
    1d90:	0ff7f793          	andi	a5,a5,255
    1d94:	fef770e3          	bgeu	a4,a5,1d74 <_vsnprintf+0x16a>
    1d98:	865e                	mv	a2,s7
    1d9a:	00258b93          	addi	s7,a1,2
    1d9e:	bf29                	j	1cb8 <_vsnprintf+0xae>
    1da0:	4c01                	li	s8,0
    1da2:	4625                	li	a2,9
    1da4:	a011                	j	1da8 <_vsnprintf+0x19e>
    1da6:	0705                	addi	a4,a4,1
    1da8:	002c1793          	slli	a5,s8,0x2
    1dac:	018788b3          	add	a7,a5,s8
    1db0:	0886                	slli	a7,a7,0x1
    1db2:	98aa                	add	a7,a7,a0
    1db4:	00074503          	lbu	a0,0(a4)
    1db8:	85de                	mv	a1,s7
    1dba:	fd088c13          	addi	s8,a7,-48
    1dbe:	fd050793          	addi	a5,a0,-48
    1dc2:	0ff7f793          	andi	a5,a5,255
    1dc6:	8bba                	mv	s7,a4
    1dc8:	fcf67fe3          	bgeu	a2,a5,1da6 <_vsnprintf+0x19c>
    1dcc:	863a                	mv	a2,a4
    1dce:	00258b93          	addi	s7,a1,2
    1dd2:	bdf1                	j	1cae <_vsnprintf+0xa4>
    1dd4:	00042c03          	lw	s8,0(s0)
    1dd8:	0411                	addi	s0,s0,4
    1dda:	000c4663          	bltz	s8,1de6 <_vsnprintf+0x1dc>
    1dde:	001bc503          	lbu	a0,1(s7)
    1de2:	0b89                	addi	s7,s7,2
    1de4:	b5e9                	j	1cae <_vsnprintf+0xa4>
    1de6:	001bc503          	lbu	a0,1(s7)
    1dea:	0026e693          	ori	a3,a3,2
    1dee:	41800c33          	neg	s8,s8
    1df2:	0b89                	addi	s7,s7,2
    1df4:	bd6d                	j	1cae <_vsnprintf+0xa4>
    1df6:	07800793          	li	a5,120
    1dfa:	3af50463          	beq	a0,a5,21a2 <_vsnprintf+0x598>
    1dfe:	05800793          	li	a5,88
    1e02:	28f50b63          	beq	a0,a5,2098 <_vsnprintf+0x48e>
    1e06:	06f00793          	li	a5,111
    1e0a:	3cf50363          	beq	a0,a5,21d0 <_vsnprintf+0x5c6>
    1e0e:	06200793          	li	a5,98
    1e12:	40f50763          	beq	a0,a5,2220 <_vsnprintf+0x616>
    1e16:	06900713          	li	a4,105
    1e1a:	fef6f593          	andi	a1,a3,-17
    1e1e:	4006f793          	andi	a5,a3,1024
    1e22:	42e51363          	bne	a0,a4,2248 <_vsnprintf+0x63e>
    1e26:	38079663          	bnez	a5,21b2 <_vsnprintf+0x5a8>
    1e2a:	2006f693          	andi	a3,a3,512
    1e2e:	4829                	li	a6,10
    1e30:	32069763          	bnez	a3,215e <_vsnprintf+0x554>
    1e34:	1005f793          	andi	a5,a1,256
    1e38:	00440c93          	addi	s9,s0,4
    1e3c:	3c079563          	bnez	a5,2206 <_vsnprintf+0x5fc>
    1e40:	0405f793          	andi	a5,a1,64
    1e44:	36079c63          	bnez	a5,21bc <_vsnprintf+0x5b2>
    1e48:	0805f793          	andi	a5,a1,128
    1e4c:	3c078c63          	beqz	a5,2224 <_vsnprintf+0x61a>
    1e50:	00041783          	lh	a5,0(s0)
    1e54:	40f7d693          	srai	a3,a5,0xf
    1e58:	00d7c733          	xor	a4,a5,a3
    1e5c:	8f15                	sub	a4,a4,a3
    1e5e:	0742                	slli	a4,a4,0x10
    1e60:	8341                	srli	a4,a4,0x10
    1e62:	866e                	mv	a2,s11
    1e64:	c22e                	sw	a1,4(sp)
    1e66:	c062                	sw	s8,0(sp)
    1e68:	88da                	mv	a7,s6
    1e6a:	83fd                	srli	a5,a5,0x1f
    1e6c:	86a6                	mv	a3,s1
    1e6e:	85ca                	mv	a1,s2
    1e70:	854e                	mv	a0,s3
    1e72:	c24ff0ef          	jal	ra,1296 <_ntoa_long>
    1e76:	8daa                	mv	s11,a0
    1e78:	8466                	mv	s0,s9
    1e7a:	b3ed                	j	1c64 <_vsnprintf+0x5a>
    1e7c:	00164503          	lbu	a0,1(a2)
    1e80:	2006e693          	ori	a3,a3,512
    1e84:	0b85                	addi	s7,s7,1
    1e86:	bd91                	j	1cda <_vsnprintf+0xd0>
    1e88:	00164503          	lbu	a0,1(a2)
    1e8c:	06800793          	li	a5,104
    1e90:	1ef50963          	beq	a0,a5,2082 <_vsnprintf+0x478>
    1e94:	0806e693          	ori	a3,a3,128
    1e98:	0b85                	addi	s7,s7,1
    1e9a:	b581                	j	1cda <_vsnprintf+0xd0>
    1e9c:	00164503          	lbu	a0,1(a2)
    1ea0:	06c00793          	li	a5,108
    1ea4:	e2f518e3          	bne	a0,a5,1cd4 <_vsnprintf+0xca>
    1ea8:	00264503          	lbu	a0,2(a2)
    1eac:	3006e693          	ori	a3,a3,768
    1eb0:	00360b93          	addi	s7,a2,3
    1eb4:	b51d                	j	1cda <_vsnprintf+0xd0>
    1eb6:	04600793          	li	a5,70
    1eba:	18f50263          	beq	a0,a5,203e <_vsnprintf+0x434>
    1ebe:	041d                	addi	s0,s0,7
    1ec0:	9861                	andi	s0,s0,-8
    1ec2:	4018                	lw	a4,0(s0)
    1ec4:	405c                	lw	a5,4(s0)
    1ec6:	866e                	mv	a2,s11
    1ec8:	c036                	sw	a3,0(sp)
    1eca:	88e2                	mv	a7,s8
    1ecc:	885a                	mv	a6,s6
    1ece:	86a6                	mv	a3,s1
    1ed0:	85ca                	mv	a1,s2
    1ed2:	854e                	mv	a0,s3
    1ed4:	3a15                	jal	1808 <_ftoa>
    1ed6:	0421                	addi	s0,s0,8
    1ed8:	8daa                	mv	s11,a0
    1eda:	b369                	j	1c64 <_vsnprintf+0x5a>
    1edc:	001d8d13          	addi	s10,s11,1
    1ee0:	8a89                	andi	a3,a3,2
    1ee2:	8cea                	mv	s9,s10
    1ee4:	00440b13          	addi	s6,s0,4
    1ee8:	20068563          	beqz	a3,20f2 <_vsnprintf+0x4e8>
    1eec:	00044503          	lbu	a0,0(s0)
    1ef0:	866e                	mv	a2,s11
    1ef2:	86a6                	mv	a3,s1
    1ef4:	85ca                	mv	a1,s2
    1ef6:	9982                	jalr	s3
    1ef8:	4785                	li	a5,1
    1efa:	9de2                	add	s11,s11,s8
    1efc:	2d87f763          	bgeu	a5,s8,21ca <_vsnprintf+0x5c0>
    1f00:	8666                	mv	a2,s9
    1f02:	86a6                	mv	a3,s1
    1f04:	0c85                	addi	s9,s9,1
    1f06:	85ca                	mv	a1,s2
    1f08:	02000513          	li	a0,32
    1f0c:	9982                	jalr	s3
    1f0e:	ff9d99e3          	bne	s11,s9,1f00 <_vsnprintf+0x2f6>
    1f12:	845a                	mv	s0,s6
    1f14:	bb81                	j	1c64 <_vsnprintf+0x5a>
    1f16:	866e                	mv	a2,s11
    1f18:	86a6                	mv	a3,s1
    1f1a:	85ca                	mv	a1,s2
    1f1c:	02500513          	li	a0,37
    1f20:	0d85                	addi	s11,s11,1
    1f22:	9982                	jalr	s3
    1f24:	b381                	j	1c64 <_vsnprintf+0x5a>
    1f26:	00042d03          	lw	s10,0(s0)
    1f2a:	00440793          	addi	a5,s0,4
    1f2e:	d63e                	sw	a5,44(sp)
    1f30:	000d4503          	lbu	a0,0(s10)
    1f34:	0c0b1663          	bnez	s6,2000 <_vsnprintf+0x3f6>
    1f38:	5cf9                	li	s9,-2
    1f3a:	2e050c63          	beqz	a0,2232 <_vsnprintf+0x628>
    1f3e:	0c85                	addi	s9,s9,1
    1f40:	9cea                	add	s9,s9,s10
    1f42:	87ea                	mv	a5,s10
    1f44:	a019                	j	1f4a <_vsnprintf+0x340>
    1f46:	14fc8563          	beq	s9,a5,2090 <_vsnprintf+0x486>
    1f4a:	0017c703          	lbu	a4,1(a5)
    1f4e:	0785                	addi	a5,a5,1
    1f50:	fb7d                	bnez	a4,1f46 <_vsnprintf+0x33c>
    1f52:	41a787b3          	sub	a5,a5,s10
    1f56:	d43e                	sw	a5,40(sp)
    1f58:	4006f793          	andi	a5,a3,1024
    1f5c:	ce3e                	sw	a5,28(sp)
    1f5e:	c789                	beqz	a5,1f68 <_vsnprintf+0x35e>
    1f60:	57a2                	lw	a5,40(sp)
    1f62:	00fb7363          	bgeu	s6,a5,1f68 <_vsnprintf+0x35e>
    1f66:	d45a                	sw	s6,40(sp)
    1f68:	0026f413          	andi	s0,a3,2
    1f6c:	1a040e63          	beqz	s0,2128 <_vsnprintf+0x51e>
    1f70:	0c050b63          	beqz	a0,2046 <_vsnprintf+0x43c>
    1f74:	866e                	mv	a2,s11
    1f76:	a011                	j	1f7a <_vsnprintf+0x370>
    1f78:	8666                	mv	a2,s9
    1f7a:	47f2                	lw	a5,28(sp)
    1f7c:	c791                	beqz	a5,1f88 <_vsnprintf+0x37e>
    1f7e:	fffb0793          	addi	a5,s6,-1
    1f82:	160b0663          	beqz	s6,20ee <_vsnprintf+0x4e4>
    1f86:	8b3e                	mv	s6,a5
    1f88:	86a6                	mv	a3,s1
    1f8a:	85ca                	mv	a1,s2
    1f8c:	00160c93          	addi	s9,a2,1
    1f90:	9982                	jalr	s3
    1f92:	41bc87b3          	sub	a5,s9,s11
    1f96:	97ea                	add	a5,a5,s10
    1f98:	0007c503          	lbu	a0,0(a5)
    1f9c:	fd71                	bnez	a0,1f78 <_vsnprintf+0x36e>
    1f9e:	0a041363          	bnez	s0,2044 <_vsnprintf+0x43a>
    1fa2:	5432                	lw	s0,44(sp)
    1fa4:	8de6                	mv	s11,s9
    1fa6:	b97d                	j	1c64 <_vsnprintf+0x5a>
    1fa8:	4018                	lw	a4,0(s0)
    1faa:	0216e693          	ori	a3,a3,33
    1fae:	47a1                	li	a5,8
    1fb0:	866e                	mv	a2,s11
    1fb2:	c236                	sw	a3,4(sp)
    1fb4:	c03e                	sw	a5,0(sp)
    1fb6:	88da                	mv	a7,s6
    1fb8:	4841                	li	a6,16
    1fba:	4781                	li	a5,0
    1fbc:	86a6                	mv	a3,s1
    1fbe:	85ca                	mv	a1,s2
    1fc0:	854e                	mv	a0,s3
    1fc2:	ad4ff0ef          	jal	ra,1296 <_ntoa_long>
    1fc6:	0411                	addi	s0,s0,4
    1fc8:	8daa                	mv	s11,a0
    1fca:	b969                	j	1c64 <_vsnprintf+0x5a>
    1fcc:	000bc503          	lbu	a0,0(s7)
    1fd0:	6985                	lui	s3,0x1
    1fd2:	fc498993          	addi	s3,s3,-60 # fc4 <_out_null>
    1fd6:	4d81                	li	s11,0
    1fd8:	c60513e3          	bnez	a0,1c3e <_vsnprintf+0x34>
    1fdc:	4401                	li	s0,0
    1fde:	d49de4e3          	bltu	s11,s1,1d26 <_vsnprintf+0x11c>
    1fe2:	b381                	j	1d22 <_vsnprintf+0x118>
    1fe4:	00042b03          	lw	s6,0(s0)
    1fe8:	00264503          	lbu	a0,2(a2)
    1fec:	00360b93          	addi	s7,a2,3
    1ff0:	fffb4793          	not	a5,s6
    1ff4:	87fd                	srai	a5,a5,0x1f
    1ff6:	00fb7b33          	and	s6,s6,a5
    1ffa:	0411                	addi	s0,s0,4
    1ffc:	0609                	addi	a2,a2,2
    1ffe:	b96d                	j	1cb8 <_vsnprintf+0xae>
    2000:	22050963          	beqz	a0,2232 <_vsnprintf+0x628>
    2004:	fffb0c93          	addi	s9,s6,-1
    2008:	bf1d                	j	1f3e <_vsnprintf+0x334>
    200a:	0df57793          	andi	a5,a0,223
    200e:	04700713          	li	a4,71
    2012:	04e78b63          	beq	a5,a4,2068 <_vsnprintf+0x45e>
    2016:	04500793          	li	a5,69
    201a:	06f50163          	beq	a0,a5,207c <_vsnprintf+0x472>
    201e:	041d                	addi	s0,s0,7
    2020:	9861                	andi	s0,s0,-8
    2022:	4018                	lw	a4,0(s0)
    2024:	405c                	lw	a5,4(s0)
    2026:	866e                	mv	a2,s11
    2028:	c036                	sw	a3,0(sp)
    202a:	88e2                	mv	a7,s8
    202c:	885a                	mv	a6,s6
    202e:	86a6                	mv	a3,s1
    2030:	85ca                	mv	a1,s2
    2032:	854e                	mv	a0,s3
    2034:	bd8ff0ef          	jal	ra,140c <_etoa>
    2038:	0421                	addi	s0,s0,8
    203a:	8daa                	mv	s11,a0
    203c:	b125                	j	1c64 <_vsnprintf+0x5a>
    203e:	0206e693          	ori	a3,a3,32
    2042:	bdb5                	j	1ebe <_vsnprintf+0x2b4>
    2044:	8de6                	mv	s11,s9
    2046:	57a2                	lw	a5,40(sp)
    2048:	1187f963          	bgeu	a5,s8,215a <_vsnprintf+0x550>
    204c:	01bc0733          	add	a4,s8,s11
    2050:	40f70cb3          	sub	s9,a4,a5
    2054:	866e                	mv	a2,s11
    2056:	86a6                	mv	a3,s1
    2058:	0d85                	addi	s11,s11,1
    205a:	85ca                	mv	a1,s2
    205c:	02000513          	li	a0,32
    2060:	9982                	jalr	s3
    2062:	ffbc99e3          	bne	s9,s11,2054 <_vsnprintf+0x44a>
    2066:	bf35                	j	1fa2 <_vsnprintf+0x398>
    2068:	6785                	lui	a5,0x1
    206a:	80078793          	addi	a5,a5,-2048 # 800 <_nettle_md5_compress+0x220>
    206e:	0fd57513          	andi	a0,a0,253
    2072:	04500713          	li	a4,69
    2076:	8edd                	or	a3,a3,a5
    2078:	fae513e3          	bne	a0,a4,201e <_vsnprintf+0x414>
    207c:	0206e693          	ori	a3,a3,32
    2080:	bf79                	j	201e <_vsnprintf+0x414>
    2082:	00264503          	lbu	a0,2(a2)
    2086:	0c06e693          	ori	a3,a3,192
    208a:	00360b93          	addi	s7,a2,3
    208e:	b1b1                	j	1cda <_vsnprintf+0xd0>
    2090:	41ac87b3          	sub	a5,s9,s10
    2094:	d43e                	sw	a5,40(sp)
    2096:	b5c9                	j	1f58 <_vsnprintf+0x34e>
    2098:	ff36f593          	andi	a1,a3,-13
    209c:	4006f793          	andi	a5,a3,1024
    20a0:	0205e593          	ori	a1,a1,32
    20a4:	4841                	li	a6,16
    20a6:	10078863          	beqz	a5,21b6 <_vsnprintf+0x5ac>
    20aa:	99f9                	andi	a1,a1,-2
    20ac:	06900793          	li	a5,105
    20b0:	2005f693          	andi	a3,a1,512
    20b4:	d6f50ee3          	beq	a0,a5,1e30 <_vsnprintf+0x226>
    20b8:	06400793          	li	a5,100
    20bc:	d6f50ae3          	beq	a0,a5,1e30 <_vsnprintf+0x226>
    20c0:	12069763          	bnez	a3,21ee <_vsnprintf+0x5e4>
    20c4:	1005f793          	andi	a5,a1,256
    20c8:	00440c93          	addi	s9,s0,4
    20cc:	10079f63          	bnez	a5,21ea <_vsnprintf+0x5e0>
    20d0:	0405f793          	andi	a5,a1,64
    20d4:	ebe5                	bnez	a5,21c4 <_vsnprintf+0x5ba>
    20d6:	0805f793          	andi	a5,a1,128
    20da:	10078863          	beqz	a5,21ea <_vsnprintf+0x5e0>
    20de:	00045703          	lhu	a4,0(s0)
    20e2:	866e                	mv	a2,s11
    20e4:	c22e                	sw	a1,4(sp)
    20e6:	c062                	sw	s8,0(sp)
    20e8:	88da                	mv	a7,s6
    20ea:	4781                	li	a5,0
    20ec:	b341                	j	1e6c <_vsnprintf+0x262>
    20ee:	8cb2                	mv	s9,a2
    20f0:	b57d                	j	1f9e <_vsnprintf+0x394>
    20f2:	4785                	li	a5,1
    20f4:	1587f563          	bgeu	a5,s8,223e <_vsnprintf+0x634>
    20f8:	fffd8c93          	addi	s9,s11,-1
    20fc:	9ce2                	add	s9,s9,s8
    20fe:	a011                	j	2102 <_vsnprintf+0x4f8>
    2100:	0d05                	addi	s10,s10,1
    2102:	866e                	mv	a2,s11
    2104:	86a6                	mv	a3,s1
    2106:	85ca                	mv	a1,s2
    2108:	02000513          	li	a0,32
    210c:	8dea                	mv	s11,s10
    210e:	9982                	jalr	s3
    2110:	ff9d18e3          	bne	s10,s9,2100 <_vsnprintf+0x4f6>
    2114:	001d0d93          	addi	s11,s10,1
    2118:	00044503          	lbu	a0,0(s0)
    211c:	86a6                	mv	a3,s1
    211e:	8666                	mv	a2,s9
    2120:	85ca                	mv	a1,s2
    2122:	9982                	jalr	s3
    2124:	845a                	mv	s0,s6
    2126:	be3d                	j	1c64 <_vsnprintf+0x5a>
    2128:	5722                	lw	a4,40(sp)
    212a:	00170793          	addi	a5,a4,1
    212e:	11877463          	bgeu	a4,s8,2236 <_vsnprintf+0x62c>
    2132:	01bc07b3          	add	a5,s8,s11
    2136:	40e78cb3          	sub	s9,a5,a4
    213a:	866e                	mv	a2,s11
    213c:	86a6                	mv	a3,s1
    213e:	0d85                	addi	s11,s11,1
    2140:	85ca                	mv	a1,s2
    2142:	02000513          	li	a0,32
    2146:	9982                	jalr	s3
    2148:	ffbc99e3          	bne	s9,s11,213a <_vsnprintf+0x530>
    214c:	000d4503          	lbu	a0,0(s10)
    2150:	001c0793          	addi	a5,s8,1
    2154:	d43e                	sw	a5,40(sp)
    2156:	e0051fe3          	bnez	a0,1f74 <_vsnprintf+0x36a>
    215a:	8cee                	mv	s9,s11
    215c:	b599                	j	1fa2 <_vsnprintf+0x398>
    215e:	041d                	addi	s0,s0,7
    2160:	9861                	andi	s0,s0,-8
    2162:	00442f03          	lw	t5,4(s0)
    2166:	401c                	lw	a5,0(s0)
    2168:	88c2                	mv	a7,a6
    216a:	41ff5693          	srai	a3,t5,0x1f
    216e:	8fb5                	xor	a5,a5,a3
    2170:	40d78733          	sub	a4,a5,a3
    2174:	01e6c533          	xor	a0,a3,t5
    2178:	00e7b7b3          	sltu	a5,a5,a4
    217c:	40d506b3          	sub	a3,a0,a3
    2180:	866e                	mv	a2,s11
    2182:	c62e                	sw	a1,12(sp)
    2184:	c462                	sw	s8,8(sp)
    2186:	c25a                	sw	s6,4(sp)
    2188:	c002                	sw	zero,0(sp)
    218a:	01ff5813          	srli	a6,t5,0x1f
    218e:	40f687b3          	sub	a5,a3,a5
    2192:	86a6                	mv	a3,s1
    2194:	85ca                	mv	a1,s2
    2196:	854e                	mv	a0,s3
    2198:	980ff0ef          	jal	ra,1318 <_ntoa_long_long>
    219c:	0421                	addi	s0,s0,8
    219e:	8daa                	mv	s11,a0
    21a0:	b4d1                	j	1c64 <_vsnprintf+0x5a>
    21a2:	4006f793          	andi	a5,a3,1024
    21a6:	4841                	li	a6,16
    21a8:	ff36f593          	andi	a1,a3,-13
    21ac:	f00780e3          	beqz	a5,20ac <_vsnprintf+0x4a2>
    21b0:	bded                	j	20aa <_vsnprintf+0x4a0>
    21b2:	4829                	li	a6,10
    21b4:	bddd                	j	20aa <_vsnprintf+0x4a0>
    21b6:	2006f693          	andi	a3,a3,512
    21ba:	b719                	j	20c0 <_vsnprintf+0x4b6>
    21bc:	00044783          	lbu	a5,0(s0)
    21c0:	873e                	mv	a4,a5
    21c2:	b145                	j	1e62 <_vsnprintf+0x258>
    21c4:	00044703          	lbu	a4,0(s0)
    21c8:	bf29                	j	20e2 <_vsnprintf+0x4d8>
    21ca:	8dea                	mv	s11,s10
    21cc:	845a                	mv	s0,s6
    21ce:	bc59                	j	1c64 <_vsnprintf+0x5a>
    21d0:	4821                	li	a6,8
    21d2:	85b6                	mv	a1,a3
    21d4:	06400713          	li	a4,100
    21d8:	4005f793          	andi	a5,a1,1024
    21dc:	06e51463          	bne	a0,a4,2244 <_vsnprintf+0x63a>
    21e0:	2005f693          	andi	a3,a1,512
    21e4:	c40786e3          	beqz	a5,1e30 <_vsnprintf+0x226>
    21e8:	b5c9                	j	20aa <_vsnprintf+0x4a0>
    21ea:	4018                	lw	a4,0(s0)
    21ec:	bddd                	j	20e2 <_vsnprintf+0x4d8>
    21ee:	041d                	addi	s0,s0,7
    21f0:	9861                	andi	s0,s0,-8
    21f2:	4018                	lw	a4,0(s0)
    21f4:	405c                	lw	a5,4(s0)
    21f6:	88c2                	mv	a7,a6
    21f8:	866e                	mv	a2,s11
    21fa:	c62e                	sw	a1,12(sp)
    21fc:	c462                	sw	s8,8(sp)
    21fe:	c25a                	sw	s6,4(sp)
    2200:	c002                	sw	zero,0(sp)
    2202:	4801                	li	a6,0
    2204:	b779                	j	2192 <_vsnprintf+0x588>
    2206:	401c                	lw	a5,0(s0)
    2208:	866e                	mv	a2,s11
    220a:	c22e                	sw	a1,4(sp)
    220c:	41f7d713          	srai	a4,a5,0x1f
    2210:	00f746b3          	xor	a3,a4,a5
    2214:	c062                	sw	s8,0(sp)
    2216:	88da                	mv	a7,s6
    2218:	83fd                	srli	a5,a5,0x1f
    221a:	40e68733          	sub	a4,a3,a4
    221e:	b1b9                	j	1e6c <_vsnprintf+0x262>
    2220:	4809                	li	a6,2
    2222:	bf45                	j	21d2 <_vsnprintf+0x5c8>
    2224:	401c                	lw	a5,0(s0)
    2226:	41f7d693          	srai	a3,a5,0x1f
    222a:	00f6c733          	xor	a4,a3,a5
    222e:	8f15                	sub	a4,a4,a3
    2230:	b90d                	j	1e62 <_vsnprintf+0x258>
    2232:	d402                	sw	zero,40(sp)
    2234:	b315                	j	1f58 <_vsnprintf+0x34e>
    2236:	d43e                	sw	a5,40(sp)
    2238:	d2051ee3          	bnez	a0,1f74 <_vsnprintf+0x36a>
    223c:	bf39                	j	215a <_vsnprintf+0x550>
    223e:	8cee                	mv	s9,s11
    2240:	8dea                	mv	s11,s10
    2242:	bdd9                	j	2118 <_vsnprintf+0x50e>
    2244:	86ae                	mv	a3,a1
    2246:	b78d                	j	21a8 <_vsnprintf+0x59e>
    2248:	4829                	li	a6,10
    224a:	b769                	j	21d4 <_vsnprintf+0x5ca>

0000224c <puts>:
    224c:	1141                	addi	sp,sp,-16
    224e:	c422                	sw	s0,8(sp)
    2250:	c606                	sw	ra,12(sp)
    2252:	842a                	mv	s0,a0
    2254:	00054503          	lbu	a0,0(a0)
    2258:	c901                	beqz	a0,2268 <puts+0x1c>
    225a:	55fd                	li	a1,-1
    225c:	0405                	addi	s0,s0,1
    225e:	b72fe0ef          	jal	ra,5d0 <fputc>
    2262:	00044503          	lbu	a0,0(s0)
    2266:	f975                	bnez	a0,225a <puts+0xe>
    2268:	55fd                	li	a1,-1
    226a:	4529                	li	a0,10
    226c:	b64fe0ef          	jal	ra,5d0 <fputc>
    2270:	40b2                	lw	ra,12(sp)
    2272:	4422                	lw	s0,8(sp)
    2274:	4501                	li	a0,0
    2276:	0141                	addi	sp,sp,16
    2278:	8082                	ret

0000227a <_putchar>:
    227a:	55fd                	li	a1,-1
    227c:	b54fe06f          	j	5d0 <fputc>

00002280 <putchar>:
    2280:	1141                	addi	sp,sp,-16
    2282:	55fd                	li	a1,-1
    2284:	0ff57513          	andi	a0,a0,255
    2288:	c606                	sw	ra,12(sp)
    228a:	b46fe0ef          	jal	ra,5d0 <fputc>
    228e:	40b2                	lw	ra,12(sp)
    2290:	4501                	li	a0,0
    2292:	0141                	addi	sp,sp,16
    2294:	8082                	ret

00002296 <printf>:
    2296:	7139                	addi	sp,sp,-64
    2298:	02410313          	addi	t1,sp,36
    229c:	d636                	sw	a3,44(sp)
    229e:	86aa                	mv	a3,a0
    22a0:	6509                	lui	a0,0x2
    22a2:	d22e                	sw	a1,36(sp)
    22a4:	d432                	sw	a2,40(sp)
    22a6:	d83a                	sw	a4,48(sp)
    22a8:	002c                	addi	a1,sp,8
    22aa:	871a                	mv	a4,t1
    22ac:	567d                	li	a2,-1
    22ae:	bf650513          	addi	a0,a0,-1034 # 1bf6 <_out_char>
    22b2:	ce06                	sw	ra,28(sp)
    22b4:	da3e                	sw	a5,52(sp)
    22b6:	dc42                	sw	a6,56(sp)
    22b8:	de46                	sw	a7,60(sp)
    22ba:	c61a                	sw	t1,12(sp)
    22bc:	32b9                	jal	1c0a <_vsnprintf>
    22be:	40f2                	lw	ra,28(sp)
    22c0:	6121                	addi	sp,sp,64
    22c2:	8082                	ret

000022c4 <sprintf>:
    22c4:	7139                	addi	sp,sp,-64
    22c6:	02810313          	addi	t1,sp,40
    22ca:	d636                	sw	a3,44(sp)
    22cc:	86ae                	mv	a3,a1
    22ce:	85aa                	mv	a1,a0
    22d0:	6505                	lui	a0,0x1
    22d2:	d432                	sw	a2,40(sp)
    22d4:	d83a                	sw	a4,48(sp)
    22d6:	567d                	li	a2,-1
    22d8:	871a                	mv	a4,t1
    22da:	fb850513          	addi	a0,a0,-72 # fb8 <_out_buffer>
    22de:	ce06                	sw	ra,28(sp)
    22e0:	da3e                	sw	a5,52(sp)
    22e2:	dc42                	sw	a6,56(sp)
    22e4:	de46                	sw	a7,60(sp)
    22e6:	c61a                	sw	t1,12(sp)
    22e8:	320d                	jal	1c0a <_vsnprintf>
    22ea:	40f2                	lw	ra,28(sp)
    22ec:	6121                	addi	sp,sp,64
    22ee:	8082                	ret

000022f0 <snprintf>:
    22f0:	7139                	addi	sp,sp,-64
    22f2:	02c10313          	addi	t1,sp,44
    22f6:	d636                	sw	a3,44(sp)
    22f8:	86b2                	mv	a3,a2
    22fa:	862e                	mv	a2,a1
    22fc:	85aa                	mv	a1,a0
    22fe:	6505                	lui	a0,0x1
    2300:	d83a                	sw	a4,48(sp)
    2302:	fb850513          	addi	a0,a0,-72 # fb8 <_out_buffer>
    2306:	871a                	mv	a4,t1
    2308:	ce06                	sw	ra,28(sp)
    230a:	da3e                	sw	a5,52(sp)
    230c:	dc42                	sw	a6,56(sp)
    230e:	de46                	sw	a7,60(sp)
    2310:	c61a                	sw	t1,12(sp)
    2312:	38e5                	jal	1c0a <_vsnprintf>
    2314:	40f2                	lw	ra,28(sp)
    2316:	6121                	addi	sp,sp,64
    2318:	8082                	ret

0000231a <vprintf>:
    231a:	1101                	addi	sp,sp,-32
    231c:	86aa                	mv	a3,a0
    231e:	6509                	lui	a0,0x2
    2320:	872e                	mv	a4,a1
    2322:	567d                	li	a2,-1
    2324:	006c                	addi	a1,sp,12
    2326:	bf650513          	addi	a0,a0,-1034 # 1bf6 <_out_char>
    232a:	ce06                	sw	ra,28(sp)
    232c:	38f9                	jal	1c0a <_vsnprintf>
    232e:	40f2                	lw	ra,28(sp)
    2330:	6105                	addi	sp,sp,32
    2332:	8082                	ret

00002334 <vsnprintf>:
    2334:	8736                	mv	a4,a3
    2336:	86b2                	mv	a3,a2
    2338:	862e                	mv	a2,a1
    233a:	85aa                	mv	a1,a0
    233c:	6505                	lui	a0,0x1
    233e:	fb850513          	addi	a0,a0,-72 # fb8 <_out_buffer>
    2342:	b0e1                	j	1c0a <_vsnprintf>

00002344 <fctprintf>:
    2344:	7139                	addi	sp,sp,-64
    2346:	02c10313          	addi	t1,sp,44
    234a:	8eaa                	mv	t4,a0
    234c:	6509                	lui	a0,0x2
    234e:	8e2e                	mv	t3,a1
    2350:	d636                	sw	a3,44(sp)
    2352:	d83a                	sw	a4,48(sp)
    2354:	86b2                	mv	a3,a2
    2356:	002c                	addi	a1,sp,8
    2358:	871a                	mv	a4,t1
    235a:	567d                	li	a2,-1
    235c:	c0050513          	addi	a0,a0,-1024 # 1c00 <_out_fct>
    2360:	ce06                	sw	ra,28(sp)
    2362:	da3e                	sw	a5,52(sp)
    2364:	dc42                	sw	a6,56(sp)
    2366:	de46                	sw	a7,60(sp)
    2368:	c21a                	sw	t1,4(sp)
    236a:	c476                	sw	t4,8(sp)
    236c:	c672                	sw	t3,12(sp)
    236e:	3871                	jal	1c0a <_vsnprintf>
    2370:	40f2                	lw	ra,28(sp)
    2372:	6121                	addi	sp,sp,64
    2374:	8082                	ret

00002376 <__thead_vprintfsprintf>:
    2376:	4501                	li	a0,0
    2378:	8082                	ret

0000237a <__thead_vprintfprintf>:
    237a:	4501                	li	a0,0
    237c:	8082                	ret

0000237e <stdout>:
    237e:	4501                	li	a0,0
    2380:	8082                	ret

00002382 <ck_uart_set_baudrate>:
    2382:	05f5e7b7          	lui	a5,0x5f5e
    2386:	10078793          	addi	a5,a5,256 # 5f5e100 <_global_impure_ptr+0x5f580e8>
    238a:	02b7d7b3          	divu	a5,a5,a1
    238e:	4158                	lw	a4,4(a0)
    2390:	c50c                	sw	a1,8(a0)
    2392:	00c74683          	lbu	a3,12(a4)
    2396:	f806e693          	ori	a3,a3,-128
    239a:	0ff6f693          	andi	a3,a3,255
    239e:	00d70623          	sb	a3,12(a4)
    23a2:	0047d693          	srli	a3,a5,0x4
    23a6:	0ff6f693          	andi	a3,a3,255
    23aa:	83b1                	srli	a5,a5,0xc
    23ac:	00d70023          	sb	a3,0(a4)
    23b0:	0ff7f793          	andi	a5,a5,255
    23b4:	00f70223          	sb	a5,4(a4)
    23b8:	00c74783          	lbu	a5,12(a4)
    23bc:	07f7f793          	andi	a5,a5,127
    23c0:	00f70623          	sb	a5,12(a4)
    23c4:	8082                	ret

000023c6 <ck_uart_set_parity>:
    23c6:	c54c                	sw	a1,12(a0)
    23c8:	4785                	li	a5,1
    23ca:	04f58363          	beq	a1,a5,2410 <ck_uart_set_parity+0x4a>
    23ce:	4789                	li	a5,2
    23d0:	00f58d63          	beq	a1,a5,23ea <ck_uart_set_parity+0x24>
    23d4:	00058363          	beqz	a1,23da <ck_uart_set_parity+0x14>
    23d8:	8082                	ret
    23da:	4158                	lw	a4,4(a0)
    23dc:	00c74783          	lbu	a5,12(a4)
    23e0:	0f77f793          	andi	a5,a5,247
    23e4:	00f70623          	sb	a5,12(a4)
    23e8:	8082                	ret
    23ea:	4158                	lw	a4,4(a0)
    23ec:	00c74783          	lbu	a5,12(a4)
    23f0:	0ff7f793          	andi	a5,a5,255
    23f4:	0087e793          	ori	a5,a5,8
    23f8:	00f70623          	sb	a5,12(a4)
    23fc:	4158                	lw	a4,4(a0)
    23fe:	00c74783          	lbu	a5,12(a4)
    2402:	0ff7f793          	andi	a5,a5,255
    2406:	0107e793          	ori	a5,a5,16
    240a:	00f70623          	sb	a5,12(a4)
    240e:	8082                	ret
    2410:	4158                	lw	a4,4(a0)
    2412:	00c74783          	lbu	a5,12(a4)
    2416:	0ff7f793          	andi	a5,a5,255
    241a:	0087e793          	ori	a5,a5,8
    241e:	00f70623          	sb	a5,12(a4)
    2422:	4158                	lw	a4,4(a0)
    2424:	00c74783          	lbu	a5,12(a4)
    2428:	0ef7f793          	andi	a5,a5,239
    242c:	00f70623          	sb	a5,12(a4)
    2430:	8082                	ret

00002432 <ck_uart_set_wordsize>:
    2432:	c94c                	sw	a1,20(a0)
    2434:	4789                	li	a5,2
    2436:	04f58d63          	beq	a1,a5,2490 <ck_uart_set_wordsize+0x5e>
    243a:	02b7e563          	bltu	a5,a1,2464 <ck_uart_set_wordsize+0x32>
    243e:	04058163          	beqz	a1,2480 <ck_uart_set_wordsize+0x4e>
    2442:	4158                	lw	a4,4(a0)
    2444:	00c74783          	lbu	a5,12(a4)
    2448:	0fd7f793          	andi	a5,a5,253
    244c:	00f70623          	sb	a5,12(a4)
    2450:	4158                	lw	a4,4(a0)
    2452:	00c74783          	lbu	a5,12(a4)
    2456:	0ff7f793          	andi	a5,a5,255
    245a:	0017e793          	ori	a5,a5,1
    245e:	00f70623          	sb	a5,12(a4)
    2462:	8082                	ret
    2464:	478d                	li	a5,3
    2466:	00f59c63          	bne	a1,a5,247e <ck_uart_set_wordsize+0x4c>
    246a:	4158                	lw	a4,4(a0)
    246c:	00c74783          	lbu	a5,12(a4)
    2470:	0ff7f793          	andi	a5,a5,255
    2474:	0037e793          	ori	a5,a5,3
    2478:	00f70623          	sb	a5,12(a4)
    247c:	8082                	ret
    247e:	8082                	ret
    2480:	4158                	lw	a4,4(a0)
    2482:	00c74783          	lbu	a5,12(a4)
    2486:	0fc7f793          	andi	a5,a5,252
    248a:	00f70623          	sb	a5,12(a4)
    248e:	8082                	ret
    2490:	4158                	lw	a4,4(a0)
    2492:	00c74783          	lbu	a5,12(a4)
    2496:	0fe7f793          	andi	a5,a5,254
    249a:	00f70623          	sb	a5,12(a4)
    249e:	4158                	lw	a4,4(a0)
    24a0:	00c74783          	lbu	a5,12(a4)
    24a4:	0ff7f793          	andi	a5,a5,255
    24a8:	0027e793          	ori	a5,a5,2
    24ac:	00f70623          	sb	a5,12(a4)
    24b0:	8082                	ret

000024b2 <ck_uart_set_stopbit>:
    24b2:	c90c                	sw	a1,16(a0)
    24b4:	cd99                	beqz	a1,24d2 <ck_uart_set_stopbit+0x20>
    24b6:	4785                	li	a5,1
    24b8:	00f59c63          	bne	a1,a5,24d0 <ck_uart_set_stopbit+0x1e>
    24bc:	4158                	lw	a4,4(a0)
    24be:	00c74783          	lbu	a5,12(a4)
    24c2:	0ff7f793          	andi	a5,a5,255
    24c6:	0047e793          	ori	a5,a5,4
    24ca:	00f70623          	sb	a5,12(a4)
    24ce:	8082                	ret
    24d0:	8082                	ret
    24d2:	4158                	lw	a4,4(a0)
    24d4:	00c74783          	lbu	a5,12(a4)
    24d8:	0fb7f793          	andi	a5,a5,251
    24dc:	00f70623          	sb	a5,12(a4)
    24e0:	8082                	ret

000024e2 <ck_uart_set_rxmode>:
    24e2:	cd0c                	sw	a1,24(a0)
    24e4:	8082                	ret

000024e6 <ck_uart_set_txmode>:
    24e6:	cd4c                	sw	a1,28(a0)
    24e8:	8082                	ret

000024ea <ck_uart_open>:
    24ea:	e981                	bnez	a1,24fa <ck_uart_open+0x10>
    24ec:	400157b7          	lui	a5,0x40015
    24f0:	00052023          	sw	zero,0(a0)
    24f4:	c15c                	sw	a5,4(a0)
    24f6:	4501                	li	a0,0
    24f8:	8082                	ret
    24fa:	4505                	li	a0,1
    24fc:	8082                	ret

000024fe <ck_uart_init>:
    24fe:	4118                	lw	a4,0(a0)
    2500:	67c1                	lui	a5,0x10
    2502:	17fd                	addi	a5,a5,-1
    2504:	0af70163          	beq	a4,a5,25a6 <ck_uart_init+0xa8>
    2508:	4194                	lw	a3,0(a1)
    250a:	05f5e7b7          	lui	a5,0x5f5e
    250e:	10078793          	addi	a5,a5,256 # 5f5e100 <_global_impure_ptr+0x5f580e8>
    2512:	02d7d7b3          	divu	a5,a5,a3
    2516:	4158                	lw	a4,4(a0)
    2518:	1141                	addi	sp,sp,-16
    251a:	c606                	sw	ra,12(sp)
    251c:	c422                	sw	s0,8(sp)
    251e:	c226                	sw	s1,4(sp)
    2520:	c514                	sw	a3,8(a0)
    2522:	00c74683          	lbu	a3,12(a4)
    2526:	84ae                	mv	s1,a1
    2528:	842a                	mv	s0,a0
    252a:	f806e693          	ori	a3,a3,-128
    252e:	0ff6f693          	andi	a3,a3,255
    2532:	00d70623          	sb	a3,12(a4)
    2536:	0047d693          	srli	a3,a5,0x4
    253a:	0ff6f693          	andi	a3,a3,255
    253e:	83b1                	srli	a5,a5,0xc
    2540:	00d70023          	sb	a3,0(a4)
    2544:	0ff7f793          	andi	a5,a5,255
    2548:	00f70223          	sb	a5,4(a4)
    254c:	00c74783          	lbu	a5,12(a4)
    2550:	07f7f793          	andi	a5,a5,127
    2554:	00f70623          	sb	a5,12(a4)
    2558:	458c                	lw	a1,8(a1)
    255a:	35b5                	jal	23c6 <ck_uart_set_parity>
    255c:	44cc                	lw	a1,12(s1)
    255e:	8522                	mv	a0,s0
    2560:	3dc9                	jal	2432 <ck_uart_set_wordsize>
    2562:	40dc                	lw	a5,4(s1)
    2564:	c81c                	sw	a5,16(s0)
    2566:	cb85                	beqz	a5,2596 <ck_uart_init+0x98>
    2568:	4705                	li	a4,1
    256a:	00e78c63          	beq	a5,a4,2582 <ck_uart_init+0x84>
    256e:	4898                	lw	a4,16(s1)
    2570:	48dc                	lw	a5,20(s1)
    2572:	40b2                	lw	ra,12(sp)
    2574:	cc18                	sw	a4,24(s0)
    2576:	cc5c                	sw	a5,28(s0)
    2578:	4422                	lw	s0,8(sp)
    257a:	4492                	lw	s1,4(sp)
    257c:	4501                	li	a0,0
    257e:	0141                	addi	sp,sp,16
    2580:	8082                	ret
    2582:	4058                	lw	a4,4(s0)
    2584:	00c74783          	lbu	a5,12(a4)
    2588:	0ff7f793          	andi	a5,a5,255
    258c:	0047e793          	ori	a5,a5,4
    2590:	00f70623          	sb	a5,12(a4)
    2594:	bfe9                	j	256e <ck_uart_init+0x70>
    2596:	4058                	lw	a4,4(s0)
    2598:	00c74783          	lbu	a5,12(a4)
    259c:	0fb7f793          	andi	a5,a5,251
    25a0:	00f70623          	sb	a5,12(a4)
    25a4:	b7e9                	j	256e <ck_uart_init+0x70>
    25a6:	4505                	li	a0,1
    25a8:	8082                	ret

000025aa <ck_uart_close>:
    25aa:	67c1                	lui	a5,0x10
    25ac:	17fd                	addi	a5,a5,-1
    25ae:	00052c23          	sw	zero,24(a0)
    25b2:	00052e23          	sw	zero,28(a0)
    25b6:	c11c                	sw	a5,0(a0)
    25b8:	4501                	li	a0,0
    25ba:	8082                	ret

000025bc <ck_uart_putc>:
    25bc:	4d5c                	lw	a5,28(a0)
    25be:	cb99                	beqz	a5,25d4 <ck_uart_putc+0x18>
    25c0:	4158                	lw	a4,4(a0)
    25c2:	01474783          	lbu	a5,20(a4)
    25c6:	0207f793          	andi	a5,a5,32
    25ca:	dfe5                	beqz	a5,25c2 <ck_uart_putc+0x6>
    25cc:	00b70023          	sb	a1,0(a4)
    25d0:	4501                	li	a0,0
    25d2:	8082                	ret
    25d4:	4505                	li	a0,1
    25d6:	8082                	ret

000025d8 <ck_uart_status>:
    25d8:	4501                	li	a0,0
    25da:	8082                	ret

000025dc <vasprintf>:
    25dc:	1101                	addi	sp,sp,-32
    25de:	c05a                	sw	s6,0(sp)
    25e0:	8b2a                	mv	s6,a0
    25e2:	852e                	mv	a0,a1
    25e4:	ca26                	sw	s1,20(sp)
    25e6:	c64e                	sw	s3,12(sp)
    25e8:	c452                	sw	s4,8(sp)
    25ea:	c256                	sw	s5,4(sp)
    25ec:	ce06                	sw	ra,28(sp)
    25ee:	cc22                	sw	s0,24(sp)
    25f0:	c84a                	sw	s2,16(sp)
    25f2:	8a2e                	mv	s4,a1
    25f4:	8ab2                	mv	s5,a2
    25f6:	0b2030ef          	jal	ra,56a8 <strlen>
    25fa:	00150993          	addi	s3,a0,1
    25fe:	f009f993          	andi	s3,s3,-256
    2602:	10098493          	addi	s1,s3,256
    2606:	000b2023          	sw	zero,0(s6)
    260a:	20098993          	addi	s3,s3,512
    260e:	8526                	mv	a0,s1
    2610:	159020ef          	jal	ra,4f68 <malloc>
    2614:	85a6                	mv	a1,s1
    2616:	86d6                	mv	a3,s5
    2618:	8652                	mv	a2,s4
    261a:	892a                	mv	s2,a0
    261c:	cd29                	beqz	a0,2676 <vasprintf+0x9a>
    261e:	3b19                	jal	2334 <vsnprintf>
    2620:	842a                	mv	s0,a0
    2622:	14fd                	addi	s1,s1,-1
    2624:	854a                	mv	a0,s2
    2626:	00044d63          	bltz	s0,2640 <vasprintf+0x64>
    262a:	02946163          	bltu	s0,s1,264c <vasprintf+0x70>
    262e:	00140493          	addi	s1,s0,1
    2632:	143020ef          	jal	ra,4f74 <free>
    2636:	01346763          	bltu	s0,s3,2644 <vasprintf+0x68>
    263a:	10098993          	addi	s3,s3,256
    263e:	bfc1                	j	260e <vasprintf+0x32>
    2640:	135020ef          	jal	ra,4f74 <free>
    2644:	84ce                	mv	s1,s3
    2646:	10098993          	addi	s3,s3,256
    264a:	b7d1                	j	260e <vasprintf+0x32>
    264c:	ec01                	bnez	s0,2664 <vasprintf+0x88>
    264e:	40f2                	lw	ra,28(sp)
    2650:	8522                	mv	a0,s0
    2652:	4462                	lw	s0,24(sp)
    2654:	44d2                	lw	s1,20(sp)
    2656:	4942                	lw	s2,16(sp)
    2658:	49b2                	lw	s3,12(sp)
    265a:	4a22                	lw	s4,8(sp)
    265c:	4a92                	lw	s5,4(sp)
    265e:	4b02                	lw	s6,0(sp)
    2660:	6105                	addi	sp,sp,32
    2662:	8082                	ret
    2664:	000030ef          	jal	ra,5664 <strdup>
    2668:	00ab2023          	sw	a0,0(s6)
    266c:	c519                	beqz	a0,267a <vasprintf+0x9e>
    266e:	854a                	mv	a0,s2
    2670:	105020ef          	jal	ra,4f74 <free>
    2674:	bfe9                	j	264e <vasprintf+0x72>
    2676:	5451                	li	s0,-12
    2678:	bfd9                	j	264e <vasprintf+0x72>
    267a:	012b2023          	sw	s2,0(s6)
    267e:	bfc1                	j	264e <vasprintf+0x72>

00002680 <asprintf>:
    2680:	7139                	addi	sp,sp,-64
    2682:	02810313          	addi	t1,sp,40
    2686:	d432                	sw	a2,40(sp)
    2688:	861a                	mv	a2,t1
    268a:	ce06                	sw	ra,28(sp)
    268c:	d636                	sw	a3,44(sp)
    268e:	d83a                	sw	a4,48(sp)
    2690:	da3e                	sw	a5,52(sp)
    2692:	dc42                	sw	a6,56(sp)
    2694:	de46                	sw	a7,60(sp)
    2696:	c61a                	sw	t1,12(sp)
    2698:	3791                	jal	25dc <vasprintf>
    269a:	40f2                	lw	ra,28(sp)
    269c:	6121                	addi	sp,sp,64
    269e:	8082                	ret

000026a0 <get_vtimer>:
    26a0:	1141                	addi	sp,sp,-16
    26a2:	c01027f3          	rdtime	a5
    26a6:	c63e                	sw	a5,12(sp)
    26a8:	4532                	lw	a0,12(sp)
    26aa:	0141                	addi	sp,sp,16
    26ac:	8082                	ret

000026ae <sim_end>:
    26ae:	600107b7          	lui	a5,0x60010
    26b2:	7741                	lui	a4,0xffff0
    26b4:	fee7ac23          	sw	a4,-8(a5) # 6000fff8 <__kernel_stack+0x3ff50000>
    26b8:	8082                	ret

000026ba <__udivdi3>:
    26ba:	88aa                	mv	a7,a0
    26bc:	87ae                	mv	a5,a1
    26be:	8832                	mv	a6,a2
    26c0:	8536                	mv	a0,a3
    26c2:	8346                	mv	t1,a7
    26c4:	20069663          	bnez	a3,28d0 <__udivdi3+0x216>
    26c8:	00003697          	auipc	a3,0x3
    26cc:	7b868693          	addi	a3,a3,1976 # 5e80 <__clz_tab>
    26d0:	0ac5ff63          	bgeu	a1,a2,278e <__udivdi3+0xd4>
    26d4:	6741                	lui	a4,0x10
    26d6:	0ae67563          	bgeu	a2,a4,2780 <__udivdi3+0xc6>
    26da:	0ff00713          	li	a4,255
    26de:	00c73733          	sltu	a4,a4,a2
    26e2:	070e                	slli	a4,a4,0x3
    26e4:	00e65533          	srl	a0,a2,a4
    26e8:	96aa                	add	a3,a3,a0
    26ea:	0006c683          	lbu	a3,0(a3)
    26ee:	02000513          	li	a0,32
    26f2:	9736                	add	a4,a4,a3
    26f4:	40e506b3          	sub	a3,a0,a4
    26f8:	00e50b63          	beq	a0,a4,270e <__udivdi3+0x54>
    26fc:	00d795b3          	sll	a1,a5,a3
    2700:	00e8d733          	srl	a4,a7,a4
    2704:	00d61833          	sll	a6,a2,a3
    2708:	8dd9                	or	a1,a1,a4
    270a:	00d89333          	sll	t1,a7,a3
    270e:	01085893          	srli	a7,a6,0x10
    2712:	0315d6b3          	divu	a3,a1,a7
    2716:	01081613          	slli	a2,a6,0x10
    271a:	8241                	srli	a2,a2,0x10
    271c:	01035793          	srli	a5,t1,0x10
    2720:	0315f733          	remu	a4,a1,a7
    2724:	8536                	mv	a0,a3
    2726:	02d605b3          	mul	a1,a2,a3
    272a:	0742                	slli	a4,a4,0x10
    272c:	8fd9                	or	a5,a5,a4
    272e:	00b7fc63          	bgeu	a5,a1,2746 <__udivdi3+0x8c>
    2732:	97c2                	add	a5,a5,a6
    2734:	fff68513          	addi	a0,a3,-1
    2738:	0107e763          	bltu	a5,a6,2746 <__udivdi3+0x8c>
    273c:	00b7f563          	bgeu	a5,a1,2746 <__udivdi3+0x8c>
    2740:	ffe68513          	addi	a0,a3,-2
    2744:	97c2                	add	a5,a5,a6
    2746:	8f8d                	sub	a5,a5,a1
    2748:	0317f733          	remu	a4,a5,a7
    274c:	0342                	slli	t1,t1,0x10
    274e:	01035313          	srli	t1,t1,0x10
    2752:	0317d7b3          	divu	a5,a5,a7
    2756:	0742                	slli	a4,a4,0x10
    2758:	00676333          	or	t1,a4,t1
    275c:	02f606b3          	mul	a3,a2,a5
    2760:	863e                	mv	a2,a5
    2762:	00d37b63          	bgeu	t1,a3,2778 <__udivdi3+0xbe>
    2766:	9342                	add	t1,t1,a6
    2768:	fff78613          	addi	a2,a5,-1
    276c:	01036663          	bltu	t1,a6,2778 <__udivdi3+0xbe>
    2770:	00d37463          	bgeu	t1,a3,2778 <__udivdi3+0xbe>
    2774:	ffe78613          	addi	a2,a5,-2
    2778:	0542                	slli	a0,a0,0x10
    277a:	8d51                	or	a0,a0,a2
    277c:	4581                	li	a1,0
    277e:	a85d                	j	2834 <__udivdi3+0x17a>
    2780:	01000537          	lui	a0,0x1000
    2784:	4741                	li	a4,16
    2786:	f4a66fe3          	bltu	a2,a0,26e4 <__udivdi3+0x2a>
    278a:	4761                	li	a4,24
    278c:	bfa1                	j	26e4 <__udivdi3+0x2a>
    278e:	e601                	bnez	a2,2796 <__udivdi3+0xdc>
    2790:	4705                	li	a4,1
    2792:	02c75833          	divu	a6,a4,a2
    2796:	6741                	lui	a4,0x10
    2798:	08e87f63          	bgeu	a6,a4,2836 <__udivdi3+0x17c>
    279c:	0ff00713          	li	a4,255
    27a0:	01077363          	bgeu	a4,a6,27a6 <__udivdi3+0xec>
    27a4:	4521                	li	a0,8
    27a6:	00a85733          	srl	a4,a6,a0
    27aa:	96ba                	add	a3,a3,a4
    27ac:	0006c703          	lbu	a4,0(a3)
    27b0:	02000613          	li	a2,32
    27b4:	972a                	add	a4,a4,a0
    27b6:	40e606b3          	sub	a3,a2,a4
    27ba:	08e61563          	bne	a2,a4,2844 <__udivdi3+0x18a>
    27be:	410787b3          	sub	a5,a5,a6
    27c2:	4585                	li	a1,1
    27c4:	01085893          	srli	a7,a6,0x10
    27c8:	01081613          	slli	a2,a6,0x10
    27cc:	8241                	srli	a2,a2,0x10
    27ce:	01035713          	srli	a4,t1,0x10
    27d2:	0317f6b3          	remu	a3,a5,a7
    27d6:	0317d7b3          	divu	a5,a5,a7
    27da:	06c2                	slli	a3,a3,0x10
    27dc:	8f55                	or	a4,a4,a3
    27de:	02f60e33          	mul	t3,a2,a5
    27e2:	853e                	mv	a0,a5
    27e4:	01c77c63          	bgeu	a4,t3,27fc <__udivdi3+0x142>
    27e8:	9742                	add	a4,a4,a6
    27ea:	fff78513          	addi	a0,a5,-1
    27ee:	01076763          	bltu	a4,a6,27fc <__udivdi3+0x142>
    27f2:	01c77563          	bgeu	a4,t3,27fc <__udivdi3+0x142>
    27f6:	ffe78513          	addi	a0,a5,-2
    27fa:	9742                	add	a4,a4,a6
    27fc:	41c70733          	sub	a4,a4,t3
    2800:	031777b3          	remu	a5,a4,a7
    2804:	0342                	slli	t1,t1,0x10
    2806:	01035313          	srli	t1,t1,0x10
    280a:	03175733          	divu	a4,a4,a7
    280e:	07c2                	slli	a5,a5,0x10
    2810:	0067e333          	or	t1,a5,t1
    2814:	02e606b3          	mul	a3,a2,a4
    2818:	863a                	mv	a2,a4
    281a:	00d37b63          	bgeu	t1,a3,2830 <__udivdi3+0x176>
    281e:	9342                	add	t1,t1,a6
    2820:	fff70613          	addi	a2,a4,-1 # ffff <_global_impure_ptr+0x9fe7>
    2824:	01036663          	bltu	t1,a6,2830 <__udivdi3+0x176>
    2828:	00d37463          	bgeu	t1,a3,2830 <__udivdi3+0x176>
    282c:	ffe70613          	addi	a2,a4,-2
    2830:	0542                	slli	a0,a0,0x10
    2832:	8d51                	or	a0,a0,a2
    2834:	8082                	ret
    2836:	01000737          	lui	a4,0x1000
    283a:	4541                	li	a0,16
    283c:	f6e865e3          	bltu	a6,a4,27a6 <__udivdi3+0xec>
    2840:	4561                	li	a0,24
    2842:	b795                	j	27a6 <__udivdi3+0xec>
    2844:	00d81833          	sll	a6,a6,a3
    2848:	00e7d533          	srl	a0,a5,a4
    284c:	00d89333          	sll	t1,a7,a3
    2850:	00d797b3          	sll	a5,a5,a3
    2854:	00e8d733          	srl	a4,a7,a4
    2858:	01085893          	srli	a7,a6,0x10
    285c:	00f76633          	or	a2,a4,a5
    2860:	03157733          	remu	a4,a0,a7
    2864:	01081793          	slli	a5,a6,0x10
    2868:	83c1                	srli	a5,a5,0x10
    286a:	01065593          	srli	a1,a2,0x10
    286e:	03155533          	divu	a0,a0,a7
    2872:	0742                	slli	a4,a4,0x10
    2874:	8f4d                	or	a4,a4,a1
    2876:	02a786b3          	mul	a3,a5,a0
    287a:	85aa                	mv	a1,a0
    287c:	00d77c63          	bgeu	a4,a3,2894 <__udivdi3+0x1da>
    2880:	9742                	add	a4,a4,a6
    2882:	fff50593          	addi	a1,a0,-1 # ffffff <_global_impure_ptr+0xff9fe7>
    2886:	01076763          	bltu	a4,a6,2894 <__udivdi3+0x1da>
    288a:	00d77563          	bgeu	a4,a3,2894 <__udivdi3+0x1da>
    288e:	ffe50593          	addi	a1,a0,-2
    2892:	9742                	add	a4,a4,a6
    2894:	40d706b3          	sub	a3,a4,a3
    2898:	0316f733          	remu	a4,a3,a7
    289c:	0642                	slli	a2,a2,0x10
    289e:	8241                	srli	a2,a2,0x10
    28a0:	0316d6b3          	divu	a3,a3,a7
    28a4:	0742                	slli	a4,a4,0x10
    28a6:	02d78533          	mul	a0,a5,a3
    28aa:	00c767b3          	or	a5,a4,a2
    28ae:	8736                	mv	a4,a3
    28b0:	00a7fc63          	bgeu	a5,a0,28c8 <__udivdi3+0x20e>
    28b4:	97c2                	add	a5,a5,a6
    28b6:	fff68713          	addi	a4,a3,-1
    28ba:	0107e763          	bltu	a5,a6,28c8 <__udivdi3+0x20e>
    28be:	00a7f563          	bgeu	a5,a0,28c8 <__udivdi3+0x20e>
    28c2:	ffe68713          	addi	a4,a3,-2
    28c6:	97c2                	add	a5,a5,a6
    28c8:	05c2                	slli	a1,a1,0x10
    28ca:	8f89                	sub	a5,a5,a0
    28cc:	8dd9                	or	a1,a1,a4
    28ce:	bddd                	j	27c4 <__udivdi3+0x10a>
    28d0:	14d5e263          	bltu	a1,a3,2a14 <__udivdi3+0x35a>
    28d4:	6741                	lui	a4,0x10
    28d6:	02e6ff63          	bgeu	a3,a4,2914 <__udivdi3+0x25a>
    28da:	0ff00713          	li	a4,255
    28de:	00d735b3          	sltu	a1,a4,a3
    28e2:	058e                	slli	a1,a1,0x3
    28e4:	00b6d533          	srl	a0,a3,a1
    28e8:	00003717          	auipc	a4,0x3
    28ec:	59870713          	addi	a4,a4,1432 # 5e80 <__clz_tab>
    28f0:	972a                	add	a4,a4,a0
    28f2:	00074703          	lbu	a4,0(a4)
    28f6:	02000513          	li	a0,32
    28fa:	972e                	add	a4,a4,a1
    28fc:	40e505b3          	sub	a1,a0,a4
    2900:	02e51163          	bne	a0,a4,2922 <__udivdi3+0x268>
    2904:	4505                	li	a0,1
    2906:	f2f6e7e3          	bltu	a3,a5,2834 <__udivdi3+0x17a>
    290a:	00c8b533          	sltu	a0,a7,a2
    290e:	00154513          	xori	a0,a0,1
    2912:	b70d                	j	2834 <__udivdi3+0x17a>
    2914:	01000737          	lui	a4,0x1000
    2918:	45c1                	li	a1,16
    291a:	fce6e5e3          	bltu	a3,a4,28e4 <__udivdi3+0x22a>
    291e:	45e1                	li	a1,24
    2920:	b7d1                	j	28e4 <__udivdi3+0x22a>
    2922:	00e65833          	srl	a6,a2,a4
    2926:	00b696b3          	sll	a3,a3,a1
    292a:	00d86833          	or	a6,a6,a3
    292e:	00e7d333          	srl	t1,a5,a4
    2932:	01085e93          	srli	t4,a6,0x10
    2936:	03d376b3          	remu	a3,t1,t4
    293a:	00b797b3          	sll	a5,a5,a1
    293e:	00e8d733          	srl	a4,a7,a4
    2942:	00b61e33          	sll	t3,a2,a1
    2946:	00f76633          	or	a2,a4,a5
    294a:	01081793          	slli	a5,a6,0x10
    294e:	83c1                	srli	a5,a5,0x10
    2950:	01065713          	srli	a4,a2,0x10
    2954:	03d35333          	divu	t1,t1,t4
    2958:	06c2                	slli	a3,a3,0x10
    295a:	8f55                	or	a4,a4,a3
    295c:	02678f33          	mul	t5,a5,t1
    2960:	851a                	mv	a0,t1
    2962:	01e77c63          	bgeu	a4,t5,297a <__udivdi3+0x2c0>
    2966:	9742                	add	a4,a4,a6
    2968:	fff30513          	addi	a0,t1,-1
    296c:	01076763          	bltu	a4,a6,297a <__udivdi3+0x2c0>
    2970:	01e77563          	bgeu	a4,t5,297a <__udivdi3+0x2c0>
    2974:	ffe30513          	addi	a0,t1,-2
    2978:	9742                	add	a4,a4,a6
    297a:	41e70733          	sub	a4,a4,t5
    297e:	03d776b3          	remu	a3,a4,t4
    2982:	03d75733          	divu	a4,a4,t4
    2986:	06c2                	slli	a3,a3,0x10
    2988:	02e78333          	mul	t1,a5,a4
    298c:	01061793          	slli	a5,a2,0x10
    2990:	83c1                	srli	a5,a5,0x10
    2992:	8fd5                	or	a5,a5,a3
    2994:	863a                	mv	a2,a4
    2996:	0067fc63          	bgeu	a5,t1,29ae <__udivdi3+0x2f4>
    299a:	97c2                	add	a5,a5,a6
    299c:	fff70613          	addi	a2,a4,-1 # ffffff <_global_impure_ptr+0xff9fe7>
    29a0:	0107e763          	bltu	a5,a6,29ae <__udivdi3+0x2f4>
    29a4:	0067f563          	bgeu	a5,t1,29ae <__udivdi3+0x2f4>
    29a8:	ffe70613          	addi	a2,a4,-2
    29ac:	97c2                	add	a5,a5,a6
    29ae:	0542                	slli	a0,a0,0x10
    29b0:	6ec1                	lui	t4,0x10
    29b2:	8d51                	or	a0,a0,a2
    29b4:	fffe8693          	addi	a3,t4,-1 # ffff <_global_impure_ptr+0x9fe7>
    29b8:	010e5613          	srli	a2,t3,0x10
    29bc:	01055813          	srli	a6,a0,0x10
    29c0:	406787b3          	sub	a5,a5,t1
    29c4:	00d57333          	and	t1,a0,a3
    29c8:	00de76b3          	and	a3,t3,a3
    29cc:	02d30e33          	mul	t3,t1,a3
    29d0:	02d806b3          	mul	a3,a6,a3
    29d4:	010e5713          	srli	a4,t3,0x10
    29d8:	02c30333          	mul	t1,t1,a2
    29dc:	9336                	add	t1,t1,a3
    29de:	971a                	add	a4,a4,t1
    29e0:	02c80833          	mul	a6,a6,a2
    29e4:	00d77363          	bgeu	a4,a3,29ea <__udivdi3+0x330>
    29e8:	9876                	add	a6,a6,t4
    29ea:	01075693          	srli	a3,a4,0x10
    29ee:	9836                	add	a6,a6,a3
    29f0:	0307e063          	bltu	a5,a6,2a10 <__udivdi3+0x356>
    29f4:	d90794e3          	bne	a5,a6,277c <__udivdi3+0xc2>
    29f8:	67c1                	lui	a5,0x10
    29fa:	17fd                	addi	a5,a5,-1
    29fc:	8f7d                	and	a4,a4,a5
    29fe:	0742                	slli	a4,a4,0x10
    2a00:	00fe7e33          	and	t3,t3,a5
    2a04:	00b898b3          	sll	a7,a7,a1
    2a08:	9772                	add	a4,a4,t3
    2a0a:	4581                	li	a1,0
    2a0c:	e2e8f4e3          	bgeu	a7,a4,2834 <__udivdi3+0x17a>
    2a10:	157d                	addi	a0,a0,-1
    2a12:	b3ad                	j	277c <__udivdi3+0xc2>
    2a14:	4581                	li	a1,0
    2a16:	4501                	li	a0,0
    2a18:	bd31                	j	2834 <__udivdi3+0x17a>

00002a1a <__umoddi3>:
    2a1a:	832a                	mv	t1,a0
    2a1c:	8832                	mv	a6,a2
    2a1e:	87b6                	mv	a5,a3
    2a20:	872e                	mv	a4,a1
    2a22:	1c069563          	bnez	a3,2bec <__umoddi3+0x1d2>
    2a26:	00003697          	auipc	a3,0x3
    2a2a:	45a68693          	addi	a3,a3,1114 # 5e80 <__clz_tab>
    2a2e:	0ac5f663          	bgeu	a1,a2,2ada <__umoddi3+0xc0>
    2a32:	68c1                	lui	a7,0x10
    2a34:	09167c63          	bgeu	a2,a7,2acc <__umoddi3+0xb2>
    2a38:	0ff00893          	li	a7,255
    2a3c:	00c8f363          	bgeu	a7,a2,2a42 <__umoddi3+0x28>
    2a40:	47a1                	li	a5,8
    2a42:	00f658b3          	srl	a7,a2,a5
    2a46:	96c6                	add	a3,a3,a7
    2a48:	0006c683          	lbu	a3,0(a3)
    2a4c:	97b6                	add	a5,a5,a3
    2a4e:	02000693          	li	a3,32
    2a52:	40f688b3          	sub	a7,a3,a5
    2a56:	00f68c63          	beq	a3,a5,2a6e <__umoddi3+0x54>
    2a5a:	011595b3          	sll	a1,a1,a7
    2a5e:	00f357b3          	srl	a5,t1,a5
    2a62:	01161833          	sll	a6,a2,a7
    2a66:	00b7e733          	or	a4,a5,a1
    2a6a:	01131533          	sll	a0,t1,a7
    2a6e:	01085593          	srli	a1,a6,0x10
    2a72:	02b777b3          	remu	a5,a4,a1
    2a76:	01081613          	slli	a2,a6,0x10
    2a7a:	8241                	srli	a2,a2,0x10
    2a7c:	01055693          	srli	a3,a0,0x10
    2a80:	02b75733          	divu	a4,a4,a1
    2a84:	07c2                	slli	a5,a5,0x10
    2a86:	8edd                	or	a3,a3,a5
    2a88:	02e60733          	mul	a4,a2,a4
    2a8c:	00e6f863          	bgeu	a3,a4,2a9c <__umoddi3+0x82>
    2a90:	96c2                	add	a3,a3,a6
    2a92:	0106e563          	bltu	a3,a6,2a9c <__umoddi3+0x82>
    2a96:	00e6f363          	bgeu	a3,a4,2a9c <__umoddi3+0x82>
    2a9a:	96c2                	add	a3,a3,a6
    2a9c:	8e99                	sub	a3,a3,a4
    2a9e:	02b6f7b3          	remu	a5,a3,a1
    2aa2:	0542                	slli	a0,a0,0x10
    2aa4:	8141                	srli	a0,a0,0x10
    2aa6:	02b6d6b3          	divu	a3,a3,a1
    2aaa:	07c2                	slli	a5,a5,0x10
    2aac:	8d5d                	or	a0,a0,a5
    2aae:	02d606b3          	mul	a3,a2,a3
    2ab2:	00d57863          	bgeu	a0,a3,2ac2 <__umoddi3+0xa8>
    2ab6:	9542                	add	a0,a0,a6
    2ab8:	01056563          	bltu	a0,a6,2ac2 <__umoddi3+0xa8>
    2abc:	00d57363          	bgeu	a0,a3,2ac2 <__umoddi3+0xa8>
    2ac0:	9542                	add	a0,a0,a6
    2ac2:	8d15                	sub	a0,a0,a3
    2ac4:	01155533          	srl	a0,a0,a7
    2ac8:	4581                	li	a1,0
    2aca:	8082                	ret
    2acc:	010008b7          	lui	a7,0x1000
    2ad0:	47c1                	li	a5,16
    2ad2:	f71668e3          	bltu	a2,a7,2a42 <__umoddi3+0x28>
    2ad6:	47e1                	li	a5,24
    2ad8:	b7ad                	j	2a42 <__umoddi3+0x28>
    2ada:	e601                	bnez	a2,2ae2 <__umoddi3+0xc8>
    2adc:	4705                	li	a4,1
    2ade:	02c75833          	divu	a6,a4,a2
    2ae2:	6741                	lui	a4,0x10
    2ae4:	08e87363          	bgeu	a6,a4,2b6a <__umoddi3+0x150>
    2ae8:	0ff00713          	li	a4,255
    2aec:	01077363          	bgeu	a4,a6,2af2 <__umoddi3+0xd8>
    2af0:	47a1                	li	a5,8
    2af2:	00f85733          	srl	a4,a6,a5
    2af6:	96ba                	add	a3,a3,a4
    2af8:	0006c603          	lbu	a2,0(a3)
    2afc:	963e                	add	a2,a2,a5
    2afe:	02000793          	li	a5,32
    2b02:	40c788b3          	sub	a7,a5,a2
    2b06:	06c79963          	bne	a5,a2,2b78 <__umoddi3+0x15e>
    2b0a:	410585b3          	sub	a1,a1,a6
    2b0e:	01085693          	srli	a3,a6,0x10
    2b12:	01081793          	slli	a5,a6,0x10
    2b16:	83c1                	srli	a5,a5,0x10
    2b18:	01055613          	srli	a2,a0,0x10
    2b1c:	02d5f733          	remu	a4,a1,a3
    2b20:	02d5d5b3          	divu	a1,a1,a3
    2b24:	0742                	slli	a4,a4,0x10
    2b26:	8f51                	or	a4,a4,a2
    2b28:	02b785b3          	mul	a1,a5,a1
    2b2c:	00b77863          	bgeu	a4,a1,2b3c <__umoddi3+0x122>
    2b30:	9742                	add	a4,a4,a6
    2b32:	01076563          	bltu	a4,a6,2b3c <__umoddi3+0x122>
    2b36:	00b77363          	bgeu	a4,a1,2b3c <__umoddi3+0x122>
    2b3a:	9742                	add	a4,a4,a6
    2b3c:	40b705b3          	sub	a1,a4,a1
    2b40:	02d5f733          	remu	a4,a1,a3
    2b44:	0542                	slli	a0,a0,0x10
    2b46:	8141                	srli	a0,a0,0x10
    2b48:	02d5d5b3          	divu	a1,a1,a3
    2b4c:	02b785b3          	mul	a1,a5,a1
    2b50:	01071793          	slli	a5,a4,0x10
    2b54:	8d5d                	or	a0,a0,a5
    2b56:	00b57863          	bgeu	a0,a1,2b66 <__umoddi3+0x14c>
    2b5a:	9542                	add	a0,a0,a6
    2b5c:	01056563          	bltu	a0,a6,2b66 <__umoddi3+0x14c>
    2b60:	00b57363          	bgeu	a0,a1,2b66 <__umoddi3+0x14c>
    2b64:	9542                	add	a0,a0,a6
    2b66:	8d0d                	sub	a0,a0,a1
    2b68:	bfb1                	j	2ac4 <__umoddi3+0xaa>
    2b6a:	01000737          	lui	a4,0x1000
    2b6e:	47c1                	li	a5,16
    2b70:	f8e861e3          	bltu	a6,a4,2af2 <__umoddi3+0xd8>
    2b74:	47e1                	li	a5,24
    2b76:	bfb5                	j	2af2 <__umoddi3+0xd8>
    2b78:	01181833          	sll	a6,a6,a7
    2b7c:	00c5d6b3          	srl	a3,a1,a2
    2b80:	01085793          	srli	a5,a6,0x10
    2b84:	02f6f733          	remu	a4,a3,a5
    2b88:	011595b3          	sll	a1,a1,a7
    2b8c:	00c35633          	srl	a2,t1,a2
    2b90:	8e4d                	or	a2,a2,a1
    2b92:	01081593          	slli	a1,a6,0x10
    2b96:	81c1                	srli	a1,a1,0x10
    2b98:	01131533          	sll	a0,t1,a7
    2b9c:	01065313          	srli	t1,a2,0x10
    2ba0:	02f6d6b3          	divu	a3,a3,a5
    2ba4:	0742                	slli	a4,a4,0x10
    2ba6:	00676733          	or	a4,a4,t1
    2baa:	02d586b3          	mul	a3,a1,a3
    2bae:	00d77863          	bgeu	a4,a3,2bbe <__umoddi3+0x1a4>
    2bb2:	9742                	add	a4,a4,a6
    2bb4:	01076563          	bltu	a4,a6,2bbe <__umoddi3+0x1a4>
    2bb8:	00d77363          	bgeu	a4,a3,2bbe <__umoddi3+0x1a4>
    2bbc:	9742                	add	a4,a4,a6
    2bbe:	40d706b3          	sub	a3,a4,a3
    2bc2:	02f6f733          	remu	a4,a3,a5
    2bc6:	0642                	slli	a2,a2,0x10
    2bc8:	8241                	srli	a2,a2,0x10
    2bca:	02f6d6b3          	divu	a3,a3,a5
    2bce:	0742                	slli	a4,a4,0x10
    2bd0:	02d586b3          	mul	a3,a1,a3
    2bd4:	00c765b3          	or	a1,a4,a2
    2bd8:	00d5f863          	bgeu	a1,a3,2be8 <__umoddi3+0x1ce>
    2bdc:	95c2                	add	a1,a1,a6
    2bde:	0105e563          	bltu	a1,a6,2be8 <__umoddi3+0x1ce>
    2be2:	00d5f363          	bgeu	a1,a3,2be8 <__umoddi3+0x1ce>
    2be6:	95c2                	add	a1,a1,a6
    2be8:	8d95                	sub	a1,a1,a3
    2bea:	b715                	j	2b0e <__umoddi3+0xf4>
    2bec:	ecd5efe3          	bltu	a1,a3,2aca <__umoddi3+0xb0>
    2bf0:	67c1                	lui	a5,0x10
    2bf2:	04f6f463          	bgeu	a3,a5,2c3a <__umoddi3+0x220>
    2bf6:	0ff00893          	li	a7,255
    2bfa:	00d8b7b3          	sltu	a5,a7,a3
    2bfe:	078e                	slli	a5,a5,0x3
    2c00:	00f6d8b3          	srl	a7,a3,a5
    2c04:	00003817          	auipc	a6,0x3
    2c08:	27c80813          	addi	a6,a6,636 # 5e80 <__clz_tab>
    2c0c:	9846                	add	a6,a6,a7
    2c0e:	00084883          	lbu	a7,0(a6)
    2c12:	98be                	add	a7,a7,a5
    2c14:	02000793          	li	a5,32
    2c18:	41178833          	sub	a6,a5,a7
    2c1c:	03179663          	bne	a5,a7,2c48 <__umoddi3+0x22e>
    2c20:	00b6e463          	bltu	a3,a1,2c28 <__umoddi3+0x20e>
    2c24:	00c36963          	bltu	t1,a2,2c36 <__umoddi3+0x21c>
    2c28:	40c30533          	sub	a0,t1,a2
    2c2c:	8d95                	sub	a1,a1,a3
    2c2e:	00a33733          	sltu	a4,t1,a0
    2c32:	40e58733          	sub	a4,a1,a4
    2c36:	85ba                	mv	a1,a4
    2c38:	bd49                	j	2aca <__umoddi3+0xb0>
    2c3a:	01000837          	lui	a6,0x1000
    2c3e:	47c1                	li	a5,16
    2c40:	fd06e0e3          	bltu	a3,a6,2c00 <__umoddi3+0x1e6>
    2c44:	47e1                	li	a5,24
    2c46:	bf6d                	j	2c00 <__umoddi3+0x1e6>
    2c48:	011657b3          	srl	a5,a2,a7
    2c4c:	010696b3          	sll	a3,a3,a6
    2c50:	00d7ee33          	or	t3,a5,a3
    2c54:	0115d733          	srl	a4,a1,a7
    2c58:	010e5f13          	srli	t5,t3,0x10
    2c5c:	01061eb3          	sll	t4,a2,a6
    2c60:	03e77633          	remu	a2,a4,t5
    2c64:	010595b3          	sll	a1,a1,a6
    2c68:	011357b3          	srl	a5,t1,a7
    2c6c:	8fcd                	or	a5,a5,a1
    2c6e:	010e1593          	slli	a1,t3,0x10
    2c72:	81c1                	srli	a1,a1,0x10
    2c74:	01031533          	sll	a0,t1,a6
    2c78:	0107d693          	srli	a3,a5,0x10
    2c7c:	03e75733          	divu	a4,a4,t5
    2c80:	0642                	slli	a2,a2,0x10
    2c82:	8ed1                	or	a3,a3,a2
    2c84:	02e58333          	mul	t1,a1,a4
    2c88:	863a                	mv	a2,a4
    2c8a:	0066fc63          	bgeu	a3,t1,2ca2 <__umoddi3+0x288>
    2c8e:	96f2                	add	a3,a3,t3
    2c90:	fff70613          	addi	a2,a4,-1 # ffffff <_global_impure_ptr+0xff9fe7>
    2c94:	01c6e763          	bltu	a3,t3,2ca2 <__umoddi3+0x288>
    2c98:	0066f563          	bgeu	a3,t1,2ca2 <__umoddi3+0x288>
    2c9c:	ffe70613          	addi	a2,a4,-2
    2ca0:	96f2                	add	a3,a3,t3
    2ca2:	406686b3          	sub	a3,a3,t1
    2ca6:	03e6f333          	remu	t1,a3,t5
    2caa:	03e6d6b3          	divu	a3,a3,t5
    2cae:	0342                	slli	t1,t1,0x10
    2cb0:	02d58733          	mul	a4,a1,a3
    2cb4:	01079593          	slli	a1,a5,0x10
    2cb8:	81c1                	srli	a1,a1,0x10
    2cba:	00b365b3          	or	a1,t1,a1
    2cbe:	87b6                	mv	a5,a3
    2cc0:	00e5fc63          	bgeu	a1,a4,2cd8 <__umoddi3+0x2be>
    2cc4:	95f2                	add	a1,a1,t3
    2cc6:	fff68793          	addi	a5,a3,-1
    2cca:	01c5e763          	bltu	a1,t3,2cd8 <__umoddi3+0x2be>
    2cce:	00e5f563          	bgeu	a1,a4,2cd8 <__umoddi3+0x2be>
    2cd2:	ffe68793          	addi	a5,a3,-2
    2cd6:	95f2                	add	a1,a1,t3
    2cd8:	0642                	slli	a2,a2,0x10
    2cda:	6f41                	lui	t5,0x10
    2cdc:	8e5d                	or	a2,a2,a5
    2cde:	ffff0693          	addi	a3,t5,-1 # ffff <_global_impure_ptr+0x9fe7>
    2ce2:	00d67333          	and	t1,a2,a3
    2ce6:	8d99                	sub	a1,a1,a4
    2ce8:	8241                	srli	a2,a2,0x10
    2cea:	010ed713          	srli	a4,t4,0x10
    2cee:	00def6b3          	and	a3,t4,a3
    2cf2:	02d307b3          	mul	a5,t1,a3
    2cf6:	02d606b3          	mul	a3,a2,a3
    2cfa:	02e30333          	mul	t1,t1,a4
    2cfe:	02e60633          	mul	a2,a2,a4
    2d02:	9336                	add	t1,t1,a3
    2d04:	0107d713          	srli	a4,a5,0x10
    2d08:	971a                	add	a4,a4,t1
    2d0a:	00d77363          	bgeu	a4,a3,2d10 <__umoddi3+0x2f6>
    2d0e:	967a                	add	a2,a2,t5
    2d10:	01075693          	srli	a3,a4,0x10
    2d14:	96b2                	add	a3,a3,a2
    2d16:	6641                	lui	a2,0x10
    2d18:	167d                	addi	a2,a2,-1
    2d1a:	8f71                	and	a4,a4,a2
    2d1c:	0742                	slli	a4,a4,0x10
    2d1e:	8ff1                	and	a5,a5,a2
    2d20:	97ba                	add	a5,a5,a4
    2d22:	00d5e663          	bltu	a1,a3,2d2e <__umoddi3+0x314>
    2d26:	00d59b63          	bne	a1,a3,2d3c <__umoddi3+0x322>
    2d2a:	00f57963          	bgeu	a0,a5,2d3c <__umoddi3+0x322>
    2d2e:	41d78633          	sub	a2,a5,t4
    2d32:	00c7b7b3          	sltu	a5,a5,a2
    2d36:	97f2                	add	a5,a5,t3
    2d38:	8e9d                	sub	a3,a3,a5
    2d3a:	87b2                	mv	a5,a2
    2d3c:	40f507b3          	sub	a5,a0,a5
    2d40:	00f53533          	sltu	a0,a0,a5
    2d44:	8d95                	sub	a1,a1,a3
    2d46:	8d89                	sub	a1,a1,a0
    2d48:	011598b3          	sll	a7,a1,a7
    2d4c:	0107d533          	srl	a0,a5,a6
    2d50:	00a8e533          	or	a0,a7,a0
    2d54:	0105d5b3          	srl	a1,a1,a6
    2d58:	bb8d                	j	2aca <__umoddi3+0xb0>

00002d5a <__adddf3>:
    2d5a:	1101                	addi	sp,sp,-32
    2d5c:	ce06                	sw	ra,28(sp)
    2d5e:	cc22                	sw	s0,24(sp)
    2d60:	ca26                	sw	s1,20(sp)
    2d62:	c84a                	sw	s2,16(sp)
    2d64:	c64e                	sw	s3,12(sp)
    2d66:	c452                	sw	s4,8(sp)
    2d68:	002029f3          	frrm	s3
    2d6c:	001008b7          	lui	a7,0x100
    2d70:	18fd                	addi	a7,a7,-1
    2d72:	00b8f733          	and	a4,a7,a1
    2d76:	0145d413          	srli	s0,a1,0x14
    2d7a:	01f5d493          	srli	s1,a1,0x1f
    2d7e:	0146d593          	srli	a1,a3,0x14
    2d82:	00371793          	slli	a5,a4,0x3
    2d86:	00d8f8b3          	and	a7,a7,a3
    2d8a:	01d55713          	srli	a4,a0,0x1d
    2d8e:	7ff47413          	andi	s0,s0,2047
    2d92:	7ff5f593          	andi	a1,a1,2047
    2d96:	8f5d                	or	a4,a4,a5
    2d98:	01f6d313          	srli	t1,a3,0x1f
    2d9c:	00351793          	slli	a5,a0,0x3
    2da0:	01d65693          	srli	a3,a2,0x1d
    2da4:	088e                	slli	a7,a7,0x3
    2da6:	40b40533          	sub	a0,s0,a1
    2daa:	00361813          	slli	a6,a2,0x3
    2dae:	0116e6b3          	or	a3,a3,a7
    2db2:	862a                	mv	a2,a0
    2db4:	34649563          	bne	s1,t1,30fe <__adddf3+0x3a4>
    2db8:	10a05a63          	blez	a0,2ecc <__adddf3+0x172>
    2dbc:	04059463          	bnez	a1,2e04 <__adddf3+0xaa>
    2dc0:	0106e533          	or	a0,a3,a6
    2dc4:	e511                	bnez	a0,2dd0 <__adddf3+0x76>
    2dc6:	7ff00693          	li	a3,2047
    2dca:	2ad61c63          	bne	a2,a3,3082 <__adddf3+0x328>
    2dce:	a839                	j	2dec <__adddf3+0x92>
    2dd0:	fff60513          	addi	a0,a2,-1 # ffff <_global_impure_ptr+0x9fe7>
    2dd4:	e901                	bnez	a0,2de4 <__adddf3+0x8a>
    2dd6:	983e                	add	a6,a6,a5
    2dd8:	96ba                	add	a3,a3,a4
    2dda:	00f837b3          	sltu	a5,a6,a5
    2dde:	96be                	add	a3,a3,a5
    2de0:	4605                	li	a2,1
    2de2:	a059                	j	2e68 <__adddf3+0x10e>
    2de4:	7ff00893          	li	a7,2047
    2de8:	05161163          	bne	a2,a7,2e2a <__adddf3+0xd0>
    2dec:	00f766b3          	or	a3,a4,a5
    2df0:	70068063          	beqz	a3,34f0 <__adddf3+0x796>
    2df4:	004006b7          	lui	a3,0x400
    2df8:	8ef9                	and	a3,a3,a4
    2dfa:	4401                	li	s0,0
    2dfc:	20069263          	bnez	a3,3000 <__adddf3+0x2a6>
    2e00:	45c1                	li	a1,16
    2e02:	aafd                	j	3000 <__adddf3+0x2a6>
    2e04:	7ff00613          	li	a2,2047
    2e08:	00c41e63          	bne	s0,a2,2e24 <__adddf3+0xca>
    2e0c:	00f766b3          	or	a3,a4,a5
    2e10:	6e068363          	beqz	a3,34f6 <__adddf3+0x79c>
    2e14:	004006b7          	lui	a3,0x400
    2e18:	8ef9                	and	a3,a3,a4
    2e1a:	12068563          	beqz	a3,2f44 <__adddf3+0x1ea>
    2e1e:	7ff00613          	li	a2,2047
    2e22:	a485                	j	3082 <__adddf3+0x328>
    2e24:	00800637          	lui	a2,0x800
    2e28:	8ed1                	or	a3,a3,a2
    2e2a:	03800613          	li	a2,56
    2e2e:	08a64a63          	blt	a2,a0,2ec2 <__adddf3+0x168>
    2e32:	467d                	li	a2,31
    2e34:	06a64063          	blt	a2,a0,2e94 <__adddf3+0x13a>
    2e38:	02000613          	li	a2,32
    2e3c:	8e09                	sub	a2,a2,a0
    2e3e:	00a858b3          	srl	a7,a6,a0
    2e42:	00c695b3          	sll	a1,a3,a2
    2e46:	00c81833          	sll	a6,a6,a2
    2e4a:	0115e5b3          	or	a1,a1,a7
    2e4e:	01003833          	snez	a6,a6
    2e52:	0105e833          	or	a6,a1,a6
    2e56:	00a6d533          	srl	a0,a3,a0
    2e5a:	983e                	add	a6,a6,a5
    2e5c:	953a                	add	a0,a0,a4
    2e5e:	00f837b3          	sltu	a5,a6,a5
    2e62:	00f506b3          	add	a3,a0,a5
    2e66:	8622                	mv	a2,s0
    2e68:	008007b7          	lui	a5,0x800
    2e6c:	8ff5                	and	a5,a5,a3
    2e6e:	cbb5                	beqz	a5,2ee2 <__adddf3+0x188>
    2e70:	0605                	addi	a2,a2,1
    2e72:	7ff00793          	li	a5,2047
    2e76:	26f60363          	beq	a2,a5,30dc <__adddf3+0x382>
    2e7a:	ff800737          	lui	a4,0xff800
    2e7e:	177d                	addi	a4,a4,-1
    2e80:	00185793          	srli	a5,a6,0x1
    2e84:	8f75                	and	a4,a4,a3
    2e86:	00187813          	andi	a6,a6,1
    2e8a:	0107e833          	or	a6,a5,a6
    2e8e:	01f71793          	slli	a5,a4,0x1f
    2e92:	a2ed                	j	307c <__adddf3+0x322>
    2e94:	fe050593          	addi	a1,a0,-32
    2e98:	02000893          	li	a7,32
    2e9c:	00b6d5b3          	srl	a1,a3,a1
    2ea0:	4601                	li	a2,0
    2ea2:	01150863          	beq	a0,a7,2eb2 <__adddf3+0x158>
    2ea6:	04000613          	li	a2,64
    2eaa:	40a60533          	sub	a0,a2,a0
    2eae:	00a69633          	sll	a2,a3,a0
    2eb2:	01066833          	or	a6,a2,a6
    2eb6:	01003833          	snez	a6,a6
    2eba:	0105e833          	or	a6,a1,a6
    2ebe:	4501                	li	a0,0
    2ec0:	bf69                	j	2e5a <__adddf3+0x100>
    2ec2:	0106e833          	or	a6,a3,a6
    2ec6:	01003833          	snez	a6,a6
    2eca:	bfd5                	j	2ebe <__adddf3+0x164>
    2ecc:	c97d                	beqz	a0,2fc2 <__adddf3+0x268>
    2ece:	40858633          	sub	a2,a1,s0
    2ed2:	e821                	bnez	s0,2f22 <__adddf3+0x1c8>
    2ed4:	00f76533          	or	a0,a4,a5
    2ed8:	e911                	bnez	a0,2eec <__adddf3+0x192>
    2eda:	7ff00793          	li	a5,2047
    2ede:	02f60663          	beq	a2,a5,2f0a <__adddf3+0x1b0>
    2ee2:	8736                	mv	a4,a3
    2ee4:	87c2                	mv	a5,a6
    2ee6:	40060563          	beqz	a2,32f0 <__adddf3+0x596>
    2eea:	aa61                	j	3082 <__adddf3+0x328>
    2eec:	fff60893          	addi	a7,a2,-1 # 7fffff <_global_impure_ptr+0x7f9fe7>
    2ef0:	00089963          	bnez	a7,2f02 <__adddf3+0x1a8>
    2ef4:	97c2                	add	a5,a5,a6
    2ef6:	0107b833          	sltu	a6,a5,a6
    2efa:	96ba                	add	a3,a3,a4
    2efc:	96c2                	add	a3,a3,a6
    2efe:	883e                	mv	a6,a5
    2f00:	b5c5                	j	2de0 <__adddf3+0x86>
    2f02:	7ff00513          	li	a0,2047
    2f06:	04a61563          	bne	a2,a0,2f50 <__adddf3+0x1f6>
    2f0a:	0106e7b3          	or	a5,a3,a6
    2f0e:	5e078763          	beqz	a5,34fc <__adddf3+0x7a2>
    2f12:	004007b7          	lui	a5,0x400
    2f16:	8ff5                	and	a5,a5,a3
    2f18:	8736                	mv	a4,a3
    2f1a:	5e079363          	bnez	a5,3500 <__adddf3+0x7a6>
    2f1e:	87c2                	mv	a5,a6
    2f20:	b5c5                	j	2e00 <__adddf3+0xa6>
    2f22:	7ff00513          	li	a0,2047
    2f26:	02a59163          	bne	a1,a0,2f48 <__adddf3+0x1ee>
    2f2a:	0106e7b3          	or	a5,a3,a6
    2f2e:	5a078463          	beqz	a5,34d6 <__adddf3+0x77c>
    2f32:	004007b7          	lui	a5,0x400
    2f36:	8ff5                	and	a5,a5,a3
    2f38:	8736                	mv	a4,a3
    2f3a:	5a079363          	bnez	a5,34e0 <__adddf3+0x786>
    2f3e:	87c2                	mv	a5,a6
    2f40:	7ff00613          	li	a2,2047
    2f44:	4401                	li	s0,0
    2f46:	bd6d                	j	2e00 <__adddf3+0xa6>
    2f48:	00800537          	lui	a0,0x800
    2f4c:	8f49                	or	a4,a4,a0
    2f4e:	88b2                	mv	a7,a2
    2f50:	03800613          	li	a2,56
    2f54:	07164363          	blt	a2,a7,2fba <__adddf3+0x260>
    2f58:	467d                	li	a2,31
    2f5a:	03164b63          	blt	a2,a7,2f90 <__adddf3+0x236>
    2f5e:	02000513          	li	a0,32
    2f62:	41150533          	sub	a0,a0,a7
    2f66:	00a71633          	sll	a2,a4,a0
    2f6a:	0117d333          	srl	t1,a5,a7
    2f6e:	00a797b3          	sll	a5,a5,a0
    2f72:	00666633          	or	a2,a2,t1
    2f76:	00f037b3          	snez	a5,a5
    2f7a:	8fd1                	or	a5,a5,a2
    2f7c:	01175733          	srl	a4,a4,a7
    2f80:	97c2                	add	a5,a5,a6
    2f82:	9736                	add	a4,a4,a3
    2f84:	0107b6b3          	sltu	a3,a5,a6
    2f88:	96ba                	add	a3,a3,a4
    2f8a:	883e                	mv	a6,a5
    2f8c:	862e                	mv	a2,a1
    2f8e:	bde9                	j	2e68 <__adddf3+0x10e>
    2f90:	fe088613          	addi	a2,a7,-32 # fffe0 <_global_impure_ptr+0xf9fc8>
    2f94:	02000313          	li	t1,32
    2f98:	00c75633          	srl	a2,a4,a2
    2f9c:	4501                	li	a0,0
    2f9e:	00688863          	beq	a7,t1,2fae <__adddf3+0x254>
    2fa2:	04000513          	li	a0,64
    2fa6:	41150533          	sub	a0,a0,a7
    2faa:	00a71533          	sll	a0,a4,a0
    2fae:	8fc9                	or	a5,a5,a0
    2fb0:	00f037b3          	snez	a5,a5
    2fb4:	8fd1                	or	a5,a5,a2
    2fb6:	4701                	li	a4,0
    2fb8:	b7e1                	j	2f80 <__adddf3+0x226>
    2fba:	8fd9                	or	a5,a5,a4
    2fbc:	00f037b3          	snez	a5,a5
    2fc0:	bfdd                	j	2fb6 <__adddf3+0x25c>
    2fc2:	00140613          	addi	a2,s0,1
    2fc6:	7fe67513          	andi	a0,a2,2046
    2fca:	ed41                	bnez	a0,3062 <__adddf3+0x308>
    2fcc:	00f76533          	or	a0,a4,a5
    2fd0:	e421                	bnez	s0,3018 <__adddf3+0x2be>
    2fd2:	4c050563          	beqz	a0,349c <__adddf3+0x742>
    2fd6:	0106e633          	or	a2,a3,a6
    2fda:	30060b63          	beqz	a2,32f0 <__adddf3+0x596>
    2fde:	983e                	add	a6,a6,a5
    2fe0:	00f837b3          	sltu	a5,a6,a5
    2fe4:	9736                	add	a4,a4,a3
    2fe6:	973e                	add	a4,a4,a5
    2fe8:	008007b7          	lui	a5,0x800
    2fec:	8ff9                	and	a5,a5,a4
    2fee:	4a078863          	beqz	a5,349e <__adddf3+0x744>
    2ff2:	ff8007b7          	lui	a5,0xff800
    2ff6:	17fd                	addi	a5,a5,-1
    2ff8:	8f7d                	and	a4,a4,a5
    2ffa:	4581                	li	a1,0
    2ffc:	87c2                	mv	a5,a6
    2ffe:	4605                	li	a2,1
    3000:	0077f693          	andi	a3,a5,7
    3004:	e6d5                	bnez	a3,30b0 <__adddf3+0x356>
    3006:	58040363          	beqz	s0,358c <__adddf3+0x832>
    300a:	0015f693          	andi	a3,a1,1
    300e:	56068f63          	beqz	a3,358c <__adddf3+0x832>
    3012:	0025e593          	ori	a1,a1,2
    3016:	ab9d                	j	358c <__adddf3+0x832>
    3018:	7ff00613          	li	a2,2047
    301c:	02c41d63          	bne	s0,a2,3056 <__adddf3+0x2fc>
    3020:	5e050563          	beqz	a0,360a <__adddf3+0x8b0>
    3024:	00400637          	lui	a2,0x400
    3028:	8e79                	and	a2,a2,a4
    302a:	00163613          	seqz	a2,a2
    302e:	0612                	slli	a2,a2,0x4
    3030:	54859363          	bne	a1,s0,3576 <__adddf3+0x81c>
    3034:	85b2                	mv	a1,a2
    3036:	0106e633          	or	a2,a3,a6
    303a:	c611                	beqz	a2,3046 <__adddf3+0x2ec>
    303c:	00400637          	lui	a2,0x400
    3040:	8e75                	and	a2,a2,a3
    3042:	e211                	bnez	a2,3046 <__adddf3+0x2ec>
    3044:	45c1                	li	a1,16
    3046:	52051963          	bnez	a0,3578 <__adddf3+0x81e>
    304a:	8736                	mv	a4,a3
    304c:	87c2                	mv	a5,a6
    304e:	4401                	li	s0,0
    3050:	7ff00613          	li	a2,2047
    3054:	b775                	j	3000 <__adddf3+0x2a6>
    3056:	00c59463          	bne	a1,a2,305e <__adddf3+0x304>
    305a:	4581                	li	a1,0
    305c:	bfe9                	j	3036 <__adddf3+0x2dc>
    305e:	4581                	li	a1,0
    3060:	b7dd                	j	3046 <__adddf3+0x2ec>
    3062:	7ff00593          	li	a1,2047
    3066:	02b60063          	beq	a2,a1,3086 <__adddf3+0x32c>
    306a:	983e                	add	a6,a6,a5
    306c:	00f837b3          	sltu	a5,a6,a5
    3070:	9736                	add	a4,a4,a3
    3072:	973e                	add	a4,a4,a5
    3074:	01f71793          	slli	a5,a4,0x1f
    3078:	00185813          	srli	a6,a6,0x1
    307c:	0107e7b3          	or	a5,a5,a6
    3080:	8305                	srli	a4,a4,0x1
    3082:	4401                	li	s0,0
    3084:	a9bd                	j	3502 <__adddf3+0x7a8>
    3086:	00098763          	beqz	s3,3094 <__adddf3+0x33a>
    308a:	478d                	li	a5,3
    308c:	00f99763          	bne	s3,a5,309a <__adddf3+0x340>
    3090:	00049a63          	bnez	s1,30a4 <__adddf3+0x34a>
    3094:	7ff00613          	li	a2,2047
    3098:	a889                	j	30ea <__adddf3+0x390>
    309a:	4789                	li	a5,2
    309c:	00f99463          	bne	s3,a5,30a4 <__adddf3+0x34a>
    30a0:	fe049ae3          	bnez	s1,3094 <__adddf3+0x33a>
    30a4:	4401                	li	s0,0
    30a6:	577d                	li	a4,-1
    30a8:	57fd                	li	a5,-1
    30aa:	7fe00613          	li	a2,2046
    30ae:	4595                	li	a1,5
    30b0:	4689                	li	a3,2
    30b2:	0015e593          	ori	a1,a1,1
    30b6:	48d98763          	beq	s3,a3,3544 <__adddf3+0x7ea>
    30ba:	468d                	li	a3,3
    30bc:	48d98063          	beq	s3,a3,353c <__adddf3+0x7e2>
    30c0:	48099363          	bnez	s3,3546 <__adddf3+0x7ec>
    30c4:	00f7f693          	andi	a3,a5,15
    30c8:	4511                	li	a0,4
    30ca:	46a68e63          	beq	a3,a0,3546 <__adddf3+0x7ec>
    30ce:	00478693          	addi	a3,a5,4 # ff800004 <__kernel_stack+0xdf74000c>
    30d2:	00f6b7b3          	sltu	a5,a3,a5
    30d6:	973e                	add	a4,a4,a5
    30d8:	87b6                	mv	a5,a3
    30da:	a1b5                	j	3546 <__adddf3+0x7ec>
    30dc:	00098763          	beqz	s3,30ea <__adddf3+0x390>
    30e0:	478d                	li	a5,3
    30e2:	00f99863          	bne	s3,a5,30f2 <__adddf3+0x398>
    30e6:	3e049f63          	bnez	s1,34e4 <__adddf3+0x78a>
    30ea:	4701                	li	a4,0
    30ec:	4781                	li	a5,0
    30ee:	4595                	li	a1,5
    30f0:	a971                	j	358c <__adddf3+0x832>
    30f2:	4789                	li	a5,2
    30f4:	3ef99863          	bne	s3,a5,34e4 <__adddf3+0x78a>
    30f8:	fe0499e3          	bnez	s1,30ea <__adddf3+0x390>
    30fc:	b765                	j	30a4 <__adddf3+0x34a>
    30fe:	0ca05763          	blez	a0,31cc <__adddf3+0x472>
    3102:	08059263          	bnez	a1,3186 <__adddf3+0x42c>
    3106:	0106e533          	or	a0,a3,a6
    310a:	ca050ee3          	beqz	a0,2dc6 <__adddf3+0x6c>
    310e:	fff60513          	addi	a0,a2,-1 # 3fffff <_global_impure_ptr+0x3f9fe7>
    3112:	e911                	bnez	a0,3126 <__adddf3+0x3cc>
    3114:	41078833          	sub	a6,a5,a6
    3118:	40d706b3          	sub	a3,a4,a3
    311c:	0107b7b3          	sltu	a5,a5,a6
    3120:	8e9d                	sub	a3,a3,a5
    3122:	4605                	li	a2,1
    3124:	a0a9                	j	316e <__adddf3+0x414>
    3126:	7ff00893          	li	a7,2047
    312a:	cd1601e3          	beq	a2,a7,2dec <__adddf3+0x92>
    312e:	03800613          	li	a2,56
    3132:	08a64863          	blt	a2,a0,31c2 <__adddf3+0x468>
    3136:	467d                	li	a2,31
    3138:	04a64f63          	blt	a2,a0,3196 <__adddf3+0x43c>
    313c:	02000613          	li	a2,32
    3140:	8e09                	sub	a2,a2,a0
    3142:	00c695b3          	sll	a1,a3,a2
    3146:	00a858b3          	srl	a7,a6,a0
    314a:	00c81833          	sll	a6,a6,a2
    314e:	0115e5b3          	or	a1,a1,a7
    3152:	01003833          	snez	a6,a6
    3156:	0105e833          	or	a6,a1,a6
    315a:	00a6d6b3          	srl	a3,a3,a0
    315e:	41078833          	sub	a6,a5,a6
    3162:	40d706b3          	sub	a3,a4,a3
    3166:	0107b7b3          	sltu	a5,a5,a6
    316a:	8e9d                	sub	a3,a3,a5
    316c:	8622                	mv	a2,s0
    316e:	00800937          	lui	s2,0x800
    3172:	0126f7b3          	and	a5,a3,s2
    3176:	d60786e3          	beqz	a5,2ee2 <__adddf3+0x188>
    317a:	197d                	addi	s2,s2,-1
    317c:	0126f933          	and	s2,a3,s2
    3180:	8a42                	mv	s4,a6
    3182:	8432                	mv	s0,a2
    3184:	a4b5                	j	33f0 <__adddf3+0x696>
    3186:	7ff00613          	li	a2,2047
    318a:	c8c401e3          	beq	s0,a2,2e0c <__adddf3+0xb2>
    318e:	00800637          	lui	a2,0x800
    3192:	8ed1                	or	a3,a3,a2
    3194:	bf69                	j	312e <__adddf3+0x3d4>
    3196:	fe050593          	addi	a1,a0,-32 # 7fffe0 <_global_impure_ptr+0x7f9fc8>
    319a:	02000893          	li	a7,32
    319e:	00b6d5b3          	srl	a1,a3,a1
    31a2:	4601                	li	a2,0
    31a4:	01150763          	beq	a0,a7,31b2 <__adddf3+0x458>
    31a8:	04000613          	li	a2,64
    31ac:	8e09                	sub	a2,a2,a0
    31ae:	00c69633          	sll	a2,a3,a2
    31b2:	01066833          	or	a6,a2,a6
    31b6:	01003833          	snez	a6,a6
    31ba:	0105e833          	or	a6,a1,a6
    31be:	4681                	li	a3,0
    31c0:	bf79                	j	315e <__adddf3+0x404>
    31c2:	0106e833          	or	a6,a3,a6
    31c6:	01003833          	snez	a6,a6
    31ca:	bfd5                	j	31be <__adddf3+0x464>
    31cc:	cd75                	beqz	a0,32c8 <__adddf3+0x56e>
    31ce:	40858633          	sub	a2,a1,s0
    31d2:	e439                	bnez	s0,3220 <__adddf3+0x4c6>
    31d4:	00f76533          	or	a0,a4,a5
    31d8:	e509                	bnez	a0,31e2 <__adddf3+0x488>
    31da:	7ff00793          	li	a5,2047
    31de:	849a                	mv	s1,t1
    31e0:	b9fd                	j	2ede <__adddf3+0x184>
    31e2:	fff60893          	addi	a7,a2,-1 # 7fffff <_global_impure_ptr+0x7f9fe7>
    31e6:	00089c63          	bnez	a7,31fe <__adddf3+0x4a4>
    31ea:	40f807b3          	sub	a5,a6,a5
    31ee:	00f83833          	sltu	a6,a6,a5
    31f2:	8e99                	sub	a3,a3,a4
    31f4:	410686b3          	sub	a3,a3,a6
    31f8:	849a                	mv	s1,t1
    31fa:	883e                	mv	a6,a5
    31fc:	b71d                	j	3122 <__adddf3+0x3c8>
    31fe:	7ff00513          	li	a0,2047
    3202:	04a61663          	bne	a2,a0,324e <__adddf3+0x4f4>
    3206:	0106e7b3          	or	a5,a3,a6
    320a:	2e078e63          	beqz	a5,3506 <__adddf3+0x7ac>
    320e:	004007b7          	lui	a5,0x400
    3212:	8ff5                	and	a5,a5,a3
    3214:	8736                	mv	a4,a3
    3216:	2e079b63          	bnez	a5,350c <__adddf3+0x7b2>
    321a:	87c2                	mv	a5,a6
    321c:	849a                	mv	s1,t1
    321e:	b6cd                	j	2e00 <__adddf3+0xa6>
    3220:	7ff00513          	li	a0,2047
    3224:	02a59163          	bne	a1,a0,3246 <__adddf3+0x4ec>
    3228:	0106e7b3          	or	a5,a3,a6
    322c:	2e078363          	beqz	a5,3512 <__adddf3+0x7b8>
    3230:	004007b7          	lui	a5,0x400
    3234:	8ff5                	and	a5,a5,a3
    3236:	8736                	mv	a4,a3
    3238:	2e079163          	bnez	a5,351a <__adddf3+0x7c0>
    323c:	87c2                	mv	a5,a6
    323e:	7ff00613          	li	a2,2047
    3242:	849a                	mv	s1,t1
    3244:	b301                	j	2f44 <__adddf3+0x1ea>
    3246:	00800537          	lui	a0,0x800
    324a:	8f49                	or	a4,a4,a0
    324c:	88b2                	mv	a7,a2
    324e:	03800613          	li	a2,56
    3252:	07164763          	blt	a2,a7,32c0 <__adddf3+0x566>
    3256:	467d                	li	a2,31
    3258:	03164f63          	blt	a2,a7,3296 <__adddf3+0x53c>
    325c:	02000513          	li	a0,32
    3260:	41150533          	sub	a0,a0,a7
    3264:	00a71633          	sll	a2,a4,a0
    3268:	0117de33          	srl	t3,a5,a7
    326c:	00a797b3          	sll	a5,a5,a0
    3270:	01c66633          	or	a2,a2,t3
    3274:	00f037b3          	snez	a5,a5
    3278:	8fd1                	or	a5,a5,a2
    327a:	01175733          	srl	a4,a4,a7
    327e:	40f807b3          	sub	a5,a6,a5
    3282:	40e68733          	sub	a4,a3,a4
    3286:	00f836b3          	sltu	a3,a6,a5
    328a:	40d706b3          	sub	a3,a4,a3
    328e:	883e                	mv	a6,a5
    3290:	862e                	mv	a2,a1
    3292:	849a                	mv	s1,t1
    3294:	bde9                	j	316e <__adddf3+0x414>
    3296:	fe088613          	addi	a2,a7,-32
    329a:	02000e13          	li	t3,32
    329e:	00c75633          	srl	a2,a4,a2
    32a2:	4501                	li	a0,0
    32a4:	01c88863          	beq	a7,t3,32b4 <__adddf3+0x55a>
    32a8:	04000513          	li	a0,64
    32ac:	41150533          	sub	a0,a0,a7
    32b0:	00a71533          	sll	a0,a4,a0
    32b4:	8fc9                	or	a5,a5,a0
    32b6:	00f037b3          	snez	a5,a5
    32ba:	8fd1                	or	a5,a5,a2
    32bc:	4701                	li	a4,0
    32be:	b7c1                	j	327e <__adddf3+0x524>
    32c0:	8fd9                	or	a5,a5,a4
    32c2:	00f037b3          	snez	a5,a5
    32c6:	bfdd                	j	32bc <__adddf3+0x562>
    32c8:	00140613          	addi	a2,s0,1
    32cc:	7fe67613          	andi	a2,a2,2046
    32d0:	ea7d                	bnez	a2,33c6 <__adddf3+0x66c>
    32d2:	00f768b3          	or	a7,a4,a5
    32d6:	0106e533          	or	a0,a3,a6
    32da:	e05d                	bnez	s0,3380 <__adddf3+0x626>
    32dc:	06089263          	bnez	a7,3340 <__adddf3+0x5e6>
    32e0:	1c051163          	bnez	a0,34a2 <__adddf3+0x748>
    32e4:	ffe98493          	addi	s1,s3,-2
    32e8:	0014b493          	seqz	s1,s1
    32ec:	4701                	li	a4,0
    32ee:	4781                	li	a5,0
    32f0:	00e7e6b3          	or	a3,a5,a4
    32f4:	24068063          	beqz	a3,3534 <__adddf3+0x7da>
    32f8:	01f7d693          	srli	a3,a5,0x1f
    32fc:	00171413          	slli	s0,a4,0x1
    3300:	9436                	add	s0,s0,a3
    3302:	00179693          	slli	a3,a5,0x1
    3306:	0076f613          	andi	a2,a3,7
    330a:	4581                	li	a1,0
    330c:	c605                	beqz	a2,3334 <__adddf3+0x5da>
    330e:	4609                	li	a2,2
    3310:	1ac98963          	beq	s3,a2,34c2 <__adddf3+0x768>
    3314:	460d                	li	a2,3
    3316:	18c98c63          	beq	s3,a2,34ae <__adddf3+0x754>
    331a:	4585                	li	a1,1
    331c:	00099c63          	bnez	s3,3334 <__adddf3+0x5da>
    3320:	00f6f613          	andi	a2,a3,15
    3324:	4511                	li	a0,4
    3326:	00a60763          	beq	a2,a0,3334 <__adddf3+0x5da>
    332a:	ffc6b693          	sltiu	a3,a3,-4
    332e:	0016c693          	xori	a3,a3,1
    3332:	9436                	add	s0,s0,a3
    3334:	8061                	srli	s0,s0,0x18
    3336:	00144413          	xori	s0,s0,1
    333a:	8805                	andi	s0,s0,1
    333c:	4601                	li	a2,0
    333e:	b1c9                	j	3000 <__adddf3+0x2a6>
    3340:	d945                	beqz	a0,32f0 <__adddf3+0x596>
    3342:	410785b3          	sub	a1,a5,a6
    3346:	00b7b533          	sltu	a0,a5,a1
    334a:	40d70633          	sub	a2,a4,a3
    334e:	8e09                	sub	a2,a2,a0
    3350:	00800537          	lui	a0,0x800
    3354:	8d71                	and	a0,a0,a2
    3356:	c919                	beqz	a0,336c <__adddf3+0x612>
    3358:	40f807b3          	sub	a5,a6,a5
    335c:	40e68733          	sub	a4,a3,a4
    3360:	00f83833          	sltu	a6,a6,a5
    3364:	41070733          	sub	a4,a4,a6
    3368:	849a                	mv	s1,t1
    336a:	b759                	j	32f0 <__adddf3+0x596>
    336c:	00c5e7b3          	or	a5,a1,a2
    3370:	12079c63          	bnez	a5,34a8 <__adddf3+0x74e>
    3374:	ffe98493          	addi	s1,s3,-2
    3378:	0014b493          	seqz	s1,s1
    337c:	4701                	li	a4,0
    337e:	bf8d                	j	32f0 <__adddf3+0x596>
    3380:	7ff00613          	li	a2,2047
    3384:	00c41e63          	bne	s0,a2,33a0 <__adddf3+0x646>
    3388:	26088963          	beqz	a7,35fa <__adddf3+0x8a0>
    338c:	00400637          	lui	a2,0x400
    3390:	8e79                	and	a2,a2,a4
    3392:	00163613          	seqz	a2,a2
    3396:	0612                	slli	a2,a2,0x4
    3398:	26859563          	bne	a1,s0,3602 <__adddf3+0x8a8>
    339c:	85b2                	mv	a1,a2
    339e:	a021                	j	33a6 <__adddf3+0x64c>
    33a0:	02c59163          	bne	a1,a2,33c2 <__adddf3+0x668>
    33a4:	4581                	li	a1,0
    33a6:	c511                	beqz	a0,33b2 <__adddf3+0x658>
    33a8:	00400637          	lui	a2,0x400
    33ac:	8e75                	and	a2,a2,a3
    33ae:	e211                	bnez	a2,33b2 <__adddf3+0x658>
    33b0:	45c1                	li	a1,16
    33b2:	24089963          	bnez	a7,3604 <__adddf3+0x8aa>
    33b6:	16050763          	beqz	a0,3524 <__adddf3+0x7ca>
    33ba:	8736                	mv	a4,a3
    33bc:	87c2                	mv	a5,a6
    33be:	849a                	mv	s1,t1
    33c0:	b179                	j	304e <__adddf3+0x2f4>
    33c2:	4581                	li	a1,0
    33c4:	b7fd                	j	33b2 <__adddf3+0x658>
    33c6:	41078a33          	sub	s4,a5,a6
    33ca:	0147b633          	sltu	a2,a5,s4
    33ce:	40d70933          	sub	s2,a4,a3
    33d2:	40c90933          	sub	s2,s2,a2
    33d6:	00800637          	lui	a2,0x800
    33da:	00c97633          	and	a2,s2,a2
    33de:	c62d                	beqz	a2,3448 <__adddf3+0x6ee>
    33e0:	40f80a33          	sub	s4,a6,a5
    33e4:	8e99                	sub	a3,a3,a4
    33e6:	01483833          	sltu	a6,a6,s4
    33ea:	41068933          	sub	s2,a3,a6
    33ee:	849a                	mv	s1,t1
    33f0:	06090063          	beqz	s2,3450 <__adddf3+0x6f6>
    33f4:	854a                	mv	a0,s2
    33f6:	337010ef          	jal	ra,4f2c <__clzsi2>
    33fa:	ff850613          	addi	a2,a0,-8 # 7ffff8 <_global_impure_ptr+0x7f9fe0>
    33fe:	47fd                	li	a5,31
    3400:	04c7ce63          	blt	a5,a2,345c <__adddf3+0x702>
    3404:	02000693          	li	a3,32
    3408:	8e91                	sub	a3,a3,a2
    340a:	00c91733          	sll	a4,s2,a2
    340e:	00da56b3          	srl	a3,s4,a3
    3412:	8ed9                	or	a3,a3,a4
    3414:	00ca1833          	sll	a6,s4,a2
    3418:	06864b63          	blt	a2,s0,348e <__adddf3+0x734>
    341c:	8e01                	sub	a2,a2,s0
    341e:	00160713          	addi	a4,a2,1 # 800001 <_global_impure_ptr+0x7f9fe9>
    3422:	47fd                	li	a5,31
    3424:	04e7c263          	blt	a5,a4,3468 <__adddf3+0x70e>
    3428:	02000613          	li	a2,32
    342c:	8e19                	sub	a2,a2,a4
    342e:	00c697b3          	sll	a5,a3,a2
    3432:	00e85533          	srl	a0,a6,a4
    3436:	00c81633          	sll	a2,a6,a2
    343a:	8fc9                	or	a5,a5,a0
    343c:	00c03633          	snez	a2,a2
    3440:	8fd1                	or	a5,a5,a2
    3442:	00e6d733          	srl	a4,a3,a4
    3446:	b56d                	j	32f0 <__adddf3+0x596>
    3448:	012a67b3          	or	a5,s4,s2
    344c:	f3d5                	bnez	a5,33f0 <__adddf3+0x696>
    344e:	b71d                	j	3374 <__adddf3+0x61a>
    3450:	8552                	mv	a0,s4
    3452:	2db010ef          	jal	ra,4f2c <__clzsi2>
    3456:	02050513          	addi	a0,a0,32
    345a:	b745                	j	33fa <__adddf3+0x6a0>
    345c:	fd850693          	addi	a3,a0,-40
    3460:	00da16b3          	sll	a3,s4,a3
    3464:	4801                	li	a6,0
    3466:	bf4d                	j	3418 <__adddf3+0x6be>
    3468:	1605                	addi	a2,a2,-31
    346a:	02000593          	li	a1,32
    346e:	00c6d633          	srl	a2,a3,a2
    3472:	4781                	li	a5,0
    3474:	00b70763          	beq	a4,a1,3482 <__adddf3+0x728>
    3478:	04000793          	li	a5,64
    347c:	8f99                	sub	a5,a5,a4
    347e:	00f697b3          	sll	a5,a3,a5
    3482:	00f867b3          	or	a5,a6,a5
    3486:	00f037b3          	snez	a5,a5
    348a:	8fd1                	or	a5,a5,a2
    348c:	bdc5                	j	337c <__adddf3+0x622>
    348e:	ff8007b7          	lui	a5,0xff800
    3492:	17fd                	addi	a5,a5,-1
    3494:	40c40633          	sub	a2,s0,a2
    3498:	8efd                	and	a3,a3,a5
    349a:	b4a1                	j	2ee2 <__adddf3+0x188>
    349c:	8736                	mv	a4,a3
    349e:	87c2                	mv	a5,a6
    34a0:	bd81                	j	32f0 <__adddf3+0x596>
    34a2:	8736                	mv	a4,a3
    34a4:	87c2                	mv	a5,a6
    34a6:	b5c9                	j	3368 <__adddf3+0x60e>
    34a8:	8732                	mv	a4,a2
    34aa:	87ae                	mv	a5,a1
    34ac:	b591                	j	32f0 <__adddf3+0x596>
    34ae:	85a6                	mv	a1,s1
    34b0:	e80492e3          	bnez	s1,3334 <__adddf3+0x5da>
    34b4:	ff86b693          	sltiu	a3,a3,-8
    34b8:	0016c693          	xori	a3,a3,1
    34bc:	9436                	add	s0,s0,a3
    34be:	4585                	li	a1,1
    34c0:	bd95                	j	3334 <__adddf3+0x5da>
    34c2:	4585                	li	a1,1
    34c4:	e60488e3          	beqz	s1,3334 <__adddf3+0x5da>
    34c8:	ff86b693          	sltiu	a3,a3,-8
    34cc:	0016c693          	xori	a3,a3,1
    34d0:	9436                	add	s0,s0,a3
    34d2:	85a6                	mv	a1,s1
    34d4:	b585                	j	3334 <__adddf3+0x5da>
    34d6:	4701                	li	a4,0
    34d8:	7ff00613          	li	a2,2047
    34dc:	4581                	li	a1,0
    34de:	a07d                	j	358c <__adddf3+0x832>
    34e0:	87c2                	mv	a5,a6
    34e2:	ba35                	j	2e1e <__adddf3+0xc4>
    34e4:	577d                	li	a4,-1
    34e6:	57fd                	li	a5,-1
    34e8:	7fe00613          	li	a2,2046
    34ec:	4401                	li	s0,0
    34ee:	b6c1                	j	30ae <__adddf3+0x354>
    34f0:	4701                	li	a4,0
    34f2:	4781                	li	a5,0
    34f4:	a861                	j	358c <__adddf3+0x832>
    34f6:	4701                	li	a4,0
    34f8:	4781                	li	a5,0
    34fa:	bff9                	j	34d8 <__adddf3+0x77e>
    34fc:	4701                	li	a4,0
    34fe:	bff9                	j	34dc <__adddf3+0x782>
    3500:	87c2                	mv	a5,a6
    3502:	4581                	li	a1,0
    3504:	bcf5                	j	3000 <__adddf3+0x2a6>
    3506:	4701                	li	a4,0
    3508:	849a                	mv	s1,t1
    350a:	bfc9                	j	34dc <__adddf3+0x782>
    350c:	87c2                	mv	a5,a6
    350e:	849a                	mv	s1,t1
    3510:	bfcd                	j	3502 <__adddf3+0x7a8>
    3512:	4701                	li	a4,0
    3514:	7ff00613          	li	a2,2047
    3518:	bfc5                	j	3508 <__adddf3+0x7ae>
    351a:	87c2                	mv	a5,a6
    351c:	7ff00613          	li	a2,2047
    3520:	849a                	mv	s1,t1
    3522:	b685                	j	3082 <__adddf3+0x328>
    3524:	4781                	li	a5,0
    3526:	4481                	li	s1,0
    3528:	00400737          	lui	a4,0x400
    352c:	7ff00613          	li	a2,2047
    3530:	45c1                	li	a1,16
    3532:	a8a9                	j	358c <__adddf3+0x832>
    3534:	4701                	li	a4,0
    3536:	4781                	li	a5,0
    3538:	4601                	li	a2,0
    353a:	b74d                	j	34dc <__adddf3+0x782>
    353c:	e489                	bnez	s1,3546 <__adddf3+0x7ec>
    353e:	00878693          	addi	a3,a5,8 # ff800008 <__kernel_stack+0xdf740010>
    3542:	be41                	j	30d2 <__adddf3+0x378>
    3544:	fced                	bnez	s1,353e <__adddf3+0x7e4>
    3546:	ac0416e3          	bnez	s0,3012 <__adddf3+0x2b8>
    354a:	a089                	j	358c <__adddf3+0x832>
    354c:	4781                	li	a5,0
    354e:	02098063          	beqz	s3,356e <__adddf3+0x814>
    3552:	470d                	li	a4,3
    3554:	00e99863          	bne	s3,a4,3564 <__adddf3+0x80a>
    3558:	00048b63          	beqz	s1,356e <__adddf3+0x814>
    355c:	57fd                	li	a5,-1
    355e:	7fe00613          	li	a2,2046
    3562:	a031                	j	356e <__adddf3+0x814>
    3564:	4709                	li	a4,2
    3566:	fee99be3          	bne	s3,a4,355c <__adddf3+0x802>
    356a:	fe0489e3          	beqz	s1,355c <__adddf3+0x802>
    356e:	0055e593          	ori	a1,a1,5
    3572:	873e                	mv	a4,a5
    3574:	a80d                	j	35a6 <__adddf3+0x84c>
    3576:	85b2                	mv	a1,a2
    3578:	0106e6b3          	or	a3,a3,a6
    357c:	ac0689e3          	beqz	a3,304e <__adddf3+0x2f4>
    3580:	4481                	li	s1,0
    3582:	00400737          	lui	a4,0x400
    3586:	4781                	li	a5,0
    3588:	7ff00613          	li	a2,2047
    358c:	008006b7          	lui	a3,0x800
    3590:	8ef9                	and	a3,a3,a4
    3592:	ca91                	beqz	a3,35a6 <__adddf3+0x84c>
    3594:	0605                	addi	a2,a2,1
    3596:	7ff00693          	li	a3,2047
    359a:	fad609e3          	beq	a2,a3,354c <__adddf3+0x7f2>
    359e:	ff8006b7          	lui	a3,0xff800
    35a2:	16fd                	addi	a3,a3,-1
    35a4:	8f75                	and	a4,a4,a3
    35a6:	0037d513          	srli	a0,a5,0x3
    35aa:	7ff00693          	li	a3,2047
    35ae:	01d71793          	slli	a5,a4,0x1d
    35b2:	8fc9                	or	a5,a5,a0
    35b4:	830d                	srli	a4,a4,0x3
    35b6:	00d61963          	bne	a2,a3,35c8 <__adddf3+0x86e>
    35ba:	8fd9                	or	a5,a5,a4
    35bc:	4701                	li	a4,0
    35be:	c789                	beqz	a5,35c8 <__adddf3+0x86e>
    35c0:	00080737          	lui	a4,0x80
    35c4:	4781                	li	a5,0
    35c6:	4481                	li	s1,0
    35c8:	7ff006b7          	lui	a3,0x7ff00
    35cc:	0652                	slli	a2,a2,0x14
    35ce:	0732                	slli	a4,a4,0xc
    35d0:	8e75                	and	a2,a2,a3
    35d2:	8331                	srli	a4,a4,0xc
    35d4:	8f51                	or	a4,a4,a2
    35d6:	04fe                	slli	s1,s1,0x1f
    35d8:	009766b3          	or	a3,a4,s1
    35dc:	873e                	mv	a4,a5
    35de:	87b6                	mv	a5,a3
    35e0:	c199                	beqz	a1,35e6 <__adddf3+0x88c>
    35e2:	0015a073          	csrs	fflags,a1
    35e6:	40f2                	lw	ra,28(sp)
    35e8:	4462                	lw	s0,24(sp)
    35ea:	44d2                	lw	s1,20(sp)
    35ec:	4942                	lw	s2,16(sp)
    35ee:	49b2                	lw	s3,12(sp)
    35f0:	4a22                	lw	s4,8(sp)
    35f2:	853a                	mv	a0,a4
    35f4:	85be                	mv	a1,a5
    35f6:	6105                	addi	sp,sp,32
    35f8:	8082                	ret
    35fa:	da8585e3          	beq	a1,s0,33a4 <__adddf3+0x64a>
    35fe:	4581                	li	a1,0
    3600:	bb5d                	j	33b6 <__adddf3+0x65c>
    3602:	85b2                	mv	a1,a2
    3604:	a40505e3          	beqz	a0,304e <__adddf3+0x2f4>
    3608:	bfa5                	j	3580 <__adddf3+0x826>
    360a:	a48588e3          	beq	a1,s0,305a <__adddf3+0x300>
    360e:	4581                	li	a1,0
    3610:	bc2d                	j	304a <__adddf3+0x2f0>

00003612 <__divdf3>:
    3612:	7179                	addi	sp,sp,-48
    3614:	d422                	sw	s0,40(sp)
    3616:	ca56                	sw	s5,20(sp)
    3618:	c266                	sw	s9,4(sp)
    361a:	d606                	sw	ra,44(sp)
    361c:	d226                	sw	s1,36(sp)
    361e:	d04a                	sw	s2,32(sp)
    3620:	ce4e                	sw	s3,28(sp)
    3622:	cc52                	sw	s4,24(sp)
    3624:	c85a                	sw	s6,16(sp)
    3626:	c65e                	sw	s7,12(sp)
    3628:	c462                	sw	s8,8(sp)
    362a:	842a                	mv	s0,a0
    362c:	8cb2                	mv	s9,a2
    362e:	8ab6                	mv	s5,a3
    3630:	00202973          	frrm	s2
    3634:	0145db13          	srli	s6,a1,0x14
    3638:	00c59b93          	slli	s7,a1,0xc
    363c:	7ffb7b13          	andi	s6,s6,2047
    3640:	00cbdb93          	srli	s7,s7,0xc
    3644:	01f5da13          	srli	s4,a1,0x1f
    3648:	020b0663          	beqz	s6,3674 <__divdf3+0x62>
    364c:	7ff00793          	li	a5,2047
    3650:	06fb0b63          	beq	s6,a5,36c6 <__divdf3+0xb4>
    3654:	01d55713          	srli	a4,a0,0x1d
    3658:	0b8e                	slli	s7,s7,0x3
    365a:	01776bb3          	or	s7,a4,s7
    365e:	008007b7          	lui	a5,0x800
    3662:	00fbebb3          	or	s7,s7,a5
    3666:	00351993          	slli	s3,a0,0x3
    366a:	c01b0b13          	addi	s6,s6,-1023
    366e:	4c01                	li	s8,0
    3670:	4481                	li	s1,0
    3672:	a0bd                	j	36e0 <__divdf3+0xce>
    3674:	00abe7b3          	or	a5,s7,a0
    3678:	c7e9                	beqz	a5,3742 <__divdf3+0x130>
    367a:	020b8b63          	beqz	s7,36b0 <__divdf3+0x9e>
    367e:	855e                	mv	a0,s7
    3680:	0ad010ef          	jal	ra,4f2c <__clzsi2>
    3684:	ff550713          	addi	a4,a0,-11
    3688:	47f1                	li	a5,28
    368a:	02e7c863          	blt	a5,a4,36ba <__divdf3+0xa8>
    368e:	46f5                	li	a3,29
    3690:	ff850993          	addi	s3,a0,-8
    3694:	8e99                	sub	a3,a3,a4
    3696:	013b9bb3          	sll	s7,s7,s3
    369a:	00d456b3          	srl	a3,s0,a3
    369e:	0176ebb3          	or	s7,a3,s7
    36a2:	013419b3          	sll	s3,s0,s3
    36a6:	c0d00593          	li	a1,-1011
    36aa:	40a58b33          	sub	s6,a1,a0
    36ae:	b7c1                	j	366e <__divdf3+0x5c>
    36b0:	07d010ef          	jal	ra,4f2c <__clzsi2>
    36b4:	02050513          	addi	a0,a0,32
    36b8:	b7f1                	j	3684 <__divdf3+0x72>
    36ba:	fd850b93          	addi	s7,a0,-40
    36be:	01741bb3          	sll	s7,s0,s7
    36c2:	4981                	li	s3,0
    36c4:	b7cd                	j	36a6 <__divdf3+0x94>
    36c6:	00abe433          	or	s0,s7,a0
    36ca:	c049                	beqz	s0,374c <__divdf3+0x13a>
    36cc:	000807b7          	lui	a5,0x80
    36d0:	00fbf7b3          	and	a5,s7,a5
    36d4:	89aa                	mv	s3,a0
    36d6:	7ff00b13          	li	s6,2047
    36da:	4c0d                	li	s8,3
    36dc:	44c1                	li	s1,16
    36de:	fbc9                	bnez	a5,3670 <__divdf3+0x5e>
    36e0:	00ca9513          	slli	a0,s5,0xc
    36e4:	00c55413          	srli	s0,a0,0xc
    36e8:	014ad513          	srli	a0,s5,0x14
    36ec:	7ff57593          	andi	a1,a0,2047
    36f0:	87e6                	mv	a5,s9
    36f2:	01fada93          	srli	s5,s5,0x1f
    36f6:	c1ad                	beqz	a1,3758 <__divdf3+0x146>
    36f8:	7ff00713          	li	a4,2047
    36fc:	0ae58963          	beq	a1,a4,37ae <__divdf3+0x19c>
    3700:	01dcd793          	srli	a5,s9,0x1d
    3704:	00341513          	slli	a0,s0,0x3
    3708:	8d5d                	or	a0,a0,a5
    370a:	00800437          	lui	s0,0x800
    370e:	8c49                	or	s0,s0,a0
    3710:	003c9793          	slli	a5,s9,0x3
    3714:	c0158513          	addi	a0,a1,-1023
    3718:	4701                	li	a4,0
    371a:	002c1693          	slli	a3,s8,0x2
    371e:	8ed9                	or	a3,a3,a4
    3720:	40ab05b3          	sub	a1,s6,a0
    3724:	16fd                	addi	a3,a3,-1
    3726:	4539                	li	a0,14
    3728:	015a4633          	xor	a2,s4,s5
    372c:	0ad56a63          	bltu	a0,a3,37e0 <__divdf3+0x1ce>
    3730:	00002517          	auipc	a0,0x2
    3734:	6d850513          	addi	a0,a0,1752 # 5e08 <pow10.0+0x50>
    3738:	068a                	slli	a3,a3,0x2
    373a:	96aa                	add	a3,a3,a0
    373c:	4294                	lw	a3,0(a3)
    373e:	96aa                	add	a3,a3,a0
    3740:	8682                	jr	a3
    3742:	4b81                	li	s7,0
    3744:	4981                	li	s3,0
    3746:	4b01                	li	s6,0
    3748:	4c05                	li	s8,1
    374a:	b71d                	j	3670 <__divdf3+0x5e>
    374c:	4b81                	li	s7,0
    374e:	4981                	li	s3,0
    3750:	7ff00b13          	li	s6,2047
    3754:	4c09                	li	s8,2
    3756:	bf29                	j	3670 <__divdf3+0x5e>
    3758:	019467b3          	or	a5,s0,s9
    375c:	c7ad                	beqz	a5,37c6 <__divdf3+0x1b4>
    375e:	02040c63          	beqz	s0,3796 <__divdf3+0x184>
    3762:	8522                	mv	a0,s0
    3764:	7c8010ef          	jal	ra,4f2c <__clzsi2>
    3768:	85aa                	mv	a1,a0
    376a:	ff558693          	addi	a3,a1,-11
    376e:	47f1                	li	a5,28
    3770:	02d7c963          	blt	a5,a3,37a2 <__divdf3+0x190>
    3774:	4775                	li	a4,29
    3776:	ff858793          	addi	a5,a1,-8
    377a:	8f15                	sub	a4,a4,a3
    377c:	00f41533          	sll	a0,s0,a5
    3780:	00ecd733          	srl	a4,s9,a4
    3784:	00a76433          	or	s0,a4,a0
    3788:	00fc97b3          	sll	a5,s9,a5
    378c:	c0d00713          	li	a4,-1011
    3790:	40b70533          	sub	a0,a4,a1
    3794:	b751                	j	3718 <__divdf3+0x106>
    3796:	8566                	mv	a0,s9
    3798:	794010ef          	jal	ra,4f2c <__clzsi2>
    379c:	02050593          	addi	a1,a0,32
    37a0:	b7e9                	j	376a <__divdf3+0x158>
    37a2:	fd858513          	addi	a0,a1,-40
    37a6:	00ac9433          	sll	s0,s9,a0
    37aa:	4781                	li	a5,0
    37ac:	b7c5                	j	378c <__divdf3+0x17a>
    37ae:	01946633          	or	a2,s0,s9
    37b2:	ce19                	beqz	a2,37d0 <__divdf3+0x1be>
    37b4:	00080737          	lui	a4,0x80
    37b8:	8f61                	and	a4,a4,s0
    37ba:	7ff00513          	li	a0,2047
    37be:	ef19                	bnez	a4,37dc <__divdf3+0x1ca>
    37c0:	470d                	li	a4,3
    37c2:	44c1                	li	s1,16
    37c4:	bf99                	j	371a <__divdf3+0x108>
    37c6:	4401                	li	s0,0
    37c8:	4781                	li	a5,0
    37ca:	4501                	li	a0,0
    37cc:	4705                	li	a4,1
    37ce:	b7b1                	j	371a <__divdf3+0x108>
    37d0:	4401                	li	s0,0
    37d2:	4781                	li	a5,0
    37d4:	7ff00513          	li	a0,2047
    37d8:	4709                	li	a4,2
    37da:	b781                	j	371a <__divdf3+0x108>
    37dc:	470d                	li	a4,3
    37de:	bf35                	j	371a <__divdf3+0x108>
    37e0:	01746663          	bltu	s0,s7,37ec <__divdf3+0x1da>
    37e4:	268b9463          	bne	s7,s0,3a4c <__divdf3+0x43a>
    37e8:	26f9e263          	bltu	s3,a5,3a4c <__divdf3+0x43a>
    37ec:	01fb9513          	slli	a0,s7,0x1f
    37f0:	0019d713          	srli	a4,s3,0x1
    37f4:	01f99693          	slli	a3,s3,0x1f
    37f8:	001bdb93          	srli	s7,s7,0x1
    37fc:	00e569b3          	or	s3,a0,a4
    3800:	00841513          	slli	a0,s0,0x8
    3804:	0187d813          	srli	a6,a5,0x18
    3808:	00a86833          	or	a6,a6,a0
    380c:	8141                	srli	a0,a0,0x10
    380e:	02abde33          	divu	t3,s7,a0
    3812:	01081f13          	slli	t5,a6,0x10
    3816:	010f5f13          	srli	t5,t5,0x10
    381a:	00879893          	slli	a7,a5,0x8
    381e:	0109d793          	srli	a5,s3,0x10
    3822:	02abfbb3          	remu	s7,s7,a0
    3826:	8372                	mv	t1,t3
    3828:	03cf0733          	mul	a4,t5,t3
    382c:	0bc2                	slli	s7,s7,0x10
    382e:	0177e7b3          	or	a5,a5,s7
    3832:	00e7fc63          	bgeu	a5,a4,384a <__divdf3+0x238>
    3836:	97c2                	add	a5,a5,a6
    3838:	fffe0313          	addi	t1,t3,-1
    383c:	0107e763          	bltu	a5,a6,384a <__divdf3+0x238>
    3840:	00e7f563          	bgeu	a5,a4,384a <__divdf3+0x238>
    3844:	ffee0313          	addi	t1,t3,-2
    3848:	97c2                	add	a5,a5,a6
    384a:	8f99                	sub	a5,a5,a4
    384c:	02a7deb3          	divu	t4,a5,a0
    3850:	01099713          	slli	a4,s3,0x10
    3854:	8341                	srli	a4,a4,0x10
    3856:	02a7f7b3          	remu	a5,a5,a0
    385a:	89f6                	mv	s3,t4
    385c:	03df0e33          	mul	t3,t5,t4
    3860:	07c2                	slli	a5,a5,0x10
    3862:	8f5d                	or	a4,a4,a5
    3864:	01c77c63          	bgeu	a4,t3,387c <__divdf3+0x26a>
    3868:	9742                	add	a4,a4,a6
    386a:	fffe8993          	addi	s3,t4,-1
    386e:	01076763          	bltu	a4,a6,387c <__divdf3+0x26a>
    3872:	01c77563          	bgeu	a4,t3,387c <__divdf3+0x26a>
    3876:	ffee8993          	addi	s3,t4,-2
    387a:	9742                	add	a4,a4,a6
    387c:	0342                	slli	t1,t1,0x10
    387e:	013369b3          	or	s3,t1,s3
    3882:	6341                	lui	t1,0x10
    3884:	fff30e93          	addi	t4,t1,-1 # ffff <_global_impure_ptr+0x9fe7>
    3888:	0109d293          	srli	t0,s3,0x10
    388c:	0108df93          	srli	t6,a7,0x10
    3890:	41c70733          	sub	a4,a4,t3
    3894:	01d9fe33          	and	t3,s3,t4
    3898:	01d8feb3          	and	t4,a7,t4
    389c:	03de07b3          	mul	a5,t3,t4
    38a0:	03d28433          	mul	s0,t0,t4
    38a4:	03cf8e33          	mul	t3,t6,t3
    38a8:	008e03b3          	add	t2,t3,s0
    38ac:	0107de13          	srli	t3,a5,0x10
    38b0:	9e1e                	add	t3,t3,t2
    38b2:	03f282b3          	mul	t0,t0,t6
    38b6:	008e7363          	bgeu	t3,s0,38bc <__divdf3+0x2aa>
    38ba:	929a                	add	t0,t0,t1
    38bc:	63c1                	lui	t2,0x10
    38be:	010e5313          	srli	t1,t3,0x10
    38c2:	13fd                	addi	t2,t2,-1
    38c4:	929a                	add	t0,t0,t1
    38c6:	007e7333          	and	t1,t3,t2
    38ca:	0342                	slli	t1,t1,0x10
    38cc:	0077f7b3          	and	a5,a5,t2
    38d0:	933e                	add	t1,t1,a5
    38d2:	00576763          	bltu	a4,t0,38e0 <__divdf3+0x2ce>
    38d6:	844e                	mv	s0,s3
    38d8:	02571e63          	bne	a4,t0,3914 <__divdf3+0x302>
    38dc:	0266fc63          	bgeu	a3,t1,3914 <__divdf3+0x302>
    38e0:	96c6                	add	a3,a3,a7
    38e2:	0116b7b3          	sltu	a5,a3,a7
    38e6:	97c2                	add	a5,a5,a6
    38e8:	973e                	add	a4,a4,a5
    38ea:	fff98413          	addi	s0,s3,-1
    38ee:	00e86663          	bltu	a6,a4,38fa <__divdf3+0x2e8>
    38f2:	02e81163          	bne	a6,a4,3914 <__divdf3+0x302>
    38f6:	0116ef63          	bltu	a3,a7,3914 <__divdf3+0x302>
    38fa:	00576663          	bltu	a4,t0,3906 <__divdf3+0x2f4>
    38fe:	00e29b63          	bne	t0,a4,3914 <__divdf3+0x302>
    3902:	0066f963          	bgeu	a3,t1,3914 <__divdf3+0x302>
    3906:	96c6                	add	a3,a3,a7
    3908:	0116b7b3          	sltu	a5,a3,a7
    390c:	97c2                	add	a5,a5,a6
    390e:	ffe98413          	addi	s0,s3,-2
    3912:	973e                	add	a4,a4,a5
    3914:	40668333          	sub	t1,a3,t1
    3918:	40570733          	sub	a4,a4,t0
    391c:	0066b6b3          	sltu	a3,a3,t1
    3920:	8f15                	sub	a4,a4,a3
    3922:	57fd                	li	a5,-1
    3924:	0ee80763          	beq	a6,a4,3a12 <__divdf3+0x400>
    3928:	02a752b3          	divu	t0,a4,a0
    392c:	01035793          	srli	a5,t1,0x10
    3930:	02a77733          	remu	a4,a4,a0
    3934:	8696                	mv	a3,t0
    3936:	025f0e33          	mul	t3,t5,t0
    393a:	0742                	slli	a4,a4,0x10
    393c:	8f5d                	or	a4,a4,a5
    393e:	01c77c63          	bgeu	a4,t3,3956 <__divdf3+0x344>
    3942:	9742                	add	a4,a4,a6
    3944:	fff28693          	addi	a3,t0,-1
    3948:	01076763          	bltu	a4,a6,3956 <__divdf3+0x344>
    394c:	01c77563          	bgeu	a4,t3,3956 <__divdf3+0x344>
    3950:	ffe28693          	addi	a3,t0,-2
    3954:	9742                	add	a4,a4,a6
    3956:	41c70733          	sub	a4,a4,t3
    395a:	02a75e33          	divu	t3,a4,a0
    395e:	01031793          	slli	a5,t1,0x10
    3962:	83c1                	srli	a5,a5,0x10
    3964:	02a77733          	remu	a4,a4,a0
    3968:	03cf0f33          	mul	t5,t5,t3
    396c:	0742                	slli	a4,a4,0x10
    396e:	8f5d                	or	a4,a4,a5
    3970:	87f2                	mv	a5,t3
    3972:	01e77c63          	bgeu	a4,t5,398a <__divdf3+0x378>
    3976:	9742                	add	a4,a4,a6
    3978:	fffe0793          	addi	a5,t3,-1
    397c:	01076763          	bltu	a4,a6,398a <__divdf3+0x378>
    3980:	01e77563          	bgeu	a4,t5,398a <__divdf3+0x378>
    3984:	ffee0793          	addi	a5,t3,-2
    3988:	9742                	add	a4,a4,a6
    398a:	06c2                	slli	a3,a3,0x10
    398c:	8edd                	or	a3,a3,a5
    398e:	01069793          	slli	a5,a3,0x10
    3992:	83c1                	srli	a5,a5,0x10
    3994:	0106d313          	srli	t1,a3,0x10
    3998:	026f8e33          	mul	t3,t6,t1
    399c:	41e70733          	sub	a4,a4,t5
    39a0:	02ff8fb3          	mul	t6,t6,a5
    39a4:	02fe8f33          	mul	t5,t4,a5
    39a8:	03d30eb3          	mul	t4,t1,t4
    39ac:	010f5793          	srli	a5,t5,0x10
    39b0:	9ff6                	add	t6,t6,t4
    39b2:	97fe                	add	a5,a5,t6
    39b4:	01d7f463          	bgeu	a5,t4,39bc <__divdf3+0x3aa>
    39b8:	6541                	lui	a0,0x10
    39ba:	9e2a                	add	t3,t3,a0
    39bc:	0107d313          	srli	t1,a5,0x10
    39c0:	9372                	add	t1,t1,t3
    39c2:	6e41                	lui	t3,0x10
    39c4:	1e7d                	addi	t3,t3,-1
    39c6:	01c7f533          	and	a0,a5,t3
    39ca:	0542                	slli	a0,a0,0x10
    39cc:	01cf7f33          	and	t5,t5,t3
    39d0:	957a                	add	a0,a0,t5
    39d2:	00676663          	bltu	a4,t1,39de <__divdf3+0x3cc>
    39d6:	2c671263          	bne	a4,t1,3c9a <__divdf3+0x688>
    39da:	87b6                	mv	a5,a3
    39dc:	c91d                	beqz	a0,3a12 <__divdf3+0x400>
    39de:	9742                	add	a4,a4,a6
    39e0:	fff68793          	addi	a5,a3,-1 # 7fefffff <__kernel_stack+0x5fe40007>
    39e4:	03076163          	bltu	a4,a6,3a06 <__divdf3+0x3f4>
    39e8:	00676663          	bltu	a4,t1,39f4 <__divdf3+0x3e2>
    39ec:	2a671663          	bne	a4,t1,3c98 <__divdf3+0x686>
    39f0:	00a8fd63          	bgeu	a7,a0,3a0a <__divdf3+0x3f8>
    39f4:	ffe68793          	addi	a5,a3,-2
    39f8:	00189693          	slli	a3,a7,0x1
    39fc:	0116b8b3          	sltu	a7,a3,a7
    3a00:	9846                	add	a6,a6,a7
    3a02:	9742                	add	a4,a4,a6
    3a04:	88b6                	mv	a7,a3
    3a06:	00671463          	bne	a4,t1,3a0e <__divdf3+0x3fc>
    3a0a:	00a88463          	beq	a7,a0,3a12 <__divdf3+0x400>
    3a0e:	0017e793          	ori	a5,a5,1
    3a12:	3ff58813          	addi	a6,a1,1023
    3a16:	11005863          	blez	a6,3b26 <__divdf3+0x514>
    3a1a:	0077f713          	andi	a4,a5,7
    3a1e:	cf25                	beqz	a4,3a96 <__divdf3+0x484>
    3a20:	4709                	li	a4,2
    3a22:	0014e493          	ori	s1,s1,1
    3a26:	06e90763          	beq	s2,a4,3a94 <__divdf3+0x482>
    3a2a:	470d                	li	a4,3
    3a2c:	06e90063          	beq	s2,a4,3a8c <__divdf3+0x47a>
    3a30:	06091363          	bnez	s2,3a96 <__divdf3+0x484>
    3a34:	00f7f713          	andi	a4,a5,15
    3a38:	4691                	li	a3,4
    3a3a:	04d70e63          	beq	a4,a3,3a96 <__divdf3+0x484>
    3a3e:	00478713          	addi	a4,a5,4 # 80004 <_global_impure_ptr+0x79fec>
    3a42:	00f737b3          	sltu	a5,a4,a5
    3a46:	943e                	add	s0,s0,a5
    3a48:	87ba                	mv	a5,a4
    3a4a:	a0b1                	j	3a96 <__divdf3+0x484>
    3a4c:	15fd                	addi	a1,a1,-1
    3a4e:	4681                	li	a3,0
    3a50:	bb45                	j	3800 <__divdf3+0x1ee>
    3a52:	8652                	mv	a2,s4
    3a54:	845e                	mv	s0,s7
    3a56:	87ce                	mv	a5,s3
    3a58:	8762                	mv	a4,s8
    3a5a:	468d                	li	a3,3
    3a5c:	22d70763          	beq	a4,a3,3c8a <__divdf3+0x678>
    3a60:	4685                	li	a3,1
    3a62:	22d70163          	beq	a4,a3,3c84 <__divdf3+0x672>
    3a66:	4689                	li	a3,2
    3a68:	fad715e3          	bne	a4,a3,3a12 <__divdf3+0x400>
    3a6c:	a029                	j	3a76 <__divdf3+0x464>
    3a6e:	8656                	mv	a2,s5
    3a70:	b7ed                	j	3a5a <__divdf3+0x448>
    3a72:	0084e493          	ori	s1,s1,8
    3a76:	4501                	li	a0,0
    3a78:	4781                	li	a5,0
    3a7a:	7ff00713          	li	a4,2047
    3a7e:	a091                	j	3ac2 <__divdf3+0x4b0>
    3a80:	00080437          	lui	s0,0x80
    3a84:	4781                	li	a5,0
    3a86:	4601                	li	a2,0
    3a88:	470d                	li	a4,3
    3a8a:	bfc1                	j	3a5a <__divdf3+0x448>
    3a8c:	e609                	bnez	a2,3a96 <__divdf3+0x484>
    3a8e:	00878713          	addi	a4,a5,8
    3a92:	bf45                	j	3a42 <__divdf3+0x430>
    3a94:	fe6d                	bnez	a2,3a8e <__divdf3+0x47c>
    3a96:	01000737          	lui	a4,0x1000
    3a9a:	8f61                	and	a4,a4,s0
    3a9c:	c719                	beqz	a4,3aaa <__divdf3+0x498>
    3a9e:	ff000737          	lui	a4,0xff000
    3aa2:	177d                	addi	a4,a4,-1
    3aa4:	8c79                	and	s0,s0,a4
    3aa6:	40058813          	addi	a6,a1,1024
    3aaa:	7fe00713          	li	a4,2046
    3aae:	05074663          	blt	a4,a6,3afa <__divdf3+0x4e8>
    3ab2:	0037d713          	srli	a4,a5,0x3
    3ab6:	01d41793          	slli	a5,s0,0x1d
    3aba:	8fd9                	or	a5,a5,a4
    3abc:	00345513          	srli	a0,s0,0x3
    3ac0:	8742                	mv	a4,a6
    3ac2:	0752                	slli	a4,a4,0x14
    3ac4:	7ff006b7          	lui	a3,0x7ff00
    3ac8:	0532                	slli	a0,a0,0xc
    3aca:	8f75                	and	a4,a4,a3
    3acc:	8131                	srli	a0,a0,0xc
    3ace:	8d59                	or	a0,a0,a4
    3ad0:	067e                	slli	a2,a2,0x1f
    3ad2:	00c56733          	or	a4,a0,a2
    3ad6:	85ba                	mv	a1,a4
    3ad8:	853e                	mv	a0,a5
    3ada:	c099                	beqz	s1,3ae0 <__divdf3+0x4ce>
    3adc:	0014a073          	csrs	fflags,s1
    3ae0:	50b2                	lw	ra,44(sp)
    3ae2:	5422                	lw	s0,40(sp)
    3ae4:	5492                	lw	s1,36(sp)
    3ae6:	5902                	lw	s2,32(sp)
    3ae8:	49f2                	lw	s3,28(sp)
    3aea:	4a62                	lw	s4,24(sp)
    3aec:	4ad2                	lw	s5,20(sp)
    3aee:	4b42                	lw	s6,16(sp)
    3af0:	4bb2                	lw	s7,12(sp)
    3af2:	4c22                	lw	s8,8(sp)
    3af4:	4c92                	lw	s9,4(sp)
    3af6:	6145                	addi	sp,sp,48
    3af8:	8082                	ret
    3afa:	4789                	li	a5,2
    3afc:	02f90363          	beq	s2,a5,3b22 <__divdf3+0x510>
    3b00:	478d                	li	a5,3
    3b02:	00f90863          	beq	s2,a5,3b12 <__divdf3+0x500>
    3b06:	00091763          	bnez	s2,3b14 <__divdf3+0x502>
    3b0a:	4781                	li	a5,0
    3b0c:	7ff00713          	li	a4,2047
    3b10:	a029                	j	3b1a <__divdf3+0x508>
    3b12:	de65                	beqz	a2,3b0a <__divdf3+0x4f8>
    3b14:	57fd                	li	a5,-1
    3b16:	7fe00713          	li	a4,2046
    3b1a:	0054e493          	ori	s1,s1,5
    3b1e:	853e                	mv	a0,a5
    3b20:	b74d                	j	3ac2 <__divdf3+0x4b0>
    3b22:	f665                	bnez	a2,3b0a <__divdf3+0x4f8>
    3b24:	bfc5                	j	3b14 <__divdf3+0x502>
    3b26:	4705                	li	a4,1
    3b28:	04081463          	bnez	a6,3b70 <__divdf3+0x55e>
    3b2c:	0077f693          	andi	a3,a5,7
    3b30:	8722                	mv	a4,s0
    3b32:	ca9d                	beqz	a3,3b68 <__divdf3+0x556>
    3b34:	4689                	li	a3,2
