
E:/个人文件/论文paper/SoftwareX/CFIEE/elf_files/rijndael_main.elf:     file format elf32-littleriscv


Disassembly of section .text:

00000000 <__start>:
       0:	200c0117          	auipc	sp,0x200c0
       4:	ff810113          	addi	sp,sp,-8 # 200bfff8 <__kernel_stack>
       8:	0000a197          	auipc	gp,0xa
       c:	4e818193          	addi	gp,gp,1256 # a4f0 <__erodata>
      10:	20000217          	auipc	tp,0x20000
      14:	ff020213          	addi	tp,tp,-16 # 20000000 <__data_start__>
      18:	20001297          	auipc	t0,0x20001
      1c:	89028293          	addi	t0,t0,-1904 # 200008a8 <count.2>
      20:	404282b3          	sub	t0,t0,tp
      24:	00028b63          	beqz	t0,3a <L_loop0_done>

00000028 <L_loop0>:
      28:	0001a303          	lw	t1,0(gp)
      2c:	00622023          	sw	t1,0(tp) # 0 <__start>
      30:	0191                	addi	gp,gp,4
      32:	0211                	addi	tp,tp,4
      34:	12f1                	addi	t0,t0,-4
      36:	fe0299e3          	bnez	t0,28 <L_loop0>

0000003a <L_loop0_done>:
      3a:	20001197          	auipc	gp,0x20001
      3e:	86e18193          	addi	gp,gp,-1938 # 200008a8 <count.2>
      42:	20001217          	auipc	tp,0x20001
      46:	8a620213          	addi	tp,tp,-1882 # 200008e8 <seed.0>
      4a:	4281                	li	t0,0
      4c:	40320233          	sub	tp,tp,gp
      50:	00020863          	beqz	tp,60 <L_loop1_done>

00000054 <L_loop1>:
      54:	0051a023          	sw	t0,0(gp)
      58:	0191                	addi	gp,gp,4
      5a:	1271                	addi	tp,tp,-4
      5c:	fe021ce3          	bnez	tp,54 <L_loop1>

00000060 <L_loop1_done>:
      60:	00000197          	auipc	gp,0x0
      64:	0e018193          	addi	gp,gp,224 # 140 <trap_handler>
      68:	30519073          	csrw	mtvec,gp
      6c:	00000197          	auipc	gp,0x0
      70:	11418193          	addi	gp,gp,276 # 180 <vector_table>
      74:	04018193          	addi	gp,gp,64
      78:	30719073          	csrw	mtvt,gp
      7c:	effff7b7          	lui	a5,0xeffff
      80:	00020837          	lui	a6,0x20
      84:	0107a023          	sw	a6,0(a5) # effff000 <__kernel_stack+0xcff3f008>
      88:	48b1                	li	a7,12
      8a:	0117a223          	sw	a7,4(a5)
      8e:	00040837          	lui	a6,0x40
      92:	48b1                	li	a7,12
      94:	0107a423          	sw	a6,8(a5)
      98:	0117a623          	sw	a7,12(a5)
      9c:	00050837          	lui	a6,0x50
      a0:	48c1                	li	a7,16
      a2:	0107a823          	sw	a6,16(a5)
      a6:	0117aa23          	sw	a7,20(a5)
      aa:	400117b7          	lui	a5,0x40011
      ae:	0ff00813          	li	a6,255
      b2:	0107a023          	sw	a6,0(a5) # 40011000 <__kernel_stack+0x1ff51008>
      b6:	480d                	li	a6,3
      b8:	0107a423          	sw	a6,8(a5)
      bc:	0047a803          	lw	a6,4(a5)
      c0:	08800193          	li	gp,136
      c4:	30019073          	csrw	mstatus,gp
      c8:	6189                	lui	gp,0x2
      ca:	3001a073          	csrs	mstatus,gp
      ce:	6185                	lui	gp,0x1
      d0:	03f18193          	addi	gp,gp,63 # 103f <encrypt+0x533>
      d4:	7c119073          	csrw	mhcr,gp
      d8:	6191                	lui	gp,0x4
      da:	01b1                	addi	gp,gp,12
      dc:	7c519073          	csrw	mhint,gp

000000e0 <__to_main>:
      e0:	4a9030ef          	jal	ra,3d88 <main>

000000e4 <__exit>:
      e4:	0000100f          	fence.i
      e8:	0ff0000f          	fence
      ec:	60010237          	lui	tp,0x60010
      f0:	1261                	addi	tp,tp,-8
      f2:	0ff00193          	li	gp,255
      f6:	0192                	slli	gp,gp,0x4
      f8:	01bd                	addi	gp,gp,15
      fa:	00322023          	sw	gp,0(tp) # 60010000 <__kernel_stack+0x3ff50008>

000000fe <__fail>:
      fe:	0000100f          	fence.i
     102:	0ff0000f          	fence
     106:	60010237          	lui	tp,0x60010
     10a:	1261                	addi	tp,tp,-8
     10c:	0ee00193          	li	gp,238
     110:	0192                	slli	gp,gp,0x4
     112:	01b9                	addi	gp,gp,14
     114:	00322023          	sw	gp,0(tp) # 60010000 <__kernel_stack+0x3ff50008>
     118:	00000013          	nop
     11c:	00000013          	nop
     120:	00000013          	nop
     124:	00000013          	nop
     128:	00000013          	nop
     12c:	00000013          	nop
     130:	00000013          	nop
     134:	00000013          	nop
     138:	00000013          	nop
     13c:	00000013          	nop

00000140 <trap_handler>:
     140:	a019                	j	146 <__synchronous_exception>
     142:	0001                	nop
     144:	bf6d                	j	fe <__fail>

00000146 <__synchronous_exception>:
     146:	fed12e23          	sw	a3,-4(sp)
     14a:	fee12c23          	sw	a4,-8(sp)
     14e:	fef12a23          	sw	a5,-12(sp)
     152:	34202773          	csrr	a4,mcause
     156:	0ff77793          	andi	a5,a4,255
     15a:	836d                	srli	a4,a4,0x1b
     15c:	8b41                	andi	a4,a4,16
     15e:	973e                	add	a4,a4,a5
     160:	070a                	slli	a4,a4,0x2
     162:	00000797          	auipc	a5,0x0
     166:	01e78793          	addi	a5,a5,30 # 180 <vector_table>
     16a:	97ba                	add	a5,a5,a4
     16c:	4398                	lw	a4,0(a5)
     16e:	ffc12683          	lw	a3,-4(sp)
     172:	ff412783          	lw	a5,-12(sp)
     176:	8702                	jr	a4
     178:	00000013          	nop
     17c:	00000013          	nop

00000180 <vector_table>:
     180:	0580                	addi	s0,sp,704
     182:	0000                	unimp
     184:	0580                	addi	s0,sp,704
     186:	0000                	unimp
     188:	0580                	addi	s0,sp,704
     18a:	0000                	unimp
     18c:	0580                	addi	s0,sp,704
     18e:	0000                	unimp
     190:	0580                	addi	s0,sp,704
     192:	0000                	unimp
     194:	0580                	addi	s0,sp,704
     196:	0000                	unimp
     198:	0580                	addi	s0,sp,704
     19a:	0000                	unimp
     19c:	0580                	addi	s0,sp,704
     19e:	0000                	unimp
     1a0:	0580                	addi	s0,sp,704
     1a2:	0000                	unimp
     1a4:	0580                	addi	s0,sp,704
     1a6:	0000                	unimp
     1a8:	0580                	addi	s0,sp,704
     1aa:	0000                	unimp
     1ac:	0580                	addi	s0,sp,704
     1ae:	0000                	unimp
     1b0:	0580                	addi	s0,sp,704
     1b2:	0000                	unimp
     1b4:	0580                	addi	s0,sp,704
     1b6:	0000                	unimp
     1b8:	0580                	addi	s0,sp,704
     1ba:	0000                	unimp
     1bc:	0580                	addi	s0,sp,704
     1be:	0000                	unimp
     1c0:	0580                	addi	s0,sp,704
     1c2:	0000                	unimp
     1c4:	0580                	addi	s0,sp,704
     1c6:	0000                	unimp
     1c8:	0580                	addi	s0,sp,704
     1ca:	0000                	unimp
     1cc:	0580                	addi	s0,sp,704
     1ce:	0000                	unimp
     1d0:	0580                	addi	s0,sp,704
     1d2:	0000                	unimp
     1d4:	0580                	addi	s0,sp,704
     1d6:	0000                	unimp
     1d8:	0580                	addi	s0,sp,704
     1da:	0000                	unimp
     1dc:	0580                	addi	s0,sp,704
     1de:	0000                	unimp
     1e0:	0580                	addi	s0,sp,704
     1e2:	0000                	unimp
     1e4:	0580                	addi	s0,sp,704
     1e6:	0000                	unimp
     1e8:	0580                	addi	s0,sp,704
     1ea:	0000                	unimp
     1ec:	0580                	addi	s0,sp,704
     1ee:	0000                	unimp
     1f0:	0580                	addi	s0,sp,704
     1f2:	0000                	unimp
     1f4:	0580                	addi	s0,sp,704
     1f6:	0000                	unimp
     1f8:	0580                	addi	s0,sp,704
     1fa:	0000                	unimp
     1fc:	0580                	addi	s0,sp,704
     1fe:	0000                	unimp
     200:	0580                	addi	s0,sp,704
     202:	0000                	unimp
     204:	0580                	addi	s0,sp,704
     206:	0000                	unimp
     208:	0580                	addi	s0,sp,704
     20a:	0000                	unimp
     20c:	0580                	addi	s0,sp,704
     20e:	0000                	unimp
     210:	0580                	addi	s0,sp,704
     212:	0000                	unimp
     214:	0580                	addi	s0,sp,704
     216:	0000                	unimp
     218:	0580                	addi	s0,sp,704
     21a:	0000                	unimp
     21c:	0580                	addi	s0,sp,704
     21e:	0000                	unimp
     220:	0580                	addi	s0,sp,704
     222:	0000                	unimp
     224:	0580                	addi	s0,sp,704
     226:	0000                	unimp
     228:	0580                	addi	s0,sp,704
     22a:	0000                	unimp
     22c:	0580                	addi	s0,sp,704
     22e:	0000                	unimp
     230:	0580                	addi	s0,sp,704
     232:	0000                	unimp
     234:	0580                	addi	s0,sp,704
     236:	0000                	unimp
     238:	0580                	addi	s0,sp,704
     23a:	0000                	unimp
     23c:	0580                	addi	s0,sp,704
     23e:	0000                	unimp
     240:	0580                	addi	s0,sp,704
     242:	0000                	unimp
     244:	0580                	addi	s0,sp,704
     246:	0000                	unimp
     248:	0580                	addi	s0,sp,704
     24a:	0000                	unimp
     24c:	0580                	addi	s0,sp,704
     24e:	0000                	unimp
     250:	0580                	addi	s0,sp,704
     252:	0000                	unimp
     254:	0580                	addi	s0,sp,704
     256:	0000                	unimp
     258:	0580                	addi	s0,sp,704
     25a:	0000                	unimp
     25c:	0580                	addi	s0,sp,704
     25e:	0000                	unimp
     260:	0580                	addi	s0,sp,704
     262:	0000                	unimp
     264:	0580                	addi	s0,sp,704
     266:	0000                	unimp
     268:	0580                	addi	s0,sp,704
     26a:	0000                	unimp
     26c:	0580                	addi	s0,sp,704
     26e:	0000                	unimp
     270:	0580                	addi	s0,sp,704
     272:	0000                	unimp
     274:	0580                	addi	s0,sp,704
     276:	0000                	unimp
     278:	0580                	addi	s0,sp,704
     27a:	0000                	unimp
     27c:	0580                	addi	s0,sp,704
     27e:	0000                	unimp
     280:	0580                	addi	s0,sp,704
     282:	0000                	unimp
     284:	0580                	addi	s0,sp,704
     286:	0000                	unimp
     288:	0580                	addi	s0,sp,704
     28a:	0000                	unimp
     28c:	0580                	addi	s0,sp,704
     28e:	0000                	unimp
     290:	0580                	addi	s0,sp,704
     292:	0000                	unimp
     294:	0580                	addi	s0,sp,704
     296:	0000                	unimp
     298:	0580                	addi	s0,sp,704
     29a:	0000                	unimp
     29c:	0580                	addi	s0,sp,704
     29e:	0000                	unimp
     2a0:	0580                	addi	s0,sp,704
     2a2:	0000                	unimp
     2a4:	0580                	addi	s0,sp,704
     2a6:	0000                	unimp
     2a8:	0580                	addi	s0,sp,704
     2aa:	0000                	unimp
     2ac:	0580                	addi	s0,sp,704
     2ae:	0000                	unimp
     2b0:	0580                	addi	s0,sp,704
     2b2:	0000                	unimp
     2b4:	0580                	addi	s0,sp,704
     2b6:	0000                	unimp
     2b8:	0580                	addi	s0,sp,704
     2ba:	0000                	unimp
     2bc:	0580                	addi	s0,sp,704
     2be:	0000                	unimp
     2c0:	0580                	addi	s0,sp,704
     2c2:	0000                	unimp
     2c4:	0580                	addi	s0,sp,704
     2c6:	0000                	unimp
     2c8:	0580                	addi	s0,sp,704
     2ca:	0000                	unimp
     2cc:	0580                	addi	s0,sp,704
     2ce:	0000                	unimp
     2d0:	0580                	addi	s0,sp,704
     2d2:	0000                	unimp
     2d4:	0580                	addi	s0,sp,704
     2d6:	0000                	unimp
     2d8:	0580                	addi	s0,sp,704
     2da:	0000                	unimp
     2dc:	0580                	addi	s0,sp,704
     2de:	0000                	unimp
     2e0:	0580                	addi	s0,sp,704
     2e2:	0000                	unimp
     2e4:	0580                	addi	s0,sp,704
     2e6:	0000                	unimp
     2e8:	0580                	addi	s0,sp,704
     2ea:	0000                	unimp
     2ec:	0580                	addi	s0,sp,704
     2ee:	0000                	unimp
     2f0:	0580                	addi	s0,sp,704
     2f2:	0000                	unimp
     2f4:	0580                	addi	s0,sp,704
     2f6:	0000                	unimp
     2f8:	0580                	addi	s0,sp,704
     2fa:	0000                	unimp
     2fc:	0580                	addi	s0,sp,704
     2fe:	0000                	unimp
     300:	0580                	addi	s0,sp,704
     302:	0000                	unimp
     304:	0580                	addi	s0,sp,704
     306:	0000                	unimp
     308:	0580                	addi	s0,sp,704
     30a:	0000                	unimp
     30c:	0580                	addi	s0,sp,704
     30e:	0000                	unimp
     310:	0580                	addi	s0,sp,704
     312:	0000                	unimp
     314:	0580                	addi	s0,sp,704
     316:	0000                	unimp
     318:	0580                	addi	s0,sp,704
     31a:	0000                	unimp
     31c:	0580                	addi	s0,sp,704
     31e:	0000                	unimp
     320:	0580                	addi	s0,sp,704
     322:	0000                	unimp
     324:	0580                	addi	s0,sp,704
     326:	0000                	unimp
     328:	0580                	addi	s0,sp,704
     32a:	0000                	unimp
     32c:	0580                	addi	s0,sp,704
     32e:	0000                	unimp
     330:	0580                	addi	s0,sp,704
     332:	0000                	unimp
     334:	0580                	addi	s0,sp,704
     336:	0000                	unimp
     338:	0580                	addi	s0,sp,704
     33a:	0000                	unimp
     33c:	0580                	addi	s0,sp,704
     33e:	0000                	unimp
     340:	0580                	addi	s0,sp,704
     342:	0000                	unimp
     344:	0580                	addi	s0,sp,704
     346:	0000                	unimp
     348:	0580                	addi	s0,sp,704
     34a:	0000                	unimp
     34c:	0580                	addi	s0,sp,704
     34e:	0000                	unimp
     350:	0580                	addi	s0,sp,704
     352:	0000                	unimp
     354:	0580                	addi	s0,sp,704
     356:	0000                	unimp
     358:	0580                	addi	s0,sp,704
     35a:	0000                	unimp
     35c:	0580                	addi	s0,sp,704
     35e:	0000                	unimp
     360:	0580                	addi	s0,sp,704
     362:	0000                	unimp
     364:	0580                	addi	s0,sp,704
     366:	0000                	unimp
     368:	0580                	addi	s0,sp,704
     36a:	0000                	unimp
     36c:	0580                	addi	s0,sp,704
     36e:	0000                	unimp
     370:	0580                	addi	s0,sp,704
     372:	0000                	unimp
     374:	0580                	addi	s0,sp,704
     376:	0000                	unimp
     378:	0580                	addi	s0,sp,704
     37a:	0000                	unimp
     37c:	0580                	addi	s0,sp,704
     37e:	0000                	unimp
     380:	0580                	addi	s0,sp,704
     382:	0000                	unimp
     384:	0580                	addi	s0,sp,704
     386:	0000                	unimp
     388:	0580                	addi	s0,sp,704
     38a:	0000                	unimp
     38c:	0580                	addi	s0,sp,704
     38e:	0000                	unimp
     390:	0580                	addi	s0,sp,704
     392:	0000                	unimp
     394:	0580                	addi	s0,sp,704
     396:	0000                	unimp
     398:	0580                	addi	s0,sp,704
     39a:	0000                	unimp
     39c:	0580                	addi	s0,sp,704
     39e:	0000                	unimp
     3a0:	0580                	addi	s0,sp,704
     3a2:	0000                	unimp
     3a4:	0580                	addi	s0,sp,704
     3a6:	0000                	unimp
     3a8:	0580                	addi	s0,sp,704
     3aa:	0000                	unimp
     3ac:	0580                	addi	s0,sp,704
     3ae:	0000                	unimp
     3b0:	0580                	addi	s0,sp,704
     3b2:	0000                	unimp
     3b4:	0580                	addi	s0,sp,704
     3b6:	0000                	unimp
     3b8:	0580                	addi	s0,sp,704
     3ba:	0000                	unimp
     3bc:	0580                	addi	s0,sp,704
     3be:	0000                	unimp
     3c0:	0580                	addi	s0,sp,704
     3c2:	0000                	unimp
     3c4:	0580                	addi	s0,sp,704
     3c6:	0000                	unimp
     3c8:	0580                	addi	s0,sp,704
     3ca:	0000                	unimp
     3cc:	0580                	addi	s0,sp,704
     3ce:	0000                	unimp
     3d0:	0580                	addi	s0,sp,704
     3d2:	0000                	unimp
     3d4:	0580                	addi	s0,sp,704
     3d6:	0000                	unimp
     3d8:	0580                	addi	s0,sp,704
     3da:	0000                	unimp
     3dc:	0580                	addi	s0,sp,704
     3de:	0000                	unimp
     3e0:	0580                	addi	s0,sp,704
     3e2:	0000                	unimp
     3e4:	0580                	addi	s0,sp,704
     3e6:	0000                	unimp
     3e8:	0580                	addi	s0,sp,704
     3ea:	0000                	unimp
     3ec:	0580                	addi	s0,sp,704
     3ee:	0000                	unimp
     3f0:	0580                	addi	s0,sp,704
     3f2:	0000                	unimp
     3f4:	0580                	addi	s0,sp,704
     3f6:	0000                	unimp
     3f8:	0580                	addi	s0,sp,704
     3fa:	0000                	unimp
     3fc:	0580                	addi	s0,sp,704
     3fe:	0000                	unimp
     400:	0580                	addi	s0,sp,704
     402:	0000                	unimp
     404:	0580                	addi	s0,sp,704
     406:	0000                	unimp
     408:	0580                	addi	s0,sp,704
     40a:	0000                	unimp
     40c:	0580                	addi	s0,sp,704
     40e:	0000                	unimp
     410:	0580                	addi	s0,sp,704
     412:	0000                	unimp
     414:	0580                	addi	s0,sp,704
     416:	0000                	unimp
     418:	0580                	addi	s0,sp,704
     41a:	0000                	unimp
     41c:	0580                	addi	s0,sp,704
     41e:	0000                	unimp
     420:	0580                	addi	s0,sp,704
     422:	0000                	unimp
     424:	0580                	addi	s0,sp,704
     426:	0000                	unimp
     428:	0580                	addi	s0,sp,704
     42a:	0000                	unimp
     42c:	0580                	addi	s0,sp,704
     42e:	0000                	unimp
     430:	0580                	addi	s0,sp,704
     432:	0000                	unimp
     434:	0580                	addi	s0,sp,704
     436:	0000                	unimp
     438:	0580                	addi	s0,sp,704
     43a:	0000                	unimp
     43c:	0580                	addi	s0,sp,704
     43e:	0000                	unimp
     440:	0580                	addi	s0,sp,704
     442:	0000                	unimp
     444:	0580                	addi	s0,sp,704
     446:	0000                	unimp
     448:	0580                	addi	s0,sp,704
     44a:	0000                	unimp
     44c:	0580                	addi	s0,sp,704
     44e:	0000                	unimp
     450:	0580                	addi	s0,sp,704
     452:	0000                	unimp
     454:	0580                	addi	s0,sp,704
     456:	0000                	unimp
     458:	0580                	addi	s0,sp,704
     45a:	0000                	unimp
     45c:	0580                	addi	s0,sp,704
     45e:	0000                	unimp
     460:	0580                	addi	s0,sp,704
     462:	0000                	unimp
     464:	0580                	addi	s0,sp,704
     466:	0000                	unimp
     468:	0580                	addi	s0,sp,704
     46a:	0000                	unimp
     46c:	0580                	addi	s0,sp,704
     46e:	0000                	unimp
     470:	0580                	addi	s0,sp,704
     472:	0000                	unimp
     474:	0580                	addi	s0,sp,704
     476:	0000                	unimp
     478:	0580                	addi	s0,sp,704
     47a:	0000                	unimp
     47c:	0580                	addi	s0,sp,704
     47e:	0000                	unimp
     480:	0580                	addi	s0,sp,704
     482:	0000                	unimp
     484:	0580                	addi	s0,sp,704
     486:	0000                	unimp
     488:	0580                	addi	s0,sp,704
     48a:	0000                	unimp
     48c:	0580                	addi	s0,sp,704
     48e:	0000                	unimp
     490:	0580                	addi	s0,sp,704
     492:	0000                	unimp
     494:	0580                	addi	s0,sp,704
     496:	0000                	unimp
     498:	0580                	addi	s0,sp,704
     49a:	0000                	unimp
     49c:	0580                	addi	s0,sp,704
     49e:	0000                	unimp
     4a0:	0580                	addi	s0,sp,704
     4a2:	0000                	unimp
     4a4:	0580                	addi	s0,sp,704
     4a6:	0000                	unimp
     4a8:	0580                	addi	s0,sp,704
     4aa:	0000                	unimp
     4ac:	0580                	addi	s0,sp,704
     4ae:	0000                	unimp
     4b0:	0580                	addi	s0,sp,704
     4b2:	0000                	unimp
     4b4:	0580                	addi	s0,sp,704
     4b6:	0000                	unimp
     4b8:	0580                	addi	s0,sp,704
     4ba:	0000                	unimp
     4bc:	0580                	addi	s0,sp,704
     4be:	0000                	unimp
     4c0:	0580                	addi	s0,sp,704
     4c2:	0000                	unimp
     4c4:	0580                	addi	s0,sp,704
     4c6:	0000                	unimp
     4c8:	0580                	addi	s0,sp,704
     4ca:	0000                	unimp
     4cc:	0580                	addi	s0,sp,704
     4ce:	0000                	unimp
     4d0:	0580                	addi	s0,sp,704
     4d2:	0000                	unimp
     4d4:	0580                	addi	s0,sp,704
     4d6:	0000                	unimp
     4d8:	0580                	addi	s0,sp,704
     4da:	0000                	unimp
     4dc:	0580                	addi	s0,sp,704
     4de:	0000                	unimp
     4e0:	0580                	addi	s0,sp,704
     4e2:	0000                	unimp
     4e4:	0580                	addi	s0,sp,704
     4e6:	0000                	unimp
     4e8:	0580                	addi	s0,sp,704
     4ea:	0000                	unimp
     4ec:	0580                	addi	s0,sp,704
     4ee:	0000                	unimp
     4f0:	0580                	addi	s0,sp,704
     4f2:	0000                	unimp
     4f4:	0580                	addi	s0,sp,704
     4f6:	0000                	unimp
     4f8:	0580                	addi	s0,sp,704
     4fa:	0000                	unimp
     4fc:	0580                	addi	s0,sp,704
     4fe:	0000                	unimp
     500:	0580                	addi	s0,sp,704
     502:	0000                	unimp
     504:	0580                	addi	s0,sp,704
     506:	0000                	unimp
     508:	0580                	addi	s0,sp,704
     50a:	0000                	unimp
     50c:	0580                	addi	s0,sp,704
     50e:	0000                	unimp
     510:	0580                	addi	s0,sp,704
     512:	0000                	unimp
     514:	0580                	addi	s0,sp,704
     516:	0000                	unimp
     518:	0580                	addi	s0,sp,704
     51a:	0000                	unimp
     51c:	0580                	addi	s0,sp,704
     51e:	0000                	unimp
     520:	0580                	addi	s0,sp,704
     522:	0000                	unimp
     524:	0580                	addi	s0,sp,704
     526:	0000                	unimp
     528:	0580                	addi	s0,sp,704
     52a:	0000                	unimp
     52c:	0580                	addi	s0,sp,704
     52e:	0000                	unimp
     530:	0580                	addi	s0,sp,704
     532:	0000                	unimp
     534:	0580                	addi	s0,sp,704
     536:	0000                	unimp
     538:	0580                	addi	s0,sp,704
     53a:	0000                	unimp
     53c:	0580                	addi	s0,sp,704
     53e:	0000                	unimp
     540:	0580                	addi	s0,sp,704
     542:	0000                	unimp
     544:	0580                	addi	s0,sp,704
     546:	0000                	unimp
     548:	0580                	addi	s0,sp,704
     54a:	0000                	unimp
     54c:	0580                	addi	s0,sp,704
     54e:	0000                	unimp
     550:	0580                	addi	s0,sp,704
     552:	0000                	unimp
     554:	0580                	addi	s0,sp,704
     556:	0000                	unimp
     558:	0580                	addi	s0,sp,704
     55a:	0000                	unimp
     55c:	0580                	addi	s0,sp,704
     55e:	0000                	unimp
     560:	0580                	addi	s0,sp,704
     562:	0000                	unimp
     564:	0580                	addi	s0,sp,704
     566:	0000                	unimp
     568:	0580                	addi	s0,sp,704
     56a:	0000                	unimp
     56c:	0580                	addi	s0,sp,704
     56e:	0000                	unimp
     570:	0580                	addi	s0,sp,704
     572:	0000                	unimp
     574:	0580                	addi	s0,sp,704
     576:	0000                	unimp
     578:	0580                	addi	s0,sp,704
     57a:	0000                	unimp
     57c:	0580                	addi	s0,sp,704
	...

00000580 <__dummy>:
     580:	bebd                	j	fe <__fail>
	...

000005b4 <set_key>:
     5b4:	0075f793          	andi	a5,a1,7
     5b8:	28079663          	bnez	a5,844 <set_key+0x290>
     5bc:	47bd                	li	a5,15
     5be:	26b7fd63          	bgeu	a5,a1,838 <set_key+0x284>
     5c2:	02000793          	li	a5,32
     5c6:	2086c303          	lbu	t1,520(a3)
     5ca:	26b7ef63          	bltu	a5,a1,848 <set_key+0x294>
     5ce:	8a0d                	andi	a2,a2,3
     5d0:	26060c63          	beqz	a2,848 <set_key+0x294>
     5d4:	8189                	srli	a1,a1,0x2
     5d6:	ffc37313          	andi	t1,t1,-4
     5da:	00c36333          	or	t1,t1,a2
     5de:	00658793          	addi	a5,a1,6
     5e2:	c2dc                	sw	a5,4(a3)
     5e4:	20668423          	sb	t1,520(a3)
     5e8:	c28c                	sw	a1,0(a3)
     5ea:	00052f83          	lw	t6,0(a0)
     5ee:	00758e13          	addi	t3,a1,7
     5f2:	0e0a                	slli	t3,t3,0x2
     5f4:	01f6a423          	sw	t6,8(a3)
     5f8:	00452803          	lw	a6,4(a0)
     5fc:	1101                	addi	sp,sp,-32
     5fe:	40be0e33          	sub	t3,t3,a1
     602:	0106a623          	sw	a6,12(a3)
     606:	00852883          	lw	a7,8(a0)
     60a:	00868713          	addi	a4,a3,8
     60e:	0e0a                	slli	t3,t3,0x2
     610:	0116a823          	sw	a7,16(a3)
     614:	4550                	lw	a2,12(a0)
     616:	ce22                	sw	s0,28(sp)
     618:	cc26                	sw	s1,24(sp)
     61a:	ca4a                	sw	s2,20(sp)
     61c:	c84e                	sw	s3,16(sp)
     61e:	c652                	sw	s4,12(sp)
     620:	c456                	sw	s5,8(sp)
     622:	4799                	li	a5,6
     624:	cad0                	sw	a2,20(a3)
     626:	9e3a                	add	t3,t3,a4
     628:	22f58663          	beq	a1,a5,854 <set_key+0x2a0>
     62c:	47a1                	li	a5,8
     62e:	2ef58663          	beq	a1,a5,91a <set_key+0x366>
     632:	4791                	li	a5,4
     634:	42f58c63          	beq	a1,a5,a6c <set_key+0x4b8>
     638:	00337313          	andi	t1,t1,3
     63c:	4705                	li	a4,1
     63e:	4505                	li	a0,1
     640:	1ee30463          	beq	t1,a4,828 <set_key+0x274>
     644:	42d0                	lw	a2,4(a3)
     646:	468c                	lw	a1,8(a3)
     648:	10868793          	addi	a5,a3,264
     64c:	0612                	slli	a2,a2,0x4
     64e:	97b2                	add	a5,a5,a2
     650:	c38c                	sw	a1,0(a5)
     652:	46c8                	lw	a0,12(a3)
     654:	ff078613          	addi	a2,a5,-16
     658:	01868593          	addi	a1,a3,24
     65c:	c3c8                	sw	a0,4(a5)
     65e:	4a88                	lw	a0,16(a3)
     660:	c788                	sw	a0,8(a5)
     662:	4ac8                	lw	a0,20(a3)
     664:	c7c8                	sw	a0,12(a5)
     666:	42dc                	lw	a5,4(a3)
     668:	1af77763          	bgeu	a4,a5,816 <set_key+0x262>
     66c:	67a5                	lui	a5,0x9
     66e:	4505                	li	a0,1
     670:	a6078793          	addi	a5,a5,-1440 # 8a60 <rcon_tab>
     674:	4198                	lw	a4,0(a1)
     676:	05c1                	addi	a1,a1,16
     678:	1641                	addi	a2,a2,-16
     67a:	01875313          	srli	t1,a4,0x18
     67e:	00675893          	srli	a7,a4,0x6
     682:	030a                	slli	t1,t1,0x2
     684:	933e                	add	t1,t1,a5
     686:	0ff77813          	andi	a6,a4,255
     68a:	3fc8f893          	andi	a7,a7,1020
     68e:	8339                	srli	a4,a4,0xe
     690:	47432e03          	lw	t3,1140(t1)
     694:	98be                	add	a7,a7,a5
     696:	080a                	slli	a6,a6,0x2
     698:	3fc77713          	andi	a4,a4,1020
     69c:	4748a303          	lw	t1,1140(a7)
     6a0:	983e                	add	a6,a6,a5
     6a2:	973e                	add	a4,a4,a5
     6a4:	47472883          	lw	a7,1140(a4)
     6a8:	47482e83          	lw	t4,1140(a6) # 50474 <_global_impure_ptr+0x45eec>
     6ac:	008e5713          	srli	a4,t3,0x8
     6b0:	0e62                	slli	t3,t3,0x18
     6b2:	00831813          	slli	a6,t1,0x8
     6b6:	01c76733          	or	a4,a4,t3
     6ba:	01835313          	srli	t1,t1,0x18
     6be:	00686333          	or	t1,a6,t1
     6c2:	01d74733          	xor	a4,a4,t4
     6c6:	01089813          	slli	a6,a7,0x10
     6ca:	0108d893          	srli	a7,a7,0x10
     6ce:	011868b3          	or	a7,a6,a7
     6d2:	00674733          	xor	a4,a4,t1
     6d6:	01174733          	xor	a4,a4,a7
     6da:	ca18                	sw	a4,16(a2)
     6dc:	ff45a703          	lw	a4,-12(a1)
     6e0:	0505                	addi	a0,a0,1
     6e2:	01875313          	srli	t1,a4,0x18
     6e6:	00675893          	srli	a7,a4,0x6
     6ea:	030a                	slli	t1,t1,0x2
     6ec:	933e                	add	t1,t1,a5
     6ee:	0ff77813          	andi	a6,a4,255
     6f2:	3fc8f893          	andi	a7,a7,1020
     6f6:	8339                	srli	a4,a4,0xe
     6f8:	47432e03          	lw	t3,1140(t1)
     6fc:	98be                	add	a7,a7,a5
     6fe:	080a                	slli	a6,a6,0x2
     700:	3fc77713          	andi	a4,a4,1020
     704:	4748a303          	lw	t1,1140(a7)
     708:	983e                	add	a6,a6,a5
     70a:	973e                	add	a4,a4,a5
     70c:	47472883          	lw	a7,1140(a4)
     710:	47482e83          	lw	t4,1140(a6)
     714:	008e5713          	srli	a4,t3,0x8
     718:	0e62                	slli	t3,t3,0x18
     71a:	00831813          	slli	a6,t1,0x8
     71e:	01c76733          	or	a4,a4,t3
     722:	01835313          	srli	t1,t1,0x18
     726:	00686333          	or	t1,a6,t1
     72a:	01d74733          	xor	a4,a4,t4
     72e:	01089813          	slli	a6,a7,0x10
     732:	0108d893          	srli	a7,a7,0x10
     736:	011868b3          	or	a7,a6,a7
     73a:	00674733          	xor	a4,a4,t1
     73e:	01174733          	xor	a4,a4,a7
     742:	ca58                	sw	a4,20(a2)
     744:	ff85a703          	lw	a4,-8(a1)
     748:	01875313          	srli	t1,a4,0x18
     74c:	00675893          	srli	a7,a4,0x6
     750:	030a                	slli	t1,t1,0x2
     752:	933e                	add	t1,t1,a5
     754:	0ff77813          	andi	a6,a4,255
     758:	3fc8f893          	andi	a7,a7,1020
     75c:	8339                	srli	a4,a4,0xe
     75e:	47432e03          	lw	t3,1140(t1)
     762:	98be                	add	a7,a7,a5
     764:	080a                	slli	a6,a6,0x2
     766:	3fc77713          	andi	a4,a4,1020
     76a:	4748a303          	lw	t1,1140(a7)
     76e:	983e                	add	a6,a6,a5
     770:	973e                	add	a4,a4,a5
     772:	47472883          	lw	a7,1140(a4)
     776:	47482e83          	lw	t4,1140(a6)
     77a:	008e5713          	srli	a4,t3,0x8
     77e:	0e62                	slli	t3,t3,0x18
     780:	00831813          	slli	a6,t1,0x8
     784:	01c76733          	or	a4,a4,t3
     788:	01835313          	srli	t1,t1,0x18
     78c:	00686333          	or	t1,a6,t1
     790:	01d74733          	xor	a4,a4,t4
     794:	01089813          	slli	a6,a7,0x10
     798:	0108d893          	srli	a7,a7,0x10
     79c:	011868b3          	or	a7,a6,a7
     7a0:	00674733          	xor	a4,a4,t1
     7a4:	01174733          	xor	a4,a4,a7
     7a8:	ce18                	sw	a4,24(a2)
     7aa:	ffc5a703          	lw	a4,-4(a1)
     7ae:	01875313          	srli	t1,a4,0x18
     7b2:	00675893          	srli	a7,a4,0x6
     7b6:	030a                	slli	t1,t1,0x2
     7b8:	933e                	add	t1,t1,a5
     7ba:	0ff77813          	andi	a6,a4,255
     7be:	3fc8f893          	andi	a7,a7,1020
     7c2:	8339                	srli	a4,a4,0xe
     7c4:	47432e03          	lw	t3,1140(t1)
     7c8:	98be                	add	a7,a7,a5
     7ca:	080a                	slli	a6,a6,0x2
     7cc:	3fc77713          	andi	a4,a4,1020
     7d0:	4748a303          	lw	t1,1140(a7)
     7d4:	983e                	add	a6,a6,a5
     7d6:	973e                	add	a4,a4,a5
     7d8:	47472883          	lw	a7,1140(a4)
     7dc:	47482e83          	lw	t4,1140(a6)
     7e0:	008e5713          	srli	a4,t3,0x8
     7e4:	0e62                	slli	t3,t3,0x18
     7e6:	00831813          	slli	a6,t1,0x8
     7ea:	01c76733          	or	a4,a4,t3
     7ee:	01835313          	srli	t1,t1,0x18
     7f2:	00686333          	or	t1,a6,t1
     7f6:	01d74733          	xor	a4,a4,t4
     7fa:	01089813          	slli	a6,a7,0x10
     7fe:	0108d893          	srli	a7,a7,0x10
     802:	00674733          	xor	a4,a4,t1
     806:	011868b3          	or	a7,a6,a7
     80a:	01174733          	xor	a4,a4,a7
     80e:	ce58                	sw	a4,28(a2)
     810:	42d8                	lw	a4,4(a3)
     812:	e6e561e3          	bltu	a0,a4,674 <set_key+0xc0>
     816:	419c                	lw	a5,0(a1)
     818:	4505                	li	a0,1
     81a:	c21c                	sw	a5,0(a2)
     81c:	41dc                	lw	a5,4(a1)
     81e:	c25c                	sw	a5,4(a2)
     820:	459c                	lw	a5,8(a1)
     822:	c61c                	sw	a5,8(a2)
     824:	45dc                	lw	a5,12(a1)
     826:	c65c                	sw	a5,12(a2)
     828:	4472                	lw	s0,28(sp)
     82a:	44e2                	lw	s1,24(sp)
     82c:	4952                	lw	s2,20(sp)
     82e:	49c2                	lw	s3,16(sp)
     830:	4a32                	lw	s4,12(sp)
     832:	4aa2                	lw	s5,8(sp)
     834:	6105                	addi	sp,sp,32
     836:	8082                	ret
     838:	e591                	bnez	a1,844 <set_key+0x290>
     83a:	4288                	lw	a0,0(a3)
     83c:	050a                	slli	a0,a0,0x2
     83e:	0542                	slli	a0,a0,0x10
     840:	8541                	srai	a0,a0,0x10
     842:	8082                	ret
     844:	2086c303          	lbu	t1,520(a3)
     848:	ffc37313          	andi	t1,t1,-4
     84c:	20668423          	sb	t1,520(a3)
     850:	4501                	li	a0,0
     852:	8082                	ret
     854:	4900                	lw	s0,16(a0)
     856:	67a5                	lui	a5,0x9
     858:	a6078793          	addi	a5,a5,-1440 # 8a60 <rcon_tab>
     85c:	ce80                	sw	s0,24(a3)
     85e:	01452e83          	lw	t4,20(a0)
     862:	00478493          	addi	s1,a5,4
     866:	4905                	li	s2,1
     868:	01d6ae23          	sw	t4,28(a3)
     86c:	a829                	j	886 <set_key+0x2d2>
     86e:	01472e83          	lw	t4,20(a4)
     872:	00472803          	lw	a6,4(a4)
     876:	00872883          	lw	a7,8(a4)
     87a:	4750                	lw	a2,12(a4)
     87c:	4b00                	lw	s0,16(a4)
     87e:	0004a903          	lw	s2,0(s1)
     882:	8fae                	mv	t6,a1
     884:	0491                	addi	s1,s1,4
     886:	018ed593          	srli	a1,t4,0x18
     88a:	0ffef393          	andi	t2,t4,255
     88e:	058a                	slli	a1,a1,0x2
     890:	006edf13          	srli	t5,t4,0x6
     894:	00eed293          	srli	t0,t4,0xe
     898:	95be                	add	a1,a1,a5
     89a:	038a                	slli	t2,t2,0x2
     89c:	0745a983          	lw	s3,116(a1)
     8a0:	3fcf7f13          	andi	t5,t5,1020
     8a4:	93be                	add	t2,t2,a5
     8a6:	3fc2f293          	andi	t0,t0,1020
     8aa:	0743a383          	lw	t2,116(t2)
     8ae:	9f3e                	add	t5,t5,a5
     8b0:	92be                	add	t0,t0,a5
     8b2:	0742a283          	lw	t0,116(t0)
     8b6:	074f2f03          	lw	t5,116(t5)
     8ba:	01099513          	slli	a0,s3,0x10
     8be:	0109d993          	srli	s3,s3,0x10
     8c2:	0083d593          	srli	a1,t2,0x8
     8c6:	01356533          	or	a0,a0,s3
     8ca:	03e2                	slli	t2,t2,0x18
     8cc:	01e54533          	xor	a0,a0,t5
     8d0:	0075e5b3          	or	a1,a1,t2
     8d4:	00829f13          	slli	t5,t0,0x8
     8d8:	0182d293          	srli	t0,t0,0x18
     8dc:	8da9                	xor	a1,a1,a0
     8de:	005f62b3          	or	t0,t5,t0
     8e2:	0055c5b3          	xor	a1,a1,t0
     8e6:	01f5c5b3          	xor	a1,a1,t6
     8ea:	0125c5b3          	xor	a1,a1,s2
     8ee:	0105c833          	xor	a6,a1,a6
     8f2:	011848b3          	xor	a7,a6,a7
     8f6:	00c8c633          	xor	a2,a7,a2
     8fa:	8c31                	xor	s0,s0,a2
     8fc:	01d44eb3          	xor	t4,s0,t4
     900:	cf0c                	sw	a1,24(a4)
     902:	01072e23          	sw	a6,28(a4)
     906:	03172023          	sw	a7,32(a4)
     90a:	d350                	sw	a2,36(a4)
     90c:	d700                	sw	s0,40(a4)
     90e:	03d72623          	sw	t4,44(a4)
     912:	0761                	addi	a4,a4,24
     914:	f5c76de3          	bltu	a4,t3,86e <set_key+0x2ba>
     918:	b305                	j	638 <set_key+0x84>
     91a:	4904                	lw	s1,16(a0)
     91c:	67a5                	lui	a5,0x9
     91e:	a6078793          	addi	a5,a5,-1440 # 8a60 <rcon_tab>
     922:	ce84                	sw	s1,24(a3)
     924:	01452383          	lw	t2,20(a0)
     928:	00478413          	addi	s0,a5,4
     92c:	4985                	li	s3,1
     92e:	0076ae23          	sw	t2,28(a3)
     932:	01852283          	lw	t0,24(a0)
     936:	0256a023          	sw	t0,32(a3)
     93a:	01c52f03          	lw	t5,28(a0)
     93e:	03e6a223          	sw	t5,36(a3)
     942:	a00d                	j	964 <set_key+0x3b0>
     944:	01c72f03          	lw	t5,28(a4)
     948:	00472803          	lw	a6,4(a4)
     94c:	00872883          	lw	a7,8(a4)
     950:	4750                	lw	a2,12(a4)
     952:	4b04                	lw	s1,16(a4)
     954:	01472383          	lw	t2,20(a4)
     958:	01872283          	lw	t0,24(a4)
     95c:	00042983          	lw	s3,0(s0)
     960:	8fae                	mv	t6,a1
     962:	0411                	addi	s0,s0,4
     964:	018f5e93          	srli	t4,t5,0x18
     968:	0fff7593          	andi	a1,t5,255
     96c:	0e8a                	slli	t4,t4,0x2
     96e:	006f5513          	srli	a0,t5,0x6
     972:	00ef5913          	srli	s2,t5,0xe
     976:	9ebe                	add	t4,t4,a5
     978:	058a                	slli	a1,a1,0x2
     97a:	074eaa83          	lw	s5,116(t4)
     97e:	95be                	add	a1,a1,a5
     980:	3fc57513          	andi	a0,a0,1020
     984:	3fc97913          	andi	s2,s2,1020
     988:	0745aa03          	lw	s4,116(a1)
     98c:	953e                	add	a0,a0,a5
     98e:	993e                	add	s2,s2,a5
     990:	07492903          	lw	s2,116(s2)
     994:	5968                	lw	a0,116(a0)
     996:	010a9e93          	slli	t4,s5,0x10
     99a:	010ada93          	srli	s5,s5,0x10
     99e:	008a5593          	srli	a1,s4,0x8
     9a2:	015eeeb3          	or	t4,t4,s5
     9a6:	0a62                	slli	s4,s4,0x18
     9a8:	0145ea33          	or	s4,a1,s4
     9ac:	00aeceb3          	xor	t4,t4,a0
     9b0:	00891593          	slli	a1,s2,0x8
     9b4:	01895913          	srli	s2,s2,0x18
     9b8:	014eceb3          	xor	t4,t4,s4
     9bc:	0125e5b3          	or	a1,a1,s2
     9c0:	00bec5b3          	xor	a1,t4,a1
     9c4:	01f5c5b3          	xor	a1,a1,t6
     9c8:	0135c5b3          	xor	a1,a1,s3
     9cc:	0105c833          	xor	a6,a1,a6
     9d0:	011848b3          	xor	a7,a6,a7
     9d4:	00c8c633          	xor	a2,a7,a2
     9d8:	01865513          	srli	a0,a2,0x18
     9dc:	050a                	slli	a0,a0,0x2
     9de:	00665913          	srli	s2,a2,0x6
     9e2:	953e                	add	a0,a0,a5
     9e4:	0ff67e93          	andi	t4,a2,255
     9e8:	3fc97913          	andi	s2,s2,1020
     9ec:	00e65f93          	srli	t6,a2,0xe
     9f0:	07452983          	lw	s3,116(a0)
     9f4:	0e8a                	slli	t4,t4,0x2
     9f6:	993e                	add	s2,s2,a5
     9f8:	3fcfff93          	andi	t6,t6,1020
     9fc:	07492903          	lw	s2,116(s2)
     a00:	9ebe                	add	t4,t4,a5
     a02:	9fbe                	add	t6,t6,a5
     a04:	074faf83          	lw	t6,116(t6)
     a08:	074eaa03          	lw	s4,116(t4)
     a0c:	0089d513          	srli	a0,s3,0x8
     a10:	09e2                	slli	s3,s3,0x18
     a12:	00891e93          	slli	t4,s2,0x8
     a16:	01356533          	or	a0,a0,s3
     a1a:	01895913          	srli	s2,s2,0x18
     a1e:	012ee933          	or	s2,t4,s2
     a22:	01454533          	xor	a0,a0,s4
     a26:	010f9e93          	slli	t4,t6,0x10
     a2a:	010fdf93          	srli	t6,t6,0x10
     a2e:	01254533          	xor	a0,a0,s2
     a32:	01feefb3          	or	t6,t4,t6
     a36:	01f54533          	xor	a0,a0,t6
     a3a:	8d25                	xor	a0,a0,s1
     a3c:	007543b3          	xor	t2,a0,t2
     a40:	0053c2b3          	xor	t0,t2,t0
     a44:	01e2cf33          	xor	t5,t0,t5
     a48:	d30c                	sw	a1,32(a4)
     a4a:	03072223          	sw	a6,36(a4)
     a4e:	03172423          	sw	a7,40(a4)
     a52:	d750                	sw	a2,44(a4)
     a54:	db08                	sw	a0,48(a4)
     a56:	02772a23          	sw	t2,52(a4)
     a5a:	02572c23          	sw	t0,56(a4)
     a5e:	03e72e23          	sw	t5,60(a4)
     a62:	02070713          	addi	a4,a4,32
     a66:	edc76fe3          	bltu	a4,t3,944 <set_key+0x390>
     a6a:	b6f9                	j	638 <set_key+0x84>
     a6c:	67a5                	lui	a5,0x9
     a6e:	a6078793          	addi	a5,a5,-1440 # 8a60 <rcon_tab>
     a72:	00478393          	addi	t2,a5,4
     a76:	4405                	li	s0,1
     a78:	a811                	j	a8c <set_key+0x4d8>
     a7a:	4750                	lw	a2,12(a4)
     a7c:	00472803          	lw	a6,4(a4)
     a80:	00872883          	lw	a7,8(a4)
     a84:	0003a403          	lw	s0,0(t2)
     a88:	8fae                	mv	t6,a1
     a8a:	0391                	addi	t2,t2,4
     a8c:	01865513          	srli	a0,a2,0x18
     a90:	0ff67293          	andi	t0,a2,255
     a94:	050a                	slli	a0,a0,0x2
     a96:	00665e93          	srli	t4,a2,0x6
     a9a:	00e65f13          	srli	t5,a2,0xe
     a9e:	953e                	add	a0,a0,a5
     aa0:	028a                	slli	t0,t0,0x2
     aa2:	5964                	lw	s1,116(a0)
     aa4:	3fcefe93          	andi	t4,t4,1020
     aa8:	92be                	add	t0,t0,a5
     aaa:	3fcf7f13          	andi	t5,t5,1020
     aae:	0742a283          	lw	t0,116(t0)
     ab2:	9ebe                	add	t4,t4,a5
     ab4:	9f3e                	add	t5,t5,a5
     ab6:	074f2f03          	lw	t5,116(t5)
     aba:	074eae83          	lw	t4,116(t4)
     abe:	01049513          	slli	a0,s1,0x10
     ac2:	80c1                	srli	s1,s1,0x10
     ac4:	0082d593          	srli	a1,t0,0x8
     ac8:	8d45                	or	a0,a0,s1
     aca:	02e2                	slli	t0,t0,0x18
     acc:	0055e2b3          	or	t0,a1,t0
     ad0:	01d54533          	xor	a0,a0,t4
     ad4:	008f1593          	slli	a1,t5,0x8
     ad8:	018f5f13          	srli	t5,t5,0x18
     adc:	00554533          	xor	a0,a0,t0
     ae0:	01e5e5b3          	or	a1,a1,t5
     ae4:	8da9                	xor	a1,a1,a0
     ae6:	01f5c5b3          	xor	a1,a1,t6
     aea:	8da1                	xor	a1,a1,s0
     aec:	0105c833          	xor	a6,a1,a6
     af0:	011848b3          	xor	a7,a6,a7
     af4:	00c8c633          	xor	a2,a7,a2
     af8:	cb0c                	sw	a1,16(a4)
     afa:	01072a23          	sw	a6,20(a4)
     afe:	01172c23          	sw	a7,24(a4)
     b02:	cf50                	sw	a2,28(a4)
     b04:	0741                	addi	a4,a4,16
     b06:	f7c76ae3          	bltu	a4,t3,a7a <set_key+0x4c6>
     b0a:	b63d                	j	638 <set_key+0x84>

00000b0c <encrypt>:
     b0c:	20864783          	lbu	a5,520(a2)
     b10:	8b85                	andi	a5,a5,1
     b12:	e399                	bnez	a5,b18 <encrypt+0xc>
     b14:	0a60106f          	j	1bba <encrypt+0x10ae>
     b18:	00052303          	lw	t1,0(a0)
     b1c:	4618                	lw	a4,8(a2)
     b1e:	00452f03          	lw	t5,4(a0)
     b22:	00852e83          	lw	t4,8(a0)
     b26:	00c52f83          	lw	t6,12(a0)
     b2a:	4654                	lw	a3,12(a2)
     b2c:	4a1c                	lw	a5,16(a2)
     b2e:	4a48                	lw	a0,20(a2)
     b30:	00462803          	lw	a6,4(a2)
     b34:	7179                	addi	sp,sp,-48
     b36:	d622                	sw	s0,44(sp)
     b38:	d426                	sw	s1,40(sp)
     b3a:	d24a                	sw	s2,36(sp)
     b3c:	d04e                	sw	s3,32(sp)
     b3e:	ce52                	sw	s4,28(sp)
     b40:	cc56                	sw	s5,24(sp)
     b42:	ca5a                	sw	s6,20(sp)
     b44:	c85e                	sw	s7,16(sp)
     b46:	c662                	sw	s8,12(sp)
     b48:	c466                	sw	s9,8(sp)
     b4a:	c26a                	sw	s10,4(sp)
     b4c:	c06e                	sw	s11,0(sp)
     b4e:	4e31                	li	t3,12
     b50:	00e34333          	xor	t1,t1,a4
     b54:	00df46b3          	xor	a3,t5,a3
     b58:	00feceb3          	xor	t4,t4,a5
     b5c:	00afc533          	xor	a0,t6,a0
     b60:	01860713          	addi	a4,a2,24
     b64:	01c81463          	bne	a6,t3,b6c <encrypt+0x60>
     b68:	7140106f          	j	227c <encrypt+0x1770>
     b6c:	48b9                	li	a7,14
     b6e:	01181463          	bne	a6,a7,b76 <encrypt+0x6a>
     b72:	04c0106f          	j	1bbe <encrypt+0x10b2>
     b76:	4629                	li	a2,10
     b78:	02c80763          	beq	a6,a2,ba6 <encrypt+0x9a>
     b7c:	5432                	lw	s0,44(sp)
     b7e:	c5c8                	sw	a0,12(a1)
     b80:	0065a023          	sw	t1,0(a1)
     b84:	c1d4                	sw	a3,4(a1)
     b86:	01d5a423          	sw	t4,8(a1)
     b8a:	54a2                	lw	s1,40(sp)
     b8c:	5912                	lw	s2,36(sp)
     b8e:	5982                	lw	s3,32(sp)
     b90:	4a72                	lw	s4,28(sp)
     b92:	4ae2                	lw	s5,24(sp)
     b94:	4b52                	lw	s6,20(sp)
     b96:	4bc2                	lw	s7,16(sp)
     b98:	4c32                	lw	s8,12(sp)
     b9a:	4ca2                	lw	s9,8(sp)
     b9c:	4d12                	lw	s10,4(sp)
     b9e:	4d82                	lw	s11,0(sp)
     ba0:	4505                	li	a0,1
     ba2:	6145                	addi	sp,sp,48
     ba4:	8082                	ret
     ba6:	67a9                	lui	a5,0xa
     ba8:	a6078793          	addi	a5,a5,-1440 # 9a60 <it_tab+0x38c>
     bac:	01855413          	srli	s0,a0,0x18
     bb0:	01835393          	srli	t2,t1,0x18
     bb4:	0186d293          	srli	t0,a3,0x18
     bb8:	018edf13          	srli	t5,t4,0x18
     bbc:	00655993          	srli	s3,a0,0x6
     bc0:	0ff37c93          	andi	s9,t1,255
     bc4:	0066da13          	srli	s4,a3,0x6
     bc8:	0ff6fc13          	andi	s8,a3,255
     bcc:	006edf93          	srli	t6,t4,0x6
     bd0:	0ffefb93          	andi	s7,t4,255
     bd4:	0ff57913          	andi	s2,a0,255
     bd8:	00635e13          	srli	t3,t1,0x6
     bdc:	040a                	slli	s0,s0,0x2
     bde:	038a                	slli	t2,t2,0x2
     be0:	028a                	slli	t0,t0,0x2
     be2:	0f0a                	slli	t5,t5,0x2
     be4:	008784b3          	add	s1,a5,s0
     be8:	93be                	add	t2,t2,a5
     bea:	92be                	add	t0,t0,a5
     bec:	9f3e                	add	t5,t5,a5
     bee:	00eed813          	srli	a6,t4,0xe
     bf2:	00e55893          	srli	a7,a0,0xe
     bf6:	00e35313          	srli	t1,t1,0xe
     bfa:	00291513          	slli	a0,s2,0x2
     bfe:	00e6d613          	srli	a2,a3,0xe
     c02:	3fc9fe93          	andi	t4,s3,1020
     c06:	3fca7693          	andi	a3,s4,1020
     c0a:	0c8a                	slli	s9,s9,0x2
     c0c:	0c0a                	slli	s8,s8,0x2
     c0e:	3fcfff93          	andi	t6,t6,1020
     c12:	0b8a                	slli	s7,s7,0x2
     c14:	3fce7e13          	andi	t3,t3,1020
     c18:	8744aa83          	lw	s5,-1932(s1)
     c1c:	8743aa03          	lw	s4,-1932(t2)
     c20:	8742a983          	lw	s3,-1932(t0)
     c24:	874f2903          	lw	s2,-1932(t5)
     c28:	9cbe                	add	s9,s9,a5
     c2a:	96be                	add	a3,a3,a5
     c2c:	9c3e                	add	s8,s8,a5
     c2e:	9fbe                	add	t6,t6,a5
     c30:	9bbe                	add	s7,s7,a5
     c32:	9ebe                	add	t4,t4,a5
     c34:	00a78433          	add	s0,a5,a0
     c38:	9e3e                	add	t3,t3,a5
     c3a:	3fc37b13          	andi	s6,t1,1020
     c3e:	3fc87813          	andi	a6,a6,1020
     c42:	3fc8f893          	andi	a7,a7,1020
     c46:	3fc67613          	andi	a2,a2,1020
     c4a:	8746af03          	lw	t5,-1932(a3)
     c4e:	874fa483          	lw	s1,-1932(t6)
     c52:	874ea383          	lw	t2,-1932(t4)
     c56:	874e2503          	lw	a0,-1932(t3)
     c5a:	874cae83          	lw	t4,-1932(s9)
     c5e:	874c2303          	lw	t1,-1932(s8)
     c62:	874baf83          	lw	t6,-1932(s7)
     c66:	00c72d83          	lw	s11,12(a4)
     c6a:	00072c83          	lw	s9,0(a4)
     c6e:	00472283          	lw	t0,4(a4)
     c72:	00872b83          	lw	s7,8(a4)
     c76:	983e                	add	a6,a6,a5
     c78:	9b3e                	add	s6,s6,a5
     c7a:	87442403          	lw	s0,-1932(s0)
     c7e:	98be                	add	a7,a7,a5
     c80:	963e                	add	a2,a2,a5
     c82:	87482e03          	lw	t3,-1932(a6)
     c86:	8748a883          	lw	a7,-1932(a7)
     c8a:	874b2803          	lw	a6,-1932(s6)
     c8e:	87462603          	lw	a2,-1932(a2)
     c92:	008add13          	srli	s10,s5,0x8
     c96:	008a5c13          	srli	s8,s4,0x8
     c9a:	0089d693          	srli	a3,s3,0x8
     c9e:	00895b13          	srli	s6,s2,0x8
     ca2:	0ae2                	slli	s5,s5,0x18
     ca4:	0962                	slli	s2,s2,0x18
     ca6:	0a62                	slli	s4,s4,0x18
     ca8:	09e2                	slli	s3,s3,0x18
     caa:	015d6ab3          	or	s5,s10,s5
     cae:	014c6a33          	or	s4,s8,s4
     cb2:	008f1d13          	slli	s10,t5,0x8
     cb6:	00849c13          	slli	s8,s1,0x8
     cba:	0136e9b3          	or	s3,a3,s3
     cbe:	012b6b33          	or	s6,s6,s2
     cc2:	019eccb3          	xor	s9,t4,s9
     cc6:	005342b3          	xor	t0,t1,t0
     cca:	017fcbb3          	xor	s7,t6,s7
     cce:	00839693          	slli	a3,t2,0x8
     cd2:	01b44433          	xor	s0,s0,s11
     cd6:	0183d393          	srli	t2,t2,0x18
     cda:	00851913          	slli	s2,a0,0x8
     cde:	018f5f13          	srli	t5,t5,0x18
     ce2:	8161                	srli	a0,a0,0x18
     ce4:	80e1                	srli	s1,s1,0x18
     ce6:	013bcfb3          	xor	t6,s7,s3
     cea:	015cceb3          	xor	t4,s9,s5
     cee:	01ed6f33          	or	t5,s10,t5
     cf2:	010e1a93          	slli	s5,t3,0x10
     cf6:	0142c333          	xor	t1,t0,s4
     cfa:	009c64b3          	or	s1,s8,s1
     cfe:	01081993          	slli	s3,a6,0x10
     d02:	00a96933          	or	s2,s2,a0
     d06:	01089a13          	slli	s4,a7,0x10
     d0a:	01061513          	slli	a0,a2,0x10
     d0e:	0108d293          	srli	t0,a7,0x10
     d12:	0076e6b3          	or	a3,a3,t2
     d16:	01644433          	xor	s0,s0,s6
     d1a:	010e5e13          	srli	t3,t3,0x10
     d1e:	01085813          	srli	a6,a6,0x10
     d22:	8241                	srli	a2,a2,0x10
     d24:	01caee33          	or	t3,s5,t3
     d28:	00934333          	xor	t1,t1,s1
     d2c:	005a68b3          	or	a7,s4,t0
     d30:	0109e833          	or	a6,s3,a6
     d34:	01244433          	xor	s0,s0,s2
     d38:	01eeceb3          	xor	t4,t4,t5
     d3c:	00dfc6b3          	xor	a3,t6,a3
     d40:	8e49                	or	a2,a2,a0
     d42:	01ceceb3          	xor	t4,t4,t3
     d46:	0106c6b3          	xor	a3,a3,a6
     d4a:	011348b3          	xor	a7,t1,a7
     d4e:	8e21                	xor	a2,a2,s0
     d50:	018ed313          	srli	t1,t4,0x18
     d54:	0ffef993          	andi	s3,t4,255
     d58:	01865a93          	srli	s5,a2,0x18
     d5c:	0068da13          	srli	s4,a7,0x6
     d60:	00e6d293          	srli	t0,a3,0xe
     d64:	0ff8f913          	andi	s2,a7,255
     d68:	0066de13          	srli	t3,a3,0x6
     d6c:	00e65f93          	srli	t6,a2,0xe
     d70:	0ff6f493          	andi	s1,a3,255
     d74:	0188d813          	srli	a6,a7,0x18
     d78:	0186d513          	srli	a0,a3,0x18
     d7c:	006ed393          	srli	t2,t4,0x6
     d80:	00231693          	slli	a3,t1,0x2
     d84:	098a                	slli	s3,s3,0x2
     d86:	00665313          	srli	t1,a2,0x6
     d8a:	0a8a                	slli	s5,s5,0x2
     d8c:	0ff67613          	andi	a2,a2,255
     d90:	3fca7a13          	andi	s4,s4,1020
     d94:	3fc2f293          	andi	t0,t0,1020
     d98:	090a                	slli	s2,s2,0x2
     d9a:	3fce7e13          	andi	t3,t3,1020
     d9e:	3fcfff93          	andi	t6,t6,1020
     da2:	048a                	slli	s1,s1,0x2
     da4:	080a                	slli	a6,a6,0x2
     da6:	050a                	slli	a0,a0,0x2
     da8:	99be                	add	s3,s3,a5
     daa:	9abe                	add	s5,s5,a5
     dac:	9a3e                	add	s4,s4,a5
     dae:	993e                	add	s2,s2,a5
     db0:	94be                	add	s1,s1,a5
     db2:	92be                	add	t0,t0,a5
     db4:	96be                	add	a3,a3,a5
     db6:	9e3e                	add	t3,t3,a5
     db8:	9fbe                	add	t6,t6,a5
     dba:	983e                	add	a6,a6,a5
     dbc:	00eedf13          	srli	t5,t4,0xe
     dc0:	00261413          	slli	s0,a2,0x2
     dc4:	953e                	add	a0,a0,a5
     dc6:	3fc37313          	andi	t1,t1,1020
     dca:	3fc3f393          	andi	t2,t2,1020
     dce:	00e8d893          	srli	a7,a7,0xe
     dd2:	874aa603          	lw	a2,-1932(s5)
     dd6:	874a2e83          	lw	t4,-1932(s4)
     dda:	8749ac03          	lw	s8,-1932(s3)
     dde:	87492b83          	lw	s7,-1932(s2)
     de2:	8744ab03          	lw	s6,-1932(s1)
     de6:	8742a283          	lw	t0,-1932(t0)
     dea:	8746a683          	lw	a3,-1932(a3)
     dee:	874e2e03          	lw	t3,-1932(t3)
     df2:	874faf83          	lw	t6,-1932(t6)
     df6:	01072983          	lw	s3,16(a4)
     dfa:	01472903          	lw	s2,20(a4)
     dfe:	4f04                	lw	s1,24(a4)
     e00:	943e                	add	s0,s0,a5
     e02:	87482803          	lw	a6,-1932(a6)
     e06:	933e                	add	t1,t1,a5
     e08:	87452503          	lw	a0,-1932(a0)
     e0c:	93be                	add	t2,t2,a5
     e0e:	3fcf7f13          	andi	t5,t5,1020
     e12:	3fc8f893          	andi	a7,a7,1020
     e16:	87442a03          	lw	s4,-1932(s0)
     e1a:	87432303          	lw	t1,-1932(t1)
     e1e:	8743a383          	lw	t2,-1932(t2)
     e22:	4f40                	lw	s0,28(a4)
     e24:	9f3e                	add	t5,t5,a5
     e26:	98be                	add	a7,a7,a5
     e28:	874f2f03          	lw	t5,-1932(t5)
     e2c:	8748a883          	lw	a7,-1932(a7)
     e30:	00865d13          	srli	s10,a2,0x8
     e34:	0086dc93          	srli	s9,a3,0x8
     e38:	00885a93          	srli	s5,a6,0x8
     e3c:	00855d93          	srli	s11,a0,0x8
     e40:	0662                	slli	a2,a2,0x18
     e42:	06e2                	slli	a3,a3,0x18
     e44:	0862                	slli	a6,a6,0x18
     e46:	0562                	slli	a0,a0,0x18
     e48:	00cd6633          	or	a2,s10,a2
     e4c:	00dce6b3          	or	a3,s9,a3
     e50:	009b44b3          	xor	s1,s6,s1
     e54:	00831c93          	slli	s9,t1,0x8
     e58:	008a4433          	xor	s0,s4,s0
     e5c:	013c49b3          	xor	s3,s8,s3
     e60:	012bc933          	xor	s2,s7,s2
     e64:	008e9c13          	slli	s8,t4,0x8
     e68:	008e1b93          	slli	s7,t3,0x8
     e6c:	010ae833          	or	a6,s5,a6
     e70:	00ade533          	or	a0,s11,a0
     e74:	00839b13          	slli	s6,t2,0x8
     e78:	018ede93          	srli	t4,t4,0x18
     e7c:	0183d393          	srli	t2,t2,0x18
     e80:	018e5e13          	srli	t3,t3,0x18
     e84:	01835313          	srli	t1,t1,0x18
     e88:	00c9c9b3          	xor	s3,s3,a2
     e8c:	01029a93          	slli	s5,t0,0x10
     e90:	00d94933          	xor	s2,s2,a3
     e94:	010f9613          	slli	a2,t6,0x10
     e98:	006ce333          	or	t1,s9,t1
     e9c:	010f1693          	slli	a3,t5,0x10
     ea0:	007b6b33          	or	s6,s6,t2
     ea4:	01dc6eb3          	or	t4,s8,t4
     ea8:	01089393          	slli	t2,a7,0x10
     eac:	01cbee33          	or	t3,s7,t3
     eb0:	0104c833          	xor	a6,s1,a6
     eb4:	8d21                	xor	a0,a0,s0
     eb6:	0102d293          	srli	t0,t0,0x10
     eba:	010fdf93          	srli	t6,t6,0x10
     ebe:	010f5f13          	srli	t5,t5,0x10
     ec2:	0108d893          	srli	a7,a7,0x10
     ec6:	01d9ceb3          	xor	t4,s3,t4
     eca:	01f66fb3          	or	t6,a2,t6
     ece:	01e6ef33          	or	t5,a3,t5
     ed2:	01654533          	xor	a0,a0,s6
     ed6:	005ae2b3          	or	t0,s5,t0
     eda:	01c94e33          	xor	t3,s2,t3
     ede:	00684833          	xor	a6,a6,t1
     ee2:	0113e8b3          	or	a7,t2,a7
     ee6:	01fe4933          	xor	s2,t3,t6
     eea:	005ec2b3          	xor	t0,t4,t0
     eee:	01e84833          	xor	a6,a6,t5
     ef2:	011548b3          	xor	a7,a0,a7
     ef6:	0188df13          	srli	t5,a7,0x18
     efa:	0182df93          	srli	t6,t0,0x18
     efe:	01895413          	srli	s0,s2,0x18
     f02:	01885393          	srli	t2,a6,0x18
     f06:	0ff87693          	andi	a3,a6,255
     f0a:	0062d613          	srli	a2,t0,0x6
     f0e:	0ff2fb93          	andi	s7,t0,255
     f12:	00695b13          	srli	s6,s2,0x6
     f16:	0ff97a93          	andi	s5,s2,255
     f1a:	0f8a                	slli	t6,t6,0x2
     f1c:	00685e93          	srli	t4,a6,0x6
     f20:	0068de13          	srli	t3,a7,0x6
     f24:	0ff8f993          	andi	s3,a7,255
     f28:	0f0a                	slli	t5,t5,0x2
     f2a:	040a                	slli	s0,s0,0x2
     f2c:	038a                	slli	t2,t2,0x2
     f2e:	01f784b3          	add	s1,a5,t6
     f32:	9f3e                	add	t5,t5,a5
     f34:	943e                	add	s0,s0,a5
     f36:	93be                	add	t2,t2,a5
     f38:	0b8a                	slli	s7,s7,0x2
     f3a:	3fcb7b13          	andi	s6,s6,1020
     f3e:	00e85313          	srli	t1,a6,0xe
     f42:	00e8d513          	srli	a0,a7,0xe
     f46:	00269f93          	slli	t6,a3,0x2
     f4a:	00299893          	slli	a7,s3,0x2
     f4e:	00e2d693          	srli	a3,t0,0xe
     f52:	3fc67813          	andi	a6,a2,1020
     f56:	0a8a                	slli	s5,s5,0x2
     f58:	00e95613          	srli	a2,s2,0xe
     f5c:	3fcefe93          	andi	t4,t4,1020
     f60:	3fce7e13          	andi	t3,t3,1020
     f64:	874f2a03          	lw	s4,-1932(t5)
     f68:	8744a983          	lw	s3,-1932(s1)
     f6c:	87442903          	lw	s2,-1932(s0)
     f70:	8743a483          	lw	s1,-1932(t2)
     f74:	016782b3          	add	t0,a5,s6
     f78:	01778f33          	add	t5,a5,s7
     f7c:	9abe                	add	s5,s5,a5
     f7e:	9ebe                	add	t4,t4,a5
     f80:	9e3e                	add	t3,t3,a5
     f82:	9fbe                	add	t6,t6,a5
     f84:	98be                	add	a7,a7,a5
     f86:	983e                	add	a6,a6,a5
     f88:	3fc37313          	andi	t1,t1,1020
     f8c:	3fc57513          	andi	a0,a0,1020
     f90:	3fc6f693          	andi	a3,a3,1020
     f94:	3fc67613          	andi	a2,a2,1020
     f98:	8742a403          	lw	s0,-1932(t0)
     f9c:	874ea383          	lw	t2,-1932(t4)
     fa0:	874e2283          	lw	t0,-1932(t3)
     fa4:	02c72d83          	lw	s11,44(a4)
     fa8:	874aae03          	lw	t3,-1932(s5)
     fac:	87482803          	lw	a6,-1932(a6)
     fb0:	874f2f03          	lw	t5,-1932(t5)
     fb4:	02072c83          	lw	s9,32(a4)
     fb8:	02472b83          	lw	s7,36(a4)
     fbc:	874faf83          	lw	t6,-1932(t6)
     fc0:	02872b03          	lw	s6,40(a4)
     fc4:	933e                	add	t1,t1,a5
     fc6:	96be                	add	a3,a3,a5
     fc8:	8748a883          	lw	a7,-1932(a7)
     fcc:	953e                	add	a0,a0,a5
     fce:	963e                	add	a2,a2,a5
     fd0:	87432e83          	lw	t4,-1932(t1)
     fd4:	87452503          	lw	a0,-1932(a0)
     fd8:	8746a303          	lw	t1,-1932(a3)
     fdc:	87462603          	lw	a2,-1932(a2)
     fe0:	008a5d13          	srli	s10,s4,0x8
     fe4:	0089dc13          	srli	s8,s3,0x8
     fe8:	00895693          	srli	a3,s2,0x8
     fec:	0084da93          	srli	s5,s1,0x8
     ff0:	0a62                	slli	s4,s4,0x18
     ff2:	04e2                	slli	s1,s1,0x18
     ff4:	09e2                	slli	s3,s3,0x18
     ff6:	0962                	slli	s2,s2,0x18
     ff8:	014d6a33          	or	s4,s10,s4
     ffc:	013c69b3          	or	s3,s8,s3
    1000:	00841d13          	slli	s10,s0,0x8
    1004:	00839c13          	slli	s8,t2,0x8
    1008:	0126e933          	or	s2,a3,s2
    100c:	009aeab3          	or	s5,s5,s1
    1010:	019f4cb3          	xor	s9,t5,s9
    1014:	017e4bb3          	xor	s7,t3,s7
    1018:	016fcb33          	xor	s6,t6,s6
    101c:	00829693          	slli	a3,t0,0x8
    1020:	01b8c8b3          	xor	a7,a7,s11
    1024:	0182d293          	srli	t0,t0,0x18
    1028:	00881493          	slli	s1,a6,0x8
    102c:	8061                	srli	s0,s0,0x18
    102e:	01885813          	srli	a6,a6,0x18
    1032:	0183d393          	srli	t2,t2,0x18
    1036:	012b4fb3          	xor	t6,s6,s2
    103a:	014ccf33          	xor	t5,s9,s4
    103e:	008d6433          	or	s0,s10,s0
    1042:	010e9a13          	slli	s4,t4,0x10
    1046:	013bce33          	xor	t3,s7,s3
    104a:	007c63b3          	or	t2,s8,t2
    104e:	01051993          	slli	s3,a0,0x10
    1052:	01031913          	slli	s2,t1,0x10
    1056:	0104e4b3          	or	s1,s1,a6
    105a:	0056e6b3          	or	a3,a3,t0
    105e:	01061813          	slli	a6,a2,0x10
    1062:	0158c8b3          	xor	a7,a7,s5
    1066:	010ede93          	srli	t4,t4,0x10
    106a:	8141                	srli	a0,a0,0x10
    106c:	01035313          	srli	t1,t1,0x10
    1070:	8241                	srli	a2,a2,0x10
    1072:	008f4f33          	xor	t5,t5,s0
    1076:	01da6eb3          	or	t4,s4,t4
    107a:	007e4e33          	xor	t3,t3,t2
    107e:	00696333          	or	t1,s2,t1
    1082:	0098c8b3          	xor	a7,a7,s1
    1086:	00a9e533          	or	a0,s3,a0
    108a:	00dfc6b3          	xor	a3,t6,a3
    108e:	00c86633          	or	a2,a6,a2
    1092:	01df43b3          	xor	t2,t5,t4
    1096:	00c8c633          	xor	a2,a7,a2
    109a:	00ae4533          	xor	a0,t3,a0
    109e:	0066c6b3          	xor	a3,a3,t1
    10a2:	0ff3f293          	andi	t0,t2,255
    10a6:	01865f93          	srli	t6,a2,0x18
    10aa:	00655f13          	srli	t5,a0,0x6
    10ae:	00e6de93          	srli	t4,a3,0xe
    10b2:	0183de13          	srli	t3,t2,0x18
    10b6:	01855913          	srli	s2,a0,0x18
    10ba:	0186d493          	srli	s1,a3,0x18
    10be:	0ff57893          	andi	a7,a0,255
    10c2:	028a                	slli	t0,t0,0x2
    10c4:	0e0a                	slli	t3,t3,0x2
    10c6:	0066d413          	srli	s0,a3,0x6
    10ca:	0ff67a93          	andi	s5,a2,255
    10ce:	0063d813          	srli	a6,t2,0x6
    10d2:	0f8a                	slli	t6,t6,0x2
    10d4:	3fcf7f13          	andi	t5,t5,1020
    10d8:	3fcefe93          	andi	t4,t4,1020
    10dc:	090a                	slli	s2,s2,0x2
    10de:	048a                	slli	s1,s1,0x2
    10e0:	00578a33          	add	s4,a5,t0
    10e4:	01c789b3          	add	s3,a5,t3
    10e8:	9fbe                	add	t6,t6,a5
    10ea:	9f3e                	add	t5,t5,a5
    10ec:	993e                	add	s2,s2,a5
    10ee:	94be                	add	s1,s1,a5
    10f0:	00665313          	srli	t1,a2,0x6
    10f4:	9ebe                	add	t4,t4,a5
    10f6:	00289293          	slli	t0,a7,0x2
    10fa:	0ff6f693          	andi	a3,a3,255
    10fe:	00e65893          	srli	a7,a2,0xe
    1102:	3fc47413          	andi	s0,s0,1020
    1106:	002a9613          	slli	a2,s5,0x2
    110a:	3fc87813          	andi	a6,a6,1020
    110e:	8139                	srli	a0,a0,0xe
    1110:	874faa83          	lw	s5,-1932(t6)
    1114:	03072c83          	lw	s9,48(a4)
    1118:	00e3de13          	srli	t3,t2,0xe
    111c:	92be                	add	t0,t0,a5
    111e:	874f2383          	lw	t2,-1932(t5)
    1122:	943e                	add	s0,s0,a5
    1124:	874a2f03          	lw	t5,-1932(s4)
    1128:	068a                	slli	a3,a3,0x2
    112a:	874eae83          	lw	t4,-1932(t4)
    112e:	963e                	add	a2,a2,a5
    1130:	8749aa03          	lw	s4,-1932(s3)
    1134:	983e                	add	a6,a6,a5
    1136:	87492983          	lw	s3,-1932(s2)
    113a:	3fc37313          	andi	t1,t1,1020
    113e:	8744a903          	lw	s2,-1932(s1)
    1142:	3fc8f893          	andi	a7,a7,1020
    1146:	3fc57513          	andi	a0,a0,1020
    114a:	87442483          	lw	s1,-1932(s0)
    114e:	03c72d83          	lw	s11,60(a4)
    1152:	87482803          	lw	a6,-1932(a6)
    1156:	00d78fb3          	add	t6,a5,a3
    115a:	933e                	add	t1,t1,a5
    115c:	87462603          	lw	a2,-1932(a2)
    1160:	3fce7693          	andi	a3,t3,1020
    1164:	98be                	add	a7,a7,a5
    1166:	8742ae03          	lw	t3,-1932(t0)
    116a:	953e                	add	a0,a0,a5
    116c:	03472283          	lw	t0,52(a4)
    1170:	87432403          	lw	s0,-1932(t1)
    1174:	8748a883          	lw	a7,-1932(a7)
    1178:	874faf83          	lw	t6,-1932(t6)
    117c:	03872b83          	lw	s7,56(a4)
    1180:	87452503          	lw	a0,-1932(a0)
    1184:	96be                	add	a3,a3,a5
    1186:	8746a303          	lw	t1,-1932(a3)
    118a:	008a5c13          	srli	s8,s4,0x8
    118e:	00895b13          	srli	s6,s2,0x8
    1192:	0a62                	slli	s4,s4,0x18
    1194:	0962                	slli	s2,s2,0x18
    1196:	0089d693          	srli	a3,s3,0x8
    119a:	014c6a33          	or	s4,s8,s4
    119e:	012b6b33          	or	s6,s6,s2
    11a2:	00849c13          	slli	s8,s1,0x8
    11a6:	005e42b3          	xor	t0,t3,t0
    11aa:	01b64633          	xor	a2,a2,s11
    11ae:	00881913          	slli	s2,a6,0x8
    11b2:	09e2                	slli	s3,s3,0x18
    11b4:	01885813          	srli	a6,a6,0x18
    11b8:	80e1                	srli	s1,s1,0x18
    11ba:	0136e9b3          	or	s3,a3,s3
    11be:	0142ce33          	xor	t3,t0,s4
    11c2:	009c64b3          	or	s1,s8,s1
    11c6:	01096933          	or	s2,s2,a6
    11ca:	017fcbb3          	xor	s7,t6,s7
    11ce:	01051813          	slli	a6,a0,0x10
    11d2:	00841693          	slli	a3,s0,0x8
    11d6:	01089a13          	slli	s4,a7,0x10
    11da:	8061                	srli	s0,s0,0x18
    11dc:	0108d293          	srli	t0,a7,0x10
    11e0:	01664633          	xor	a2,a2,s6
    11e4:	8141                	srli	a0,a0,0x10
    11e6:	013bcfb3          	xor	t6,s7,s3
    11ea:	008add13          	srli	s10,s5,0x8
    11ee:	01031993          	slli	s3,t1,0x10
    11f2:	009e4e33          	xor	t3,t3,s1
    11f6:	005a68b3          	or	a7,s4,t0
    11fa:	00a86533          	or	a0,a6,a0
    11fe:	8ec1                	or	a3,a3,s0
    1200:	01264633          	xor	a2,a2,s2
    1204:	0ae2                	slli	s5,s5,0x18
    1206:	01035313          	srli	t1,t1,0x10
    120a:	011e48b3          	xor	a7,t3,a7
    120e:	8e29                	xor	a2,a2,a0
    1210:	015d6ab3          	or	s5,s10,s5
    1214:	0069e333          	or	t1,s3,t1
    1218:	00839d13          	slli	s10,t2,0x8
    121c:	019f4cb3          	xor	s9,t5,s9
    1220:	00dfc6b3          	xor	a3,t6,a3
    1224:	0183d393          	srli	t2,t2,0x18
    1228:	0066c6b3          	xor	a3,a3,t1
    122c:	015ccf33          	xor	t5,s9,s5
    1230:	007d63b3          	or	t2,s10,t2
    1234:	010e9a93          	slli	s5,t4,0x10
    1238:	01865493          	srli	s1,a2,0x18
    123c:	0188d813          	srli	a6,a7,0x18
    1240:	010ede93          	srli	t4,t4,0x10
    1244:	007f4f33          	xor	t5,t5,t2
    1248:	01daeeb3          	or	t4,s5,t4
    124c:	0066de13          	srli	t3,a3,0x6
    1250:	048a                	slli	s1,s1,0x2
    1252:	080a                	slli	a6,a6,0x2
    1254:	01df4eb3          	xor	t4,t5,t4
    1258:	94be                	add	s1,s1,a5
    125a:	983e                	add	a6,a6,a5
    125c:	3fce7e13          	andi	t3,t3,1020
    1260:	8744a483          	lw	s1,-1932(s1)
    1264:	87482803          	lw	a6,-1932(a6)
    1268:	0ffef993          	andi	s3,t4,255
    126c:	00e6d293          	srli	t0,a3,0xe
    1270:	0ff8f913          	andi	s2,a7,255
    1274:	018eda13          	srli	s4,t4,0x18
    1278:	00e65f93          	srli	t6,a2,0xe
    127c:	0ff6f413          	andi	s0,a3,255
    1280:	00665313          	srli	t1,a2,0x6
    1284:	9e3e                	add	t3,t3,a5
    1286:	0ff67613          	andi	a2,a2,255
    128a:	82e1                	srli	a3,a3,0x18
    128c:	874e2e03          	lw	t3,-1932(t3)
    1290:	0068da93          	srli	s5,a7,0x6
    1294:	00eedf13          	srli	t5,t4,0xe
    1298:	068a                	slli	a3,a3,0x2
    129a:	006ede93          	srli	t4,t4,0x6
    129e:	098a                	slli	s3,s3,0x2
    12a0:	090a                	slli	s2,s2,0x2
    12a2:	0a0a                	slli	s4,s4,0x2
    12a4:	040a                	slli	s0,s0,0x2
    12a6:	060a                	slli	a2,a2,0x2
    12a8:	00e8d893          	srli	a7,a7,0xe
    12ac:	99be                	add	s3,s3,a5
    12ae:	993e                	add	s2,s2,a5
    12b0:	9a3e                	add	s4,s4,a5
    12b2:	943e                	add	s0,s0,a5
    12b4:	963e                	add	a2,a2,a5
    12b6:	00d78533          	add	a0,a5,a3
    12ba:	3fcef393          	andi	t2,t4,1020
    12be:	3fcafa93          	andi	s5,s5,1020
    12c2:	3fc2f293          	andi	t0,t0,1020
    12c6:	3fcfff93          	andi	t6,t6,1020
    12ca:	3fc37313          	andi	t1,t1,1020
    12ce:	3fcf7f13          	andi	t5,t5,1020
    12d2:	3fc8f893          	andi	a7,a7,1020
    12d6:	874a2683          	lw	a3,-1932(s4)
    12da:	87452503          	lw	a0,-1932(a0)
    12de:	8749aa03          	lw	s4,-1932(s3)
    12e2:	9abe                	add	s5,s5,a5
    12e4:	87492983          	lw	s3,-1932(s2)
    12e8:	0084db13          	srli	s6,s1,0x8
    12ec:	87442903          	lw	s2,-1932(s0)
    12f0:	92be                	add	t0,t0,a5
    12f2:	87462403          	lw	s0,-1932(a2)
    12f6:	9fbe                	add	t6,t6,a5
    12f8:	933e                	add	t1,t1,a5
    12fa:	9f3e                	add	t5,t5,a5
    12fc:	93be                	add	t2,t2,a5
    12fe:	98be                	add	a7,a7,a5
    1300:	01849613          	slli	a2,s1,0x18
    1304:	00885493          	srli	s1,a6,0x8
    1308:	0862                	slli	a6,a6,0x18
    130a:	874aae83          	lw	t4,-1932(s5)
    130e:	8742a283          	lw	t0,-1932(t0)
    1312:	874faf83          	lw	t6,-1932(t6)
    1316:	87432303          	lw	t1,-1932(t1)
    131a:	874f2f03          	lw	t5,-1932(t5)
    131e:	8743a383          	lw	t2,-1932(t2)
    1322:	8748a883          	lw	a7,-1932(a7)
    1326:	00cb6633          	or	a2,s6,a2
    132a:	04072c03          	lw	s8,64(a4)
    132e:	008e1c93          	slli	s9,t3,0x8
    1332:	04472b03          	lw	s6,68(a4)
    1336:	018e5d13          	srli	s10,t3,0x18
    133a:	0104e833          	or	a6,s1,a6
    133e:	04872e03          	lw	t3,72(a4)
    1342:	4764                	lw	s1,76(a4)
    1344:	0086da93          	srli	s5,a3,0x8
    1348:	00855b93          	srli	s7,a0,0x8
    134c:	06e2                	slli	a3,a3,0x18
    134e:	0562                	slli	a0,a0,0x18
    1350:	00dae6b3          	or	a3,s5,a3
    1354:	01c94933          	xor	s2,s2,t3
    1358:	00831d93          	slli	s11,t1,0x8
    135c:	8c25                	xor	s0,s0,s1
    135e:	00839a93          	slli	s5,t2,0x8
    1362:	018a4a33          	xor	s4,s4,s8
    1366:	0169c9b3          	xor	s3,s3,s6
    136a:	008e9c13          	slli	s8,t4,0x8
    136e:	00abe533          	or	a0,s7,a0
    1372:	018ede93          	srli	t4,t4,0x18
    1376:	01835313          	srli	t1,t1,0x18
    137a:	0183d393          	srli	t2,t2,0x18
    137e:	00ca4a33          	xor	s4,s4,a2
    1382:	01029493          	slli	s1,t0,0x10
    1386:	00d9c9b3          	xor	s3,s3,a3
    138a:	01acee33          	or	t3,s9,s10
    138e:	010f9613          	slli	a2,t6,0x10
    1392:	006de333          	or	t1,s11,t1
    1396:	010f1693          	slli	a3,t5,0x10
    139a:	007ae3b3          	or	t2,s5,t2
    139e:	01dc6eb3          	or	t4,s8,t4
    13a2:	01094833          	xor	a6,s2,a6
    13a6:	01089c13          	slli	s8,a7,0x10
    13aa:	8d21                	xor	a0,a0,s0
    13ac:	0102d293          	srli	t0,t0,0x10
    13b0:	010fdf93          	srli	t6,t6,0x10
    13b4:	010f5f13          	srli	t5,t5,0x10
    13b8:	0108d893          	srli	a7,a7,0x10
    13bc:	01da4eb3          	xor	t4,s4,t4
    13c0:	01c9ce33          	xor	t3,s3,t3
    13c4:	00684833          	xor	a6,a6,t1
    13c8:	00754533          	xor	a0,a0,t2
    13cc:	0054e2b3          	or	t0,s1,t0
    13d0:	01f66fb3          	or	t6,a2,t6
    13d4:	01e6ef33          	or	t5,a3,t5
    13d8:	011c68b3          	or	a7,s8,a7
    13dc:	005ec2b3          	xor	t0,t4,t0
    13e0:	01fe4fb3          	xor	t6,t3,t6
    13e4:	01e84f33          	xor	t5,a6,t5
    13e8:	011548b3          	xor	a7,a0,a7
    13ec:	018f5e93          	srli	t4,t5,0x18
    13f0:	0188dc93          	srli	s9,a7,0x18
    13f4:	0182dc13          	srli	s8,t0,0x18
    13f8:	018fd393          	srli	t2,t6,0x18
    13fc:	0ff2fb13          	andi	s6,t0,255
    1400:	006fd513          	srli	a0,t6,0x6
    1404:	0ffffb93          	andi	s7,t6,255
    1408:	006f5e13          	srli	t3,t5,0x6
    140c:	0fff7413          	andi	s0,t5,255
    1410:	0068d313          	srli	t1,a7,0x6
    1414:	0ff8fa93          	andi	s5,a7,255
    1418:	002e9613          	slli	a2,t4,0x2
    141c:	0062d813          	srli	a6,t0,0x6
    1420:	0c8a                	slli	s9,s9,0x2
    1422:	0c0a                	slli	s8,s8,0x2
    1424:	038a                	slli	t2,t2,0x2
    1426:	00c78eb3          	add	t4,a5,a2
    142a:	9cbe                	add	s9,s9,a5
    142c:	9c3e                	add	s8,s8,a5
    142e:	93be                	add	t2,t2,a5
    1430:	3fc57513          	andi	a0,a0,1020
    1434:	00ef5f13          	srli	t5,t5,0xe
    1438:	0b8a                	slli	s7,s7,0x2
    143a:	040a                	slli	s0,s0,0x2
    143c:	00e2d693          	srli	a3,t0,0xe
    1440:	00efd613          	srli	a2,t6,0xe
    1444:	0b0a                	slli	s6,s6,0x2
    1446:	3fce7e13          	andi	t3,t3,1020
    144a:	00e8d893          	srli	a7,a7,0xe
    144e:	3fc37313          	andi	t1,t1,1020
    1452:	0a8a                	slli	s5,s5,0x2
    1454:	3fc87813          	andi	a6,a6,1020
    1458:	874caa03          	lw	s4,-1932(s9)
    145c:	8743a903          	lw	s2,-1932(t2)
    1460:	874ea483          	lw	s1,-1932(t4)
    1464:	00a782b3          	add	t0,a5,a0
    1468:	874c2983          	lw	s3,-1932(s8)
    146c:	9b3e                	add	s6,s6,a5
    146e:	01778eb3          	add	t4,a5,s7
    1472:	9e3e                	add	t3,t3,a5
    1474:	00878fb3          	add	t6,a5,s0
    1478:	933e                	add	t1,t1,a5
    147a:	9abe                	add	s5,s5,a5
    147c:	3fcf7513          	andi	a0,t5,1020
    1480:	983e                	add	a6,a6,a5
    1482:	3fc8f893          	andi	a7,a7,1020
    1486:	3fc6f693          	andi	a3,a3,1020
    148a:	3fc67613          	andi	a2,a2,1020
    148e:	8742a403          	lw	s0,-1932(t0)
    1492:	874e2383          	lw	t2,-1932(t3)
    1496:	87432283          	lw	t0,-1932(t1)
    149a:	874b2f03          	lw	t5,-1932(s6)
    149e:	05c72d83          	lw	s11,92(a4)
    14a2:	87482803          	lw	a6,-1932(a6)
    14a6:	05072c83          	lw	s9,80(a4)
    14aa:	874eae83          	lw	t4,-1932(t4)
    14ae:	05472b83          	lw	s7,84(a4)
    14b2:	874faf83          	lw	t6,-1932(t6)
    14b6:	05872b03          	lw	s6,88(a4)
    14ba:	874aa303          	lw	t1,-1932(s5)
    14be:	98be                	add	a7,a7,a5
    14c0:	96be                	add	a3,a3,a5
    14c2:	953e                	add	a0,a0,a5
    14c4:	963e                	add	a2,a2,a5
    14c6:	8748ae03          	lw	t3,-1932(a7)
    14ca:	87452503          	lw	a0,-1932(a0)
    14ce:	8746a883          	lw	a7,-1932(a3)
    14d2:	87462603          	lw	a2,-1932(a2)
    14d6:	008a5d13          	srli	s10,s4,0x8
    14da:	0089dc13          	srli	s8,s3,0x8
    14de:	00895693          	srli	a3,s2,0x8
    14e2:	0084da93          	srli	s5,s1,0x8
    14e6:	0a62                	slli	s4,s4,0x18
    14e8:	04e2                	slli	s1,s1,0x18
    14ea:	09e2                	slli	s3,s3,0x18
    14ec:	0962                	slli	s2,s2,0x18
    14ee:	014d6a33          	or	s4,s10,s4
    14f2:	013c69b3          	or	s3,s8,s3
    14f6:	00841d13          	slli	s10,s0,0x8
    14fa:	00839c13          	slli	s8,t2,0x8
    14fe:	0126e933          	or	s2,a3,s2
    1502:	009aeab3          	or	s5,s5,s1
    1506:	019f4cb3          	xor	s9,t5,s9
    150a:	017ecbb3          	xor	s7,t4,s7
    150e:	016fcb33          	xor	s6,t6,s6
    1512:	00829693          	slli	a3,t0,0x8
    1516:	01b34333          	xor	t1,t1,s11
    151a:	0182d293          	srli	t0,t0,0x18
    151e:	00881493          	slli	s1,a6,0x8
    1522:	8061                	srli	s0,s0,0x18
    1524:	01885813          	srli	a6,a6,0x18
    1528:	0183d393          	srli	t2,t2,0x18
    152c:	012b4fb3          	xor	t6,s6,s2
    1530:	014ccf33          	xor	t5,s9,s4
    1534:	008d6433          	or	s0,s10,s0
    1538:	01051a13          	slli	s4,a0,0x10
    153c:	013bceb3          	xor	t4,s7,s3
    1540:	007c63b3          	or	t2,s8,t2
    1544:	010e1993          	slli	s3,t3,0x10
    1548:	01089913          	slli	s2,a7,0x10
    154c:	0104e4b3          	or	s1,s1,a6
    1550:	0056e6b3          	or	a3,a3,t0
    1554:	01061813          	slli	a6,a2,0x10
    1558:	01534333          	xor	t1,t1,s5
    155c:	8141                	srli	a0,a0,0x10
    155e:	010e5e13          	srli	t3,t3,0x10
    1562:	0108d893          	srli	a7,a7,0x10
    1566:	8241                	srli	a2,a2,0x10
    1568:	008f4f33          	xor	t5,t5,s0
    156c:	007eceb3          	xor	t4,t4,t2
    1570:	011968b3          	or	a7,s2,a7
    1574:	00934333          	xor	t1,t1,s1
    1578:	00aa6533          	or	a0,s4,a0
    157c:	01c9ee33          	or	t3,s3,t3
    1580:	00dfc6b3          	xor	a3,t6,a3
    1584:	00c86633          	or	a2,a6,a2
    1588:	01cece33          	xor	t3,t4,t3
    158c:	0116c6b3          	xor	a3,a3,a7
    1590:	00c34633          	xor	a2,t1,a2
    1594:	00af4533          	xor	a0,t5,a0
    1598:	0ff57f13          	andi	t5,a0,255
    159c:	01865993          	srli	s3,a2,0x18
    15a0:	006e5393          	srli	t2,t3,0x6
    15a4:	00e6d813          	srli	a6,a3,0xe
    15a8:	0ffe7493          	andi	s1,t3,255
    15ac:	01855913          	srli	s2,a0,0x18
    15b0:	0066d293          	srli	t0,a3,0x6
    15b4:	018e5413          	srli	s0,t3,0x18
    15b8:	0186da93          	srli	s5,a3,0x18
    15bc:	00665f93          	srli	t6,a2,0x6
    15c0:	0ff6f693          	andi	a3,a3,255
    15c4:	0ff67e93          	andi	t4,a2,255
    15c8:	0a8a                	slli	s5,s5,0x2
    15ca:	00655893          	srli	a7,a0,0x6
    15ce:	0f0a                	slli	t5,t5,0x2
    15d0:	098a                	slli	s3,s3,0x2
    15d2:	3fc3f393          	andi	t2,t2,1020
    15d6:	3fc87813          	andi	a6,a6,1020
    15da:	048a                	slli	s1,s1,0x2
    15dc:	090a                	slli	s2,s2,0x2
    15de:	3fc2f293          	andi	t0,t0,1020
    15e2:	040a                	slli	s0,s0,0x2
    15e4:	94be                	add	s1,s1,a5
    15e6:	943e                	add	s0,s0,a5
    15e8:	9f3e                	add	t5,t5,a5
    15ea:	99be                	add	s3,s3,a5
    15ec:	93be                	add	t2,t2,a5
    15ee:	983e                	add	a6,a6,a5
    15f0:	993e                	add	s2,s2,a5
    15f2:	92be                	add	t0,t0,a5
    15f4:	00e65313          	srli	t1,a2,0xe
    15f8:	00269a13          	slli	s4,a3,0x2
    15fc:	01578633          	add	a2,a5,s5
    1600:	00ee5693          	srli	a3,t3,0xe
    1604:	3fcfff93          	andi	t6,t6,1020
    1608:	8139                	srli	a0,a0,0xe
    160a:	0e8a                	slli	t4,t4,0x2
    160c:	3fc8f893          	andi	a7,a7,1020
    1610:	8744ae03          	lw	t3,-1932(s1)
    1614:	8749a983          	lw	s3,-1932(s3)
    1618:	8743a383          	lw	t2,-1932(t2)
    161c:	87482803          	lw	a6,-1932(a6)
    1620:	87492903          	lw	s2,-1932(s2)
    1624:	874f2f03          	lw	t5,-1932(t5)
    1628:	06072c83          	lw	s9,96(a4)
    162c:	06472b83          	lw	s7,100(a4)
    1630:	9a3e                	add	s4,s4,a5
    1632:	8742a283          	lw	t0,-1932(t0)
    1636:	98be                	add	a7,a7,a5
    1638:	87442483          	lw	s1,-1932(s0)
    163c:	9fbe                	add	t6,t6,a5
    163e:	87462403          	lw	s0,-1932(a2)
    1642:	9ebe                	add	t4,t4,a5
    1644:	3fc37313          	andi	t1,t1,1020
    1648:	3fc57513          	andi	a0,a0,1020
    164c:	3fc6f693          	andi	a3,a3,1020
    1650:	8748a603          	lw	a2,-1932(a7)
    1654:	06c72d83          	lw	s11,108(a4)
    1658:	874a2883          	lw	a7,-1932(s4)
    165c:	874faf83          	lw	t6,-1932(t6)
    1660:	06872a83          	lw	s5,104(a4)
    1664:	874eae83          	lw	t4,-1932(t4)
    1668:	933e                	add	t1,t1,a5
    166a:	953e                	add	a0,a0,a5
    166c:	96be                	add	a3,a3,a5
    166e:	87432303          	lw	t1,-1932(t1)
    1672:	87452503          	lw	a0,-1932(a0)
    1676:	8746a683          	lw	a3,-1932(a3)
    167a:	0089dd13          	srli	s10,s3,0x8
    167e:	00895c13          	srli	s8,s2,0x8
    1682:	0084db13          	srli	s6,s1,0x8
    1686:	00845a13          	srli	s4,s0,0x8
    168a:	09e2                	slli	s3,s3,0x18
    168c:	0462                	slli	s0,s0,0x18
    168e:	0962                	slli	s2,s2,0x18
    1690:	04e2                	slli	s1,s1,0x18
    1692:	013d69b3          	or	s3,s10,s3
    1696:	012c6933          	or	s2,s8,s2
    169a:	00839d13          	slli	s10,t2,0x8
    169e:	00829c13          	slli	s8,t0,0x8
    16a2:	009b64b3          	or	s1,s6,s1
    16a6:	008a6a33          	or	s4,s4,s0
    16aa:	008f9b13          	slli	s6,t6,0x8
    16ae:	019f4cb3          	xor	s9,t5,s9
    16b2:	017e4bb3          	xor	s7,t3,s7
    16b6:	0158cab3          	xor	s5,a7,s5
    16ba:	01beceb3          	xor	t4,t4,s11
    16be:	00861413          	slli	s0,a2,0x8
    16c2:	0183d393          	srli	t2,t2,0x18
    16c6:	8261                	srli	a2,a2,0x18
    16c8:	0182d293          	srli	t0,t0,0x18
    16cc:	018fdf93          	srli	t6,t6,0x18
    16d0:	013ccf33          	xor	t5,s9,s3
    16d4:	007d63b3          	or	t2,s10,t2
    16d8:	01081993          	slli	s3,a6,0x10
    16dc:	012bce33          	xor	t3,s7,s2
    16e0:	005c62b3          	or	t0,s8,t0
    16e4:	01031913          	slli	s2,t1,0x10
    16e8:	009ac8b3          	xor	a7,s5,s1
    16ec:	01fb6fb3          	or	t6,s6,t6
    16f0:	01051493          	slli	s1,a0,0x10
    16f4:	8c51                	or	s0,s0,a2
    16f6:	014eceb3          	xor	t4,t4,s4
    16fa:	01069613          	slli	a2,a3,0x10
    16fe:	01085813          	srli	a6,a6,0x10
    1702:	01035313          	srli	t1,t1,0x10
    1706:	8141                	srli	a0,a0,0x10
    1708:	82c1                	srli	a3,a3,0x10
    170a:	007f4f33          	xor	t5,t5,t2
    170e:	005e4e33          	xor	t3,t3,t0
    1712:	00696333          	or	t1,s2,t1
    1716:	01f8c8b3          	xor	a7,a7,t6
    171a:	008eceb3          	xor	t4,t4,s0
    171e:	0109e833          	or	a6,s3,a6
    1722:	8d45                	or	a0,a0,s1
    1724:	8ed1                	or	a3,a3,a2
    1726:	006e43b3          	xor	t2,t3,t1
    172a:	010f4833          	xor	a6,t5,a6
    172e:	00a8c533          	xor	a0,a7,a0
    1732:	00dec6b3          	xor	a3,t4,a3
    1736:	0183df13          	srli	t5,t2,0x18
    173a:	01855e13          	srli	t3,a0,0x18
    173e:	0186d293          	srli	t0,a3,0x18
    1742:	01885f93          	srli	t6,a6,0x18
    1746:	0ff87c13          	andi	s8,a6,255
    174a:	0063db93          	srli	s7,t2,0x6
    174e:	0ff3fb13          	andi	s6,t2,255
    1752:	00655313          	srli	t1,a0,0x6
    1756:	0ff57a93          	andi	s5,a0,255
    175a:	002f1493          	slli	s1,t5,0x2
    175e:	0066d893          	srli	a7,a3,0x6
    1762:	0ff6fa13          	andi	s4,a3,255
    1766:	002e1413          	slli	s0,t3,0x2
    176a:	00685613          	srli	a2,a6,0x6
    176e:	028a                	slli	t0,t0,0x2
    1770:	0f8a                	slli	t6,t6,0x2
    1772:	92be                	add	t0,t0,a5
    1774:	9fbe                	add	t6,t6,a5
    1776:	00978f33          	add	t5,a5,s1
    177a:	00878e33          	add	t3,a5,s0
    177e:	0c0a                	slli	s8,s8,0x2
    1780:	3fcbfb93          	andi	s7,s7,1020
    1784:	0b0a                	slli	s6,s6,0x2
    1786:	00e6de93          	srli	t4,a3,0xe
    178a:	8139                	srli	a0,a0,0xe
    178c:	00e3d693          	srli	a3,t2,0xe
    1790:	3fc37313          	andi	t1,t1,1020
    1794:	0a8a                	slli	s5,s5,0x2
    1796:	3fc8f893          	andi	a7,a7,1020
    179a:	00e85813          	srli	a6,a6,0xe
    179e:	0a0a                	slli	s4,s4,0x2
    17a0:	3fc67613          	andi	a2,a2,1020
    17a4:	8742a983          	lw	s3,-1932(t0)
    17a8:	874fa903          	lw	s2,-1932(t6)
    17ac:	874f2483          	lw	s1,-1932(t5)
    17b0:	874e2403          	lw	s0,-1932(t3)
    17b4:	01878fb3          	add	t6,a5,s8
    17b8:	01778e33          	add	t3,a5,s7
    17bc:	01678f33          	add	t5,a5,s6
    17c0:	933e                	add	t1,t1,a5
    17c2:	9abe                	add	s5,s5,a5
    17c4:	98be                	add	a7,a7,a5
    17c6:	9a3e                	add	s4,s4,a5
    17c8:	963e                	add	a2,a2,a5
    17ca:	3fc57513          	andi	a0,a0,1020
    17ce:	3fcefe93          	andi	t4,t4,1020
    17d2:	3fc87813          	andi	a6,a6,1020
    17d6:	3fc6f693          	andi	a3,a3,1020
    17da:	874e2383          	lw	t2,-1932(t3)
    17de:	87432283          	lw	t0,-1932(t1)
    17e2:	8748ae03          	lw	t3,-1932(a7)
    17e6:	07c72d83          	lw	s11,124(a4)
    17ea:	874aa883          	lw	a7,-1932(s5)
    17ee:	87462603          	lw	a2,-1932(a2)
    17f2:	874faf83          	lw	t6,-1932(t6)
    17f6:	07072c83          	lw	s9,112(a4)
    17fa:	874f2f03          	lw	t5,-1932(t5)
    17fe:	07472b83          	lw	s7,116(a4)
    1802:	07872a83          	lw	s5,120(a4)
    1806:	874a2303          	lw	t1,-1932(s4)
    180a:	953e                	add	a0,a0,a5
    180c:	9ebe                	add	t4,t4,a5
    180e:	983e                	add	a6,a6,a5
    1810:	96be                	add	a3,a3,a5
    1812:	87452503          	lw	a0,-1932(a0)
    1816:	874eae83          	lw	t4,-1932(t4)
    181a:	87482803          	lw	a6,-1932(a6)
    181e:	8746a683          	lw	a3,-1932(a3)
    1822:	0089dd13          	srli	s10,s3,0x8
    1826:	00895c13          	srli	s8,s2,0x8
    182a:	0084db13          	srli	s6,s1,0x8
    182e:	00845a13          	srli	s4,s0,0x8
    1832:	09e2                	slli	s3,s3,0x18
    1834:	0462                	slli	s0,s0,0x18
    1836:	0962                	slli	s2,s2,0x18
    1838:	04e2                	slli	s1,s1,0x18
    183a:	013d69b3          	or	s3,s10,s3
    183e:	012c6933          	or	s2,s8,s2
    1842:	00839d13          	slli	s10,t2,0x8
    1846:	00829c13          	slli	s8,t0,0x8
    184a:	009b64b3          	or	s1,s6,s1
    184e:	008a6a33          	or	s4,s4,s0
    1852:	008e1b13          	slli	s6,t3,0x8
    1856:	019fccb3          	xor	s9,t6,s9
    185a:	017f4bb3          	xor	s7,t5,s7
    185e:	0158cab3          	xor	s5,a7,s5
    1862:	01b34333          	xor	t1,t1,s11
    1866:	00861413          	slli	s0,a2,0x8
    186a:	0183d393          	srli	t2,t2,0x18
    186e:	8261                	srli	a2,a2,0x18
    1870:	0182d293          	srli	t0,t0,0x18
    1874:	018e5e13          	srli	t3,t3,0x18
    1878:	013ccfb3          	xor	t6,s9,s3
    187c:	007d63b3          	or	t2,s10,t2
    1880:	01051993          	slli	s3,a0,0x10
    1884:	012bcf33          	xor	t5,s7,s2
    1888:	005c62b3          	or	t0,s8,t0
    188c:	010e9913          	slli	s2,t4,0x10
    1890:	009ac8b3          	xor	a7,s5,s1
    1894:	01cb6e33          	or	t3,s6,t3
    1898:	01081493          	slli	s1,a6,0x10
    189c:	8c51                	or	s0,s0,a2
    189e:	01434333          	xor	t1,t1,s4
    18a2:	01069613          	slli	a2,a3,0x10
    18a6:	8141                	srli	a0,a0,0x10
    18a8:	010ede93          	srli	t4,t4,0x10
    18ac:	01085813          	srli	a6,a6,0x10
    18b0:	82c1                	srli	a3,a3,0x10
    18b2:	007fcfb3          	xor	t6,t6,t2
    18b6:	005f4f33          	xor	t5,t5,t0
    18ba:	01d96eb3          	or	t4,s2,t4
    18be:	01c8c8b3          	xor	a7,a7,t3
    18c2:	00834333          	xor	t1,t1,s0
    18c6:	00a9e533          	or	a0,s3,a0
    18ca:	0104e833          	or	a6,s1,a6
    18ce:	8ed1                	or	a3,a3,a2
    18d0:	01df43b3          	xor	t2,t5,t4
    18d4:	0108c833          	xor	a6,a7,a6
    18d8:	00afc533          	xor	a0,t6,a0
    18dc:	00d346b3          	xor	a3,t1,a3
    18e0:	0ff57293          	andi	t0,a0,255
    18e4:	0186df13          	srli	t5,a3,0x18
    18e8:	01855893          	srli	a7,a0,0x18
    18ec:	0183d493          	srli	s1,t2,0x18
    18f0:	01885f93          	srli	t6,a6,0x18
    18f4:	0ff87a93          	andi	s5,a6,255
    18f8:	0066d913          	srli	s2,a3,0x6
    18fc:	0063d413          	srli	s0,t2,0x6
    1900:	0ff3fa13          	andi	s4,t2,255
    1904:	00685e93          	srli	t4,a6,0x6
    1908:	0ff6f993          	andi	s3,a3,255
    190c:	00655613          	srli	a2,a0,0x6
    1910:	028a                	slli	t0,t0,0x2
    1912:	0f0a                	slli	t5,t5,0x2
    1914:	088a                	slli	a7,a7,0x2
    1916:	048a                	slli	s1,s1,0x2
    1918:	0f8a                	slli	t6,t6,0x2
    191a:	92be                	add	t0,t0,a5
    191c:	98be                	add	a7,a7,a5
    191e:	94be                	add	s1,s1,a5
    1920:	9fbe                	add	t6,t6,a5
    1922:	9f3e                	add	t5,t5,a5
    1924:	00e85e13          	srli	t3,a6,0xe
    1928:	00e6d313          	srli	t1,a3,0xe
    192c:	3fc97813          	andi	a6,s2,1020
    1930:	002a9693          	slli	a3,s5,0x2
    1934:	00e3d393          	srli	t2,t2,0xe
    1938:	3fc47413          	andi	s0,s0,1020
    193c:	0a0a                	slli	s4,s4,0x2
    193e:	3fcefe93          	andi	t4,t4,1020
    1942:	8139                	srli	a0,a0,0xe
    1944:	098a                	slli	s3,s3,0x2
    1946:	3fc67613          	andi	a2,a2,1020
    194a:	8742ad03          	lw	s10,-1932(t0)
    194e:	943e                	add	s0,s0,a5
    1950:	8748a283          	lw	t0,-1932(a7)
    1954:	874fa903          	lw	s2,-1932(t6)
    1958:	8744a883          	lw	a7,-1932(s1)
    195c:	874f2f03          	lw	t5,-1932(t5)
    1960:	9a3e                	add	s4,s4,a5
    1962:	9ebe                	add	t4,t4,a5
    1964:	96be                	add	a3,a3,a5
    1966:	983e                	add	a6,a6,a5
    1968:	99be                	add	s3,s3,a5
    196a:	963e                	add	a2,a2,a5
    196c:	3fc3ff93          	andi	t6,t2,1020
    1970:	3fce7e13          	andi	t3,t3,1020
    1974:	3fc37313          	andi	t1,t1,1020
    1978:	3fc57513          	andi	a0,a0,1020
    197c:	87442483          	lw	s1,-1932(s0)
    1980:	87482383          	lw	t2,-1932(a6)
    1984:	874ea403          	lw	s0,-1932(t4)
    1988:	08472803          	lw	a6,132(a4)
    198c:	87462e83          	lw	t4,-1932(a2)
    1990:	8746ac03          	lw	s8,-1932(a3)
    1994:	8749ab03          	lw	s6,-1932(s3)
    1998:	08072a83          	lw	s5,128(a4)
    199c:	874a2c83          	lw	s9,-1932(s4)
    19a0:	08872683          	lw	a3,136(a4)
    19a4:	08c72603          	lw	a2,140(a4)
    19a8:	9e3e                	add	t3,t3,a5
    19aa:	953e                	add	a0,a0,a5
    19ac:	933e                	add	t1,t1,a5
    19ae:	97fe                	add	a5,a5,t6
    19b0:	874e2a03          	lw	s4,-1932(t3)
    19b4:	87432303          	lw	t1,-1932(t1)
    19b8:	87452983          	lw	s3,-1932(a0)
    19bc:	8747a503          	lw	a0,-1932(a5)
    19c0:	008f5e13          	srli	t3,t5,0x8
    19c4:	0088db93          	srli	s7,a7,0x8
    19c8:	00895793          	srli	a5,s2,0x8
    19cc:	0082dd93          	srli	s11,t0,0x8
    19d0:	0f62                	slli	t5,t5,0x18
    19d2:	02e2                	slli	t0,t0,0x18
    19d4:	08e2                	slli	a7,a7,0x18
    19d6:	0962                	slli	s2,s2,0x18
    19d8:	015d4ab3          	xor	s5,s10,s5
    19dc:	00dc46b3          	xor	a3,s8,a3
    19e0:	011be8b3          	or	a7,s7,a7
    19e4:	0127e933          	or	s2,a5,s2
    19e8:	00839b93          	slli	s7,t2,0x8
    19ec:	01ee6f33          	or	t5,t3,t5
    19f0:	00849d13          	slli	s10,s1,0x8
    19f4:	010cccb3          	xor	s9,s9,a6
    19f8:	005de2b3          	or	t0,s11,t0
    19fc:	00841813          	slli	a6,s0,0x8
    1a00:	0183d393          	srli	t2,t2,0x18
    1a04:	00cb4633          	xor	a2,s6,a2
    1a08:	80e1                	srli	s1,s1,0x18
    1a0a:	008e9b13          	slli	s6,t4,0x8
    1a0e:	8061                	srli	s0,s0,0x18
    1a10:	018ede93          	srli	t4,t4,0x18
    1a14:	0116cfb3          	xor	t6,a3,a7
    1a18:	005cccb3          	xor	s9,s9,t0
    1a1c:	00886433          	or	s0,a6,s0
    1a20:	01035293          	srli	t0,t1,0x10
    1a24:	007be6b3          	or	a3,s7,t2
    1a28:	01db6b33          	or	s6,s6,t4
    1a2c:	01051893          	slli	a7,a0,0x10
    1a30:	01eacf33          	xor	t5,s5,t5
    1a34:	009d64b3          	or	s1,s10,s1
    1a38:	010a1a93          	slli	s5,s4,0x10
    1a3c:	01031793          	slli	a5,t1,0x10
    1a40:	010a5a13          	srli	s4,s4,0x10
    1a44:	01099313          	slli	t1,s3,0x10
    1a48:	01264633          	xor	a2,a2,s2
    1a4c:	0109d993          	srli	s3,s3,0x10
    1a50:	8141                	srli	a0,a0,0x10
    1a52:	008cce33          	xor	t3,s9,s0
    1a56:	009f4f33          	xor	t5,t5,s1
    1a5a:	014aeeb3          	or	t4,s5,s4
    1a5e:	0057e7b3          	or	a5,a5,t0
    1a62:	01336333          	or	t1,t1,s3
    1a66:	01664633          	xor	a2,a2,s6
    1a6a:	00dfc6b3          	xor	a3,t6,a3
    1a6e:	00a8e533          	or	a0,a7,a0
    1a72:	00fe4833          	xor	a6,t3,a5
    1a76:	01df4eb3          	xor	t4,t5,t4
    1a7a:	0066c6b3          	xor	a3,a3,t1
    1a7e:	8d31                	xor	a0,a0,a2
    1a80:	0ff87993          	andi	s3,a6,255
    1a84:	0ff57e13          	andi	t3,a0,255
    1a88:	0ffef913          	andi	s2,t4,255
    1a8c:	01855493          	srli	s1,a0,0x18
    1a90:	00685f93          	srli	t6,a6,0x6
    1a94:	00e6d313          	srli	t1,a3,0xe
    1a98:	018ed413          	srli	s0,t4,0x18
    1a9c:	0066df13          	srli	t5,a3,0x6
    1aa0:	00e55893          	srli	a7,a0,0xe
    1aa4:	0ff6f393          	andi	t2,a3,255
    1aa8:	01885613          	srli	a2,a6,0x18
    1aac:	0186d293          	srli	t0,a3,0x18
    1ab0:	67a5                	lui	a5,0x9
    1ab2:	a6078a13          	addi	s4,a5,-1440 # 8a60 <rcon_tab>
    1ab6:	00299693          	slli	a3,s3,0x2
    1aba:	002e1793          	slli	a5,t3,0x2
    1abe:	8119                	srli	a0,a0,0x6
    1ac0:	006ede13          	srli	t3,t4,0x6
    1ac4:	090a                	slli	s2,s2,0x2
    1ac6:	048a                	slli	s1,s1,0x2
    1ac8:	3fcfff93          	andi	t6,t6,1020
    1acc:	3fc37313          	andi	t1,t1,1020
    1ad0:	040a                	slli	s0,s0,0x2
    1ad2:	3fcf7f13          	andi	t5,t5,1020
    1ad6:	3fc8f893          	andi	a7,a7,1020
    1ada:	038a                	slli	t2,t2,0x2
    1adc:	060a                	slli	a2,a2,0x2
    1ade:	028a                	slli	t0,t0,0x2
    1ae0:	9952                	add	s2,s2,s4
    1ae2:	93d2                	add	t2,t2,s4
    1ae4:	9652                	add	a2,a2,s4
    1ae6:	3fc57c93          	andi	s9,a0,1020
    1aea:	00eede93          	srli	t4,t4,0xe
    1aee:	00fa0533          	add	a0,s4,a5
    1af2:	94d2                	add	s1,s1,s4
    1af4:	00e85793          	srli	a5,a6,0xe
    1af8:	9fd2                	add	t6,t6,s4
    1afa:	9352                	add	t1,t1,s4
    1afc:	96d2                	add	a3,a3,s4
    1afe:	9452                	add	s0,s0,s4
    1b00:	9f52                	add	t5,t5,s4
    1b02:	98d2                	add	a7,a7,s4
    1b04:	92d2                	add	t0,t0,s4
    1b06:	3fce7e13          	andi	t3,t3,1020
    1b0a:	07492a83          	lw	s5,116(s2)
    1b0e:	09472b83          	lw	s7,148(a4)
    1b12:	09872b03          	lw	s6,152(a4)
    1b16:	09072c03          	lw	s8,144(a4)
    1b1a:	58e4                	lw	s1,116(s1)
    1b1c:	074faf83          	lw	t6,116(t6)
    1b20:	07432303          	lw	t1,116(t1)
    1b24:	5af4                	lw	a3,116(a3)
    1b26:	5860                	lw	s0,116(s0)
    1b28:	074f2f03          	lw	t5,116(t5)
    1b2c:	0748a883          	lw	a7,116(a7)
    1b30:	0743a983          	lw	s3,116(t2)
    1b34:	3fc7f813          	andi	a6,a5,1020
    1b38:	07462383          	lw	t2,116(a2)
    1b3c:	9cd2                	add	s9,s9,s4
    1b3e:	07452903          	lw	s2,116(a0)
    1b42:	3fcef613          	andi	a2,t4,1020
    1b46:	09c72503          	lw	a0,156(a4)
    1b4a:	0742a283          	lw	t0,116(t0)
    1b4e:	9e52                	add	t3,t3,s4
    1b50:	010a07b3          	add	a5,s4,a6
    1b54:	9652                	add	a2,a2,s4
    1b56:	074cae83          	lw	t4,116(s9)
    1b5a:	074e2e03          	lw	t3,116(t3)
    1b5e:	07462803          	lw	a6,116(a2)
    1b62:	5bf0                	lw	a2,116(a5)
    1b64:	018ac733          	xor	a4,s5,s8
    1b68:	04e2                	slli	s1,s1,0x18
    1b6a:	0176c6b3          	xor	a3,a3,s7
    1b6e:	0462                	slli	s0,s0,0x18
    1b70:	0169c7b3          	xor	a5,s3,s6
    1b74:	03e2                	slli	t2,t2,0x18
    1b76:	00a94533          	xor	a0,s2,a0
    1b7a:	02e2                	slli	t0,t0,0x18
    1b7c:	0ea2                	slli	t4,t4,0x8
    1b7e:	8f25                	xor	a4,a4,s1
    1b80:	0fa2                	slli	t6,t6,0x8
    1b82:	8ea1                	xor	a3,a3,s0
    1b84:	0f22                	slli	t5,t5,0x8
    1b86:	0077c7b3          	xor	a5,a5,t2
    1b8a:	00554533          	xor	a0,a0,t0
    1b8e:	0e22                	slli	t3,t3,0x8
    1b90:	01f74733          	xor	a4,a4,t6
    1b94:	0342                	slli	t1,t1,0x10
    1b96:	01e6c6b3          	xor	a3,a3,t5
    1b9a:	08c2                	slli	a7,a7,0x10
    1b9c:	01d7c7b3          	xor	a5,a5,t4
    1ba0:	0842                	slli	a6,a6,0x10
    1ba2:	01c54533          	xor	a0,a0,t3
    1ba6:	0642                	slli	a2,a2,0x10
    1ba8:	00674333          	xor	t1,a4,t1
    1bac:	0116c6b3          	xor	a3,a3,a7
    1bb0:	0107ceb3          	xor	t4,a5,a6
    1bb4:	8d31                	xor	a0,a0,a2
    1bb6:	fc7fe06f          	j	b7c <encrypt+0x70>
    1bba:	4501                	li	a0,0
    1bbc:	8082                	ret
    1bbe:	01855813          	srli	a6,a0,0x18
    1bc2:	01835993          	srli	s3,t1,0x18
    1bc6:	0186da93          	srli	s5,a3,0x18
    1bca:	018ed493          	srli	s1,t4,0x18
    1bce:	67a9                	lui	a5,0xa
    1bd0:	a6078793          	addi	a5,a5,-1440 # 9a60 <it_tab+0x38c>
    1bd4:	00635713          	srli	a4,t1,0x6
    1bd8:	0ff37f13          	andi	t5,t1,255
    1bdc:	0066dc93          	srli	s9,a3,0x6
    1be0:	0ff6fe13          	andi	t3,a3,255
    1be4:	006ed393          	srli	t2,t4,0x6
    1be8:	0ffefb93          	andi	s7,t4,255
    1bec:	00655c13          	srli	s8,a0,0x6
    1bf0:	0ff57893          	andi	a7,a0,255
    1bf4:	080a                	slli	a6,a6,0x2
    1bf6:	098a                	slli	s3,s3,0x2
    1bf8:	0a8a                	slli	s5,s5,0x2
    1bfa:	048a                	slli	s1,s1,0x2
    1bfc:	82b9                	srli	a3,a3,0xe
    1bfe:	983e                	add	a6,a6,a5
    1c00:	3fc77f93          	andi	t6,a4,1020
    1c04:	00eede93          	srli	t4,t4,0xe
    1c08:	8139                	srli	a0,a0,0xe
    1c0a:	00e35313          	srli	t1,t1,0xe
    1c0e:	0f0a                	slli	t5,t5,0x2
    1c10:	3fccfc93          	andi	s9,s9,1020
    1c14:	0e0a                	slli	t3,t3,0x2
    1c16:	99be                	add	s3,s3,a5
    1c18:	3fc3f393          	andi	t2,t2,1020
    1c1c:	0b8a                	slli	s7,s7,0x2
    1c1e:	9abe                	add	s5,s5,a5
    1c20:	3fcc7c13          	andi	s8,s8,1020
    1c24:	088a                	slli	a7,a7,0x2
    1c26:	94be                	add	s1,s1,a5
    1c28:	87482a03          	lw	s4,-1932(a6)
    1c2c:	874aaa83          	lw	s5,-1932(s5)
    1c30:	8749a983          	lw	s3,-1932(s3)
    1c34:	8744a483          	lw	s1,-1932(s1)
    1c38:	9cbe                	add	s9,s9,a5
    1c3a:	9bbe                	add	s7,s7,a5
    1c3c:	9c3e                	add	s8,s8,a5
    1c3e:	3fc37313          	andi	t1,t1,1020
    1c42:	98be                	add	a7,a7,a5
    1c44:	01f78733          	add	a4,a5,t6
    1c48:	3fc6f813          	andi	a6,a3,1020
    1c4c:	9f3e                	add	t5,t5,a5
    1c4e:	3fcefe93          	andi	t4,t4,1020
    1c52:	9e3e                	add	t3,t3,a5
    1c54:	93be                	add	t2,t2,a5
    1c56:	3fc57513          	andi	a0,a0,1020
    1c5a:	874ca403          	lw	s0,-1932(s9)
    1c5e:	874c2283          	lw	t0,-1932(s8)
    1c62:	87472f83          	lw	t6,-1932(a4)
    1c66:	8748a683          	lw	a3,-1932(a7)
    1c6a:	874ba703          	lw	a4,-1932(s7)
    1c6e:	8743a383          	lw	t2,-1932(t2)
    1c72:	874f2f03          	lw	t5,-1932(t5)
    1c76:	874e2e03          	lw	t3,-1932(t3)
    1c7a:	01862d83          	lw	s11,24(a2)
    1c7e:	01c62c83          	lw	s9,28(a2)
    1c82:	02062b83          	lw	s7,32(a2)
    1c86:	02462b03          	lw	s6,36(a2)
    1c8a:	953e                	add	a0,a0,a5
    1c8c:	006788b3          	add	a7,a5,t1
    1c90:	983e                	add	a6,a6,a5
    1c92:	9ebe                	add	t4,t4,a5
    1c94:	87452303          	lw	t1,-1932(a0)
    1c98:	874eae83          	lw	t4,-1932(t4)
    1c9c:	87482503          	lw	a0,-1932(a6)
    1ca0:	8748a883          	lw	a7,-1932(a7)
    1ca4:	008a5d13          	srli	s10,s4,0x8
    1ca8:	0089d813          	srli	a6,s3,0x8
    1cac:	008adc13          	srli	s8,s5,0x8
    1cb0:	018a9913          	slli	s2,s5,0x18
    1cb4:	0a62                	slli	s4,s4,0x18
    1cb6:	0084da93          	srli	s5,s1,0x8
    1cba:	09e2                	slli	s3,s3,0x18
    1cbc:	04e2                	slli	s1,s1,0x18
    1cbe:	014d6a33          	or	s4,s10,s4
    1cc2:	013869b3          	or	s3,a6,s3
    1cc6:	00841d13          	slli	s10,s0,0x8
    1cca:	00839813          	slli	a6,t2,0x8
    1cce:	012c6933          	or	s2,s8,s2
    1cd2:	0166cb33          	xor	s6,a3,s6
    1cd6:	00829c13          	slli	s8,t0,0x8
    1cda:	009ae6b3          	or	a3,s5,s1
    1cde:	01bf4db3          	xor	s11,t5,s11
    1ce2:	008f9a93          	slli	s5,t6,0x8
    1ce6:	019e4cb3          	xor	s9,t3,s9
    1cea:	01774bb3          	xor	s7,a4,s7
    1cee:	8061                	srli	s0,s0,0x18
    1cf0:	0183d393          	srli	t2,t2,0x18
    1cf4:	0182d293          	srli	t0,t0,0x18
    1cf8:	018fdf93          	srli	t6,t6,0x18
    1cfc:	014dcf33          	xor	t5,s11,s4
    1d00:	008d6433          	or	s0,s10,s0
    1d04:	013cce33          	xor	t3,s9,s3
    1d08:	010e9d13          	slli	s10,t4,0x10
    1d0c:	007863b3          	or	t2,a6,t2
    1d10:	01031993          	slli	s3,t1,0x10
    1d14:	012bc733          	xor	a4,s7,s2
    1d18:	005c62b3          	or	t0,s8,t0
    1d1c:	01089493          	slli	s1,a7,0x10
    1d20:	01faefb3          	or	t6,s5,t6
    1d24:	01051813          	slli	a6,a0,0x10
    1d28:	00db46b3          	xor	a3,s6,a3
    1d2c:	010ede93          	srli	t4,t4,0x10
    1d30:	01035313          	srli	t1,t1,0x10
    1d34:	0108d893          	srli	a7,a7,0x10
    1d38:	8141                	srli	a0,a0,0x10
    1d3a:	008f4f33          	xor	t5,t5,s0
    1d3e:	007e4e33          	xor	t3,t3,t2
    1d42:	0069e333          	or	t1,s3,t1
    1d46:	0114e8b3          	or	a7,s1,a7
    1d4a:	00a86533          	or	a0,a6,a0
    1d4e:	01dd6eb3          	or	t4,s10,t4
    1d52:	00574733          	xor	a4,a4,t0
    1d56:	01f6c6b3          	xor	a3,a3,t6
    1d5a:	01df4d33          	xor	s10,t5,t4
    1d5e:	006e4833          	xor	a6,t3,t1
    1d62:	01174733          	xor	a4,a4,a7
    1d66:	8ea9                	xor	a3,a3,a0
    1d68:	0ffd7313          	andi	t1,s10,255
    1d6c:	0186d513          	srli	a0,a3,0x18
    1d70:	00685413          	srli	s0,a6,0x6
    1d74:	00e75993          	srli	s3,a4,0xe
    1d78:	0ff87f13          	andi	t5,a6,255
    1d7c:	018d5893          	srli	a7,s10,0x18
    1d80:	00675393          	srli	t2,a4,0x6
    1d84:	00e6d293          	srli	t0,a3,0xe
    1d88:	0ff77e93          	andi	t4,a4,255
    1d8c:	01885e13          	srli	t3,a6,0x18
    1d90:	8361                	srli	a4,a4,0x18
    1d92:	0066d913          	srli	s2,a3,0x6
    1d96:	006d5493          	srli	s1,s10,0x6
    1d9a:	030a                	slli	t1,t1,0x2
    1d9c:	050a                	slli	a0,a0,0x2
    1d9e:	3fc47413          	andi	s0,s0,1020
    1da2:	3fc9f993          	andi	s3,s3,1020
    1da6:	0f0a                	slli	t5,t5,0x2
    1da8:	088a                	slli	a7,a7,0x2
    1daa:	3fc3f393          	andi	t2,t2,1020
    1dae:	3fc2f293          	andi	t0,t0,1020
    1db2:	0e8a                	slli	t4,t4,0x2
    1db4:	0e0a                	slli	t3,t3,0x2
    1db6:	0ff6f693          	andi	a3,a3,255
    1dba:	070a                	slli	a4,a4,0x2
    1dbc:	00e85f93          	srli	t6,a6,0xe
    1dc0:	933e                	add	t1,t1,a5
    1dc2:	99be                	add	s3,s3,a5
    1dc4:	9f3e                	add	t5,t5,a5
    1dc6:	92be                	add	t0,t0,a5
    1dc8:	9ebe                	add	t4,t4,a5
    1dca:	9e3e                	add	t3,t3,a5
    1dcc:	068a                	slli	a3,a3,0x2
    1dce:	973e                	add	a4,a4,a5
    1dd0:	953e                	add	a0,a0,a5
    1dd2:	943e                	add	s0,s0,a5
    1dd4:	98be                	add	a7,a7,a5
    1dd6:	93be                	add	t2,t2,a5
    1dd8:	3fc97913          	andi	s2,s2,1020
    1ddc:	00ed5d13          	srli	s10,s10,0xe
    1de0:	3fc4f493          	andi	s1,s1,1020
    1de4:	8749aa03          	lw	s4,-1932(s3)
    1de8:	87452503          	lw	a0,-1932(a0)
    1dec:	8742a983          	lw	s3,-1932(t0)
    1df0:	87442403          	lw	s0,-1932(s0)
    1df4:	87432283          	lw	t0,-1932(t1)
    1df8:	8748a883          	lw	a7,-1932(a7)
    1dfc:	8743a383          	lw	t2,-1932(t2)
    1e00:	874f2c03          	lw	s8,-1932(t5)
    1e04:	874eab83          	lw	s7,-1932(t4)
    1e08:	02862303          	lw	t1,40(a2)
    1e0c:	03062e83          	lw	t4,48(a2)
    1e10:	02c62b03          	lw	s6,44(a2)
    1e14:	993e                	add	s2,s2,a5
    1e16:	874e2f03          	lw	t5,-1932(t3)
    1e1a:	3fcd7d13          	andi	s10,s10,1020
    1e1e:	87472803          	lw	a6,-1932(a4)
    1e22:	00d78e33          	add	t3,a5,a3
    1e26:	94be                	add	s1,s1,a5
    1e28:	3fcff713          	andi	a4,t6,1020
    1e2c:	874e2c83          	lw	s9,-1932(t3)
    1e30:	87492f83          	lw	t6,-1932(s2)
    1e34:	01a786b3          	add	a3,a5,s10
    1e38:	8744a903          	lw	s2,-1932(s1)
    1e3c:	973e                	add	a4,a4,a5
    1e3e:	03462a83          	lw	s5,52(a2)
    1e42:	8746a483          	lw	s1,-1932(a3)
    1e46:	87472e03          	lw	t3,-1932(a4)
    1e4a:	00855d13          	srli	s10,a0,0x8
    1e4e:	0088d693          	srli	a3,a7,0x8
    1e52:	008f5d93          	srli	s11,t5,0x8
    1e56:	01851713          	slli	a4,a0,0x18
    1e5a:	08e2                	slli	a7,a7,0x18
    1e5c:	00885513          	srli	a0,a6,0x8
    1e60:	0f62                	slli	t5,t5,0x18
    1e62:	0862                	slli	a6,a6,0x18
    1e64:	00ed6733          	or	a4,s10,a4
    1e68:	01edef33          	or	t5,s11,t5
    1e6c:	0062c333          	xor	t1,t0,t1
    1e70:	016c4b33          	xor	s6,s8,s6
    1e74:	00841293          	slli	t0,s0,0x8
    1e78:	00839c13          	slli	s8,t2,0x8
    1e7c:	0116e8b3          	or	a7,a3,a7
    1e80:	01dbcbb3          	xor	s7,s7,t4
    1e84:	008f9d13          	slli	s10,t6,0x8
    1e88:	015ccab3          	xor	s5,s9,s5
    1e8c:	01056533          	or	a0,a0,a6
    1e90:	8061                	srli	s0,s0,0x18
    1e92:	00891813          	slli	a6,s2,0x8
    1e96:	0183d393          	srli	t2,t2,0x18
    1e9a:	018fdf93          	srli	t6,t6,0x18
    1e9e:	01895913          	srli	s2,s2,0x18
    1ea2:	01ebceb3          	xor	t4,s7,t5
    1ea6:	00e34333          	xor	t1,t1,a4
    1eaa:	010a1c93          	slli	s9,s4,0x10
    1eae:	010a5d93          	srli	s11,s4,0x10
    1eb2:	007c63b3          	or	t2,s8,t2
    1eb6:	01049b93          	slli	s7,s1,0x10
    1eba:	01099c13          	slli	s8,s3,0x10
    1ebe:	010e1f13          	slli	t5,t3,0x10
    1ec2:	0082e433          	or	s0,t0,s0
    1ec6:	011b48b3          	xor	a7,s6,a7
    1eca:	0109d993          	srli	s3,s3,0x10
    1ece:	01fd6fb3          	or	t6,s10,t6
    1ed2:	80c1                	srli	s1,s1,0x10
    1ed4:	00aac533          	xor	a0,s5,a0
    1ed8:	01286933          	or	s2,a6,s2
    1edc:	010e5e13          	srli	t3,t3,0x10
    1ee0:	03862a03          	lw	s4,56(a2)
    1ee4:	00834333          	xor	t1,t1,s0
    1ee8:	01bcecb3          	or	s9,s9,s11
    1eec:	0078c3b3          	xor	t2,a7,t2
    1ef0:	013c69b3          	or	s3,s8,s3
    1ef4:	01feceb3          	xor	t4,t4,t6
    1ef8:	009be4b3          	or	s1,s7,s1
    1efc:	01254533          	xor	a0,a0,s2
    1f00:	01cf6e33          	or	t3,t5,t3
    1f04:	01934333          	xor	t1,t1,s9
    1f08:	0133c6b3          	xor	a3,t2,s3
    1f0c:	009eceb3          	xor	t4,t4,s1
    1f10:	01c54533          	xor	a0,a0,t3
    1f14:	03860713          	addi	a4,a2,56
    1f18:	0186df93          	srli	t6,a3,0x18
    1f1c:	01855393          	srli	t2,a0,0x18
    1f20:	01835a93          	srli	s5,t1,0x18
    1f24:	018ed493          	srli	s1,t4,0x18
    1f28:	0ff6fb93          	andi	s7,a3,255
    1f2c:	0ffeff13          	andi	t5,t4,255
    1f30:	0ff57813          	andi	a6,a0,255
    1f34:	0ff37c93          	andi	s9,t1,255
    1f38:	0066dc13          	srli	s8,a3,0x6
    1f3c:	006ed293          	srli	t0,t4,0x6
    1f40:	00655413          	srli	s0,a0,0x6
    1f44:	00635e13          	srli	t3,t1,0x6
    1f48:	038a                	slli	t2,t2,0x2
    1f4a:	002f9993          	slli	s3,t6,0x2
    1f4e:	048a                	slli	s1,s1,0x2
    1f50:	0a8a                	slli	s5,s5,0x2
    1f52:	00778b33          	add	s6,a5,t2
    1f56:	01378fb3          	add	t6,a5,s3
    1f5a:	00e55893          	srli	a7,a0,0xe
    1f5e:	00e35913          	srli	s2,t1,0xe
    1f62:	00e6d613          	srli	a2,a3,0xe
    1f66:	002f1313          	slli	t1,t5,0x2
    1f6a:	002b9393          	slli	t2,s7,0x2
    1f6e:	9abe                	add	s5,s5,a5
    1f70:	3fc2f293          	andi	t0,t0,1020
    1f74:	3fc47513          	andi	a0,s0,1020
    1f78:	00281693          	slli	a3,a6,0x2
    1f7c:	00978f33          	add	t5,a5,s1
    1f80:	00eede93          	srli	t4,t4,0xe
    1f84:	0c8a                	slli	s9,s9,0x2
    1f86:	3fcc7c13          	andi	s8,s8,1020
    1f8a:	3fce7e13          	andi	t3,t3,1020
    1f8e:	874b2d03          	lw	s10,-1932(s6)
    1f92:	874aa983          	lw	s3,-1932(s5)
    1f96:	874f2483          	lw	s1,-1932(t5)
    1f9a:	874faa83          	lw	s5,-1932(t6)
    1f9e:	9cbe                	add	s9,s9,a5
    1fa0:	9c3e                	add	s8,s8,a5
    1fa2:	00578fb3          	add	t6,a5,t0
    1fa6:	00678f33          	add	t5,a5,t1
    1faa:	953e                	add	a0,a0,a5
    1fac:	00d78833          	add	a6,a5,a3
    1fb0:	9e3e                	add	t3,t3,a5
    1fb2:	3fcefe93          	andi	t4,t4,1020
    1fb6:	93be                	add	t2,t2,a5
    1fb8:	3fc8f893          	andi	a7,a7,1020
    1fbc:	3fc97913          	andi	s2,s2,1020
    1fc0:	3fc67613          	andi	a2,a2,1020
    1fc4:	874c2403          	lw	s0,-1932(s8)
    1fc8:	874fa283          	lw	t0,-1932(t6)
    1fcc:	874cad83          	lw	s11,-1932(s9)
    1fd0:	87452f83          	lw	t6,-1932(a0)
    1fd4:	00472c03          	lw	s8,4(a4)
    1fd8:	874e2503          	lw	a0,-1932(t3)
    1fdc:	00872b83          	lw	s7,8(a4)
    1fe0:	00c72b03          	lw	s6,12(a4)
    1fe4:	8743a383          	lw	t2,-1932(t2)
    1fe8:	874f2f03          	lw	t5,-1932(t5)
    1fec:	87482803          	lw	a6,-1932(a6)
    1ff0:	9ebe                	add	t4,t4,a5
    1ff2:	98be                	add	a7,a7,a5
    1ff4:	993e                	add	s2,s2,a5
    1ff6:	963e                	add	a2,a2,a5
    1ff8:	874eae03          	lw	t3,-1932(t4)
    1ffc:	8748a303          	lw	t1,-1932(a7)
    2000:	87462603          	lw	a2,-1932(a2)
    2004:	87492883          	lw	a7,-1932(s2)
    2008:	008d5e93          	srli	t4,s10,0x8
    200c:	0089dc93          	srli	s9,s3,0x8
    2010:	008ad693          	srli	a3,s5,0x8
    2014:	018a9913          	slli	s2,s5,0x18
    2018:	0d62                	slli	s10,s10,0x18
    201a:	0084da93          	srli	s5,s1,0x8
    201e:	09e2                	slli	s3,s3,0x18
    2020:	04e2                	slli	s1,s1,0x18
    2022:	01ba4a33          	xor	s4,s4,s11
    2026:	013ce9b3          	or	s3,s9,s3
    202a:	00841d93          	slli	s11,s0,0x8
    202e:	00829c93          	slli	s9,t0,0x8
    2032:	0126e933          	or	s2,a3,s2
    2036:	01684b33          	xor	s6,a6,s6
    203a:	01aeed33          	or	s10,t4,s10
    203e:	009ae833          	or	a6,s5,s1
    2042:	0183cc33          	xor	s8,t2,s8
    2046:	017f4bb3          	xor	s7,t5,s7
    204a:	008f9693          	slli	a3,t6,0x8
    204e:	00851a93          	slli	s5,a0,0x8
    2052:	018fdf93          	srli	t6,t6,0x18
    2056:	8161                	srli	a0,a0,0x18
    2058:	8061                	srli	s0,s0,0x18
    205a:	0182d293          	srli	t0,t0,0x18
    205e:	012bcf33          	xor	t5,s7,s2
    2062:	014d4eb3          	xor	t4,s10,s4
    2066:	008de433          	or	s0,s11,s0
    206a:	010e1a13          	slli	s4,t3,0x10
    206e:	013c43b3          	xor	t2,s8,s3
    2072:	005ce2b3          	or	t0,s9,t0
    2076:	01031993          	slli	s3,t1,0x10
    207a:	01089493          	slli	s1,a7,0x10
    207e:	00aaeab3          	or	s5,s5,a0
    2082:	01f6e6b3          	or	a3,a3,t6
    2086:	01061513          	slli	a0,a2,0x10
    208a:	010b4833          	xor	a6,s6,a6
    208e:	010e5e13          	srli	t3,t3,0x10
    2092:	01035313          	srli	t1,t1,0x10
    2096:	0108d893          	srli	a7,a7,0x10
    209a:	8241                	srli	a2,a2,0x10
    209c:	01ca6e33          	or	t3,s4,t3
    20a0:	0069e333          	or	t1,s3,t1
    20a4:	0114e8b3          	or	a7,s1,a7
    20a8:	8e49                	or	a2,a2,a0
    20aa:	008eceb3          	xor	t4,t4,s0
    20ae:	0053c3b3          	xor	t2,t2,t0
    20b2:	00df46b3          	xor	a3,t5,a3
    20b6:	01584833          	xor	a6,a6,s5
    20ba:	0116c6b3          	xor	a3,a3,a7
    20be:	01ceceb3          	xor	t4,t4,t3
    20c2:	0063c3b3          	xor	t2,t2,t1
    20c6:	00c84833          	xor	a6,a6,a2
    20ca:	0ff3f513          	andi	a0,t2,255
    20ce:	0ffef313          	andi	t1,t4,255
    20d2:	01885893          	srli	a7,a6,0x18
    20d6:	0063d293          	srli	t0,t2,0x6
    20da:	00e6d913          	srli	s2,a3,0xe
    20de:	018eda13          	srli	s4,t4,0x18
    20e2:	0066df93          	srli	t6,a3,0x6
    20e6:	00e85493          	srli	s1,a6,0xe
    20ea:	0ff6f993          	andi	s3,a3,255
    20ee:	0183da93          	srli	s5,t2,0x18
    20f2:	00685f13          	srli	t5,a6,0x6
    20f6:	0186d613          	srli	a2,a3,0x18
    20fa:	0ff87813          	andi	a6,a6,255
    20fe:	00251693          	slli	a3,a0,0x2
    2102:	006ed413          	srli	s0,t4,0x6
    2106:	030a                	slli	t1,t1,0x2
    2108:	088a                	slli	a7,a7,0x2
    210a:	3fc2f293          	andi	t0,t0,1020
    210e:	3fc97913          	andi	s2,s2,1020
    2112:	0a0a                	slli	s4,s4,0x2
    2114:	3fcfff93          	andi	t6,t6,1020
    2118:	3fc4f493          	andi	s1,s1,1020
    211c:	098a                	slli	s3,s3,0x2
    211e:	0a8a                	slli	s5,s5,0x2
    2120:	3fcf7f13          	andi	t5,t5,1020
    2124:	060a                	slli	a2,a2,0x2
    2126:	00eede13          	srli	t3,t4,0xe
    212a:	99be                	add	s3,s3,a5
    212c:	9abe                	add	s5,s5,a5
    212e:	00281513          	slli	a0,a6,0x2
    2132:	963e                	add	a2,a2,a5
    2134:	933e                	add	t1,t1,a5
    2136:	98be                	add	a7,a7,a5
    2138:	92be                	add	t0,t0,a5
    213a:	993e                	add	s2,s2,a5
    213c:	96be                	add	a3,a3,a5
    213e:	9a3e                	add	s4,s4,a5
    2140:	9fbe                	add	t6,t6,a5
    2142:	94be                	add	s1,s1,a5
    2144:	9f3e                	add	t5,t5,a5
    2146:	3fc47413          	andi	s0,s0,1020
    214a:	00e3d393          	srli	t2,t2,0xe
    214e:	01072d03          	lw	s10,16(a4)
    2152:	874a2a03          	lw	s4,-1932(s4)
    2156:	01872b83          	lw	s7,24(a4)
    215a:	874aae83          	lw	t4,-1932(s5)
    215e:	8748a883          	lw	a7,-1932(a7)
    2162:	8742a283          	lw	t0,-1932(t0)
    2166:	87492903          	lw	s2,-1932(s2)
    216a:	01472c83          	lw	s9,20(a4)
    216e:	874faf83          	lw	t6,-1932(t6)
    2172:	8744a483          	lw	s1,-1932(s1)
    2176:	8746a683          	lw	a3,-1932(a3)
    217a:	8749a803          	lw	a6,-1932(s3)
    217e:	3fce7b13          	andi	s6,t3,1020
    2182:	87432303          	lw	t1,-1932(t1)
    2186:	943e                	add	s0,s0,a5
    2188:	874f2f03          	lw	t5,-1932(t5)
    218c:	953e                	add	a0,a0,a5
    218e:	87462e03          	lw	t3,-1932(a2)
    2192:	3fc3f393          	andi	t2,t2,1020
    2196:	87442983          	lw	s3,-1932(s0)
    219a:	01678633          	add	a2,a5,s6
    219e:	01c72a83          	lw	s5,28(a4)
    21a2:	87452503          	lw	a0,-1932(a0)
    21a6:	93be                	add	t2,t2,a5
    21a8:	87462403          	lw	s0,-1932(a2)
    21ac:	8743a383          	lw	t2,-1932(t2)
    21b0:	0088dd93          	srli	s11,a7,0x8
    21b4:	018a1613          	slli	a2,s4,0x18
    21b8:	008a5c13          	srli	s8,s4,0x8
    21bc:	008edb13          	srli	s6,t4,0x8
    21c0:	008e5a13          	srli	s4,t3,0x8
    21c4:	0ee2                	slli	t4,t4,0x18
    21c6:	08e2                	slli	a7,a7,0x18
    21c8:	0e62                	slli	t3,t3,0x18
    21ca:	011de8b3          	or	a7,s11,a7
    21ce:	01784833          	xor	a6,a6,s7
    21d2:	00829d93          	slli	s11,t0,0x8
    21d6:	01a34333          	xor	t1,t1,s10
    21da:	0196ccb3          	xor	s9,a3,s9
    21de:	00cc6c33          	or	s8,s8,a2
    21e2:	008f9d13          	slli	s10,t6,0x8
    21e6:	00899613          	slli	a2,s3,0x8
    21ea:	01db6b33          	or	s6,s6,t4
    21ee:	008f1b93          	slli	s7,t5,0x8
    21f2:	0182d293          	srli	t0,t0,0x18
    21f6:	018fdf93          	srli	t6,t6,0x18
    21fa:	018f5f13          	srli	t5,t5,0x18
    21fe:	01554ab3          	xor	s5,a0,s5
    2202:	01ca6e33          	or	t3,s4,t3
    2206:	0189d993          	srli	s3,s3,0x18
    220a:	01134333          	xor	t1,t1,a7
    220e:	01049693          	slli	a3,s1,0x10
    2212:	005de2b3          	or	t0,s11,t0
    2216:	01091893          	slli	a7,s2,0x10
    221a:	01684b33          	xor	s6,a6,s6
    221e:	013669b3          	or	s3,a2,s3
    2222:	01041813          	slli	a6,s0,0x10
    2226:	01039d93          	slli	s11,t2,0x10
    222a:	01095913          	srli	s2,s2,0x10
    222e:	018cccb3          	xor	s9,s9,s8
    2232:	01fd6fb3          	or	t6,s10,t6
    2236:	80c1                	srli	s1,s1,0x10
    2238:	01ebef33          	or	t5,s7,t5
    223c:	8041                	srli	s0,s0,0x10
    223e:	01cac533          	xor	a0,s5,t3
    2242:	0103d393          	srli	t2,t2,0x10
    2246:	005342b3          	xor	t0,t1,t0
    224a:	0128e933          	or	s2,a7,s2
    224e:	01fcc633          	xor	a2,s9,t6
    2252:	8cd5                	or	s1,s1,a3
    2254:	01eb4eb3          	xor	t4,s6,t5
    2258:	00886433          	or	s0,a6,s0
    225c:	01354533          	xor	a0,a0,s3
    2260:	007de3b3          	or	t2,s11,t2
    2264:	0122c333          	xor	t1,t0,s2
    2268:	009646b3          	xor	a3,a2,s1
    226c:	008eceb3          	xor	t4,t4,s0
    2270:	00754533          	xor	a0,a0,t2
    2274:	02070713          	addi	a4,a4,32
    2278:	935fe06f          	j	bac <encrypt+0xa0>
    227c:	67a9                	lui	a5,0xa
    227e:	01862a03          	lw	s4,24(a2)
    2282:	a6078793          	addi	a5,a5,-1440 # 9a60 <it_tab+0x38c>
    2286:	b949                	j	1f18 <encrypt+0x140c>

00002288 <decrypt>:
    2288:	20864783          	lbu	a5,520(a2)
    228c:	8b89                	andi	a5,a5,2
    228e:	e399                	bnez	a5,2294 <decrypt+0xc>
    2290:	0820106f          	j	3312 <decrypt+0x108a>
    2294:	7179                	addi	sp,sp,-48
    2296:	00052303          	lw	t1,0(a0)
    229a:	10862703          	lw	a4,264(a2)
    229e:	00452e83          	lw	t4,4(a0)
    22a2:	00c52f83          	lw	t6,12(a0)
    22a6:	10c62683          	lw	a3,268(a2)
    22aa:	11062783          	lw	a5,272(a2)
    22ae:	d622                	sw	s0,44(sp)
    22b0:	00462803          	lw	a6,4(a2)
    22b4:	4500                	lw	s0,8(a0)
    22b6:	11462503          	lw	a0,276(a2)
    22ba:	d426                	sw	s1,40(sp)
    22bc:	d24a                	sw	s2,36(sp)
    22be:	d04e                	sw	s3,32(sp)
    22c0:	ce52                	sw	s4,28(sp)
    22c2:	cc56                	sw	s5,24(sp)
    22c4:	ca5a                	sw	s6,20(sp)
    22c6:	c85e                	sw	s7,16(sp)
    22c8:	c662                	sw	s8,12(sp)
    22ca:	c466                	sw	s9,8(sp)
    22cc:	c26a                	sw	s10,4(sp)
    22ce:	c06e                	sw	s11,0(sp)
    22d0:	4e31                	li	t3,12
    22d2:	00e34333          	xor	t1,t1,a4
    22d6:	00dec6b3          	xor	a3,t4,a3
    22da:	8c3d                	xor	s0,s0,a5
    22dc:	00afc533          	xor	a0,t6,a0
    22e0:	11860713          	addi	a4,a2,280
    22e4:	01c81463          	bne	a6,t3,22ec <decrypt+0x64>
    22e8:	6dc0106f          	j	39c4 <decrypt+0x173c>
    22ec:	4e39                	li	t3,14
    22ee:	01c81463          	bne	a6,t3,22f6 <decrypt+0x6e>
    22f2:	0240106f          	j	3316 <decrypt+0x108e>
    22f6:	4629                	li	a2,10
    22f8:	02c80663          	beq	a6,a2,2324 <decrypt+0x9c>
    22fc:	c580                	sw	s0,8(a1)
    22fe:	5432                	lw	s0,44(sp)
    2300:	c5c8                	sw	a0,12(a1)
    2302:	0065a023          	sw	t1,0(a1)
    2306:	c1d4                	sw	a3,4(a1)
    2308:	54a2                	lw	s1,40(sp)
    230a:	5912                	lw	s2,36(sp)
    230c:	5982                	lw	s3,32(sp)
    230e:	4a72                	lw	s4,28(sp)
    2310:	4ae2                	lw	s5,24(sp)
    2312:	4b52                	lw	s6,20(sp)
    2314:	4bc2                	lw	s7,16(sp)
    2316:	4c32                	lw	s8,12(sp)
    2318:	4ca2                	lw	s9,8(sp)
    231a:	4d12                	lw	s10,4(sp)
    231c:	4d82                	lw	s11,0(sp)
    231e:	4505                	li	a0,1
    2320:	6145                	addi	sp,sp,48
    2322:	8082                	ret
    2324:	67a9                	lui	a5,0xa
    2326:	a6078793          	addi	a5,a5,-1440 # 9a60 <it_tab+0x38c>
    232a:	01845293          	srli	t0,s0,0x18
    232e:	01855f93          	srli	t6,a0,0x18
    2332:	01835f13          	srli	t5,t1,0x18
    2336:	0186d393          	srli	t2,a3,0x18
    233a:	0ff37b13          	andi	s6,t1,255
    233e:	00655c13          	srli	s8,a0,0x6
    2342:	0ff6fa93          	andi	s5,a3,255
    2346:	00635e93          	srli	t4,t1,0x6
    234a:	0ff47813          	andi	a6,s0,255
    234e:	0066de13          	srli	t3,a3,0x6
    2352:	0ff57b93          	andi	s7,a0,255
    2356:	00645613          	srli	a2,s0,0x6
    235a:	00229493          	slli	s1,t0,0x2
    235e:	002f9913          	slli	s2,t6,0x2
    2362:	002f1893          	slli	a7,t5,0x2
    2366:	038a                	slli	t2,t2,0x2
    2368:	009782b3          	add	t0,a5,s1
    236c:	01178f33          	add	t5,a5,a7
    2370:	93be                	add	t2,t2,a5
    2372:	01278fb3          	add	t6,a5,s2
    2376:	8039                	srli	s0,s0,0xe
    2378:	00e35313          	srli	t1,t1,0xe
    237c:	3fcc7c13          	andi	s8,s8,1020
    2380:	0a8a                	slli	s5,s5,0x2
    2382:	0b8a                	slli	s7,s7,0x2
    2384:	8139                	srli	a0,a0,0xe
    2386:	82b9                	srli	a3,a3,0xe
    2388:	0b0a                	slli	s6,s6,0x2
    238a:	3fcefe93          	andi	t4,t4,1020
    238e:	080a                	slli	a6,a6,0x2
    2390:	3fce7e13          	andi	t3,t3,1020
    2394:	3fc67613          	andi	a2,a2,1020
    2398:	c743aa03          	lw	s4,-908(t2)
    239c:	c742a983          	lw	s3,-908(t0)
    23a0:	c74fa903          	lw	s2,-908(t6)
    23a4:	c74f2483          	lw	s1,-908(t5)
    23a8:	01578fb3          	add	t6,a5,s5
    23ac:	9b3e                	add	s6,s6,a5
    23ae:	01878f33          	add	t5,a5,s8
    23b2:	9ebe                	add	t4,t4,a5
    23b4:	9e3e                	add	t3,t3,a5
    23b6:	3fc47893          	andi	a7,s0,1020
    23ba:	983e                	add	a6,a6,a5
    23bc:	01778433          	add	s0,a5,s7
    23c0:	3fc37a93          	andi	s5,t1,1020
    23c4:	963e                	add	a2,a2,a5
    23c6:	3fc57513          	andi	a0,a0,1020
    23ca:	3fc6f693          	andi	a3,a3,1020
    23ce:	c74ea383          	lw	t2,-908(t4)
    23d2:	c74e2283          	lw	t0,-908(t3)
    23d6:	c74b2e83          	lw	t4,-908(s6)
    23da:	c74fa303          	lw	t1,-908(t6)
    23de:	00c72d83          	lw	s11,12(a4)
    23e2:	c74f2f03          	lw	t5,-908(t5)
    23e6:	c7462603          	lw	a2,-908(a2)
    23ea:	00072c83          	lw	s9,0(a4)
    23ee:	00472f83          	lw	t6,4(a4)
    23f2:	c7482803          	lw	a6,-908(a6)
    23f6:	00872b03          	lw	s6,8(a4)
    23fa:	98be                	add	a7,a7,a5
    23fc:	953e                	add	a0,a0,a5
    23fe:	9abe                	add	s5,s5,a5
    2400:	c7442403          	lw	s0,-908(s0)
    2404:	96be                	add	a3,a3,a5
    2406:	c748ae03          	lw	t3,-908(a7)
    240a:	c746a683          	lw	a3,-908(a3)
    240e:	c7452883          	lw	a7,-908(a0)
    2412:	c74aa503          	lw	a0,-908(s5)
    2416:	008a5d13          	srli	s10,s4,0x8
    241a:	0089dc13          	srli	s8,s3,0x8
    241e:	00895b93          	srli	s7,s2,0x8
    2422:	0084da93          	srli	s5,s1,0x8
    2426:	0a62                	slli	s4,s4,0x18
    2428:	04e2                	slli	s1,s1,0x18
    242a:	09e2                	slli	s3,s3,0x18
    242c:	0962                	slli	s2,s2,0x18
    242e:	014d6a33          	or	s4,s10,s4
    2432:	013c69b3          	or	s3,s8,s3
    2436:	008f1d13          	slli	s10,t5,0x8
    243a:	00839c13          	slli	s8,t2,0x8
    243e:	012be933          	or	s2,s7,s2
    2442:	009aeab3          	or	s5,s5,s1
    2446:	00829b93          	slli	s7,t0,0x8
    244a:	019eccb3          	xor	s9,t4,s9
    244e:	01f34fb3          	xor	t6,t1,t6
    2452:	01684b33          	xor	s6,a6,s6
    2456:	01b44433          	xor	s0,s0,s11
    245a:	00861493          	slli	s1,a2,0x8
    245e:	018f5f13          	srli	t5,t5,0x18
    2462:	8261                	srli	a2,a2,0x18
    2464:	0183d393          	srli	t2,t2,0x18
    2468:	0182d293          	srli	t0,t0,0x18
    246c:	014cceb3          	xor	t4,s9,s4
    2470:	01ed6f33          	or	t5,s10,t5
    2474:	010e1a13          	slli	s4,t3,0x10
    2478:	013fc333          	xor	t1,t6,s3
    247c:	007c63b3          	or	t2,s8,t2
    2480:	012b4833          	xor	a6,s6,s2
    2484:	005be2b3          	or	t0,s7,t0
    2488:	01051913          	slli	s2,a0,0x10
    248c:	8cd1                	or	s1,s1,a2
    248e:	01089993          	slli	s3,a7,0x10
    2492:	01069613          	slli	a2,a3,0x10
    2496:	0108df93          	srli	t6,a7,0x10
    249a:	01544433          	xor	s0,s0,s5
    249e:	010e5e13          	srli	t3,t3,0x10
    24a2:	8141                	srli	a0,a0,0x10
    24a4:	82c1                	srli	a3,a3,0x10
    24a6:	01ca6e33          	or	t3,s4,t3
    24aa:	00734333          	xor	t1,t1,t2
    24ae:	01f9e8b3          	or	a7,s3,t6
    24b2:	00584833          	xor	a6,a6,t0
    24b6:	8c25                	xor	s0,s0,s1
    24b8:	01eeceb3          	xor	t4,t4,t5
    24bc:	00a96533          	or	a0,s2,a0
    24c0:	8ed1                	or	a3,a3,a2
    24c2:	01ceceb3          	xor	t4,t4,t3
    24c6:	00a84533          	xor	a0,a6,a0
    24ca:	8ea1                	xor	a3,a3,s0
    24cc:	011348b3          	xor	a7,t1,a7
    24d0:	0ffef993          	andi	s3,t4,255
    24d4:	0188d613          	srli	a2,a7,0x18
    24d8:	0066db13          	srli	s6,a3,0x6
    24dc:	00e55293          	srli	t0,a0,0xe
    24e0:	0ff8f913          	andi	s2,a7,255
    24e4:	01855a93          	srli	s5,a0,0x18
    24e8:	006ede13          	srli	t3,t4,0x6
    24ec:	00e6df93          	srli	t6,a3,0xe
    24f0:	0ff57493          	andi	s1,a0,255
    24f4:	0186d813          	srli	a6,a3,0x18
    24f8:	018eda13          	srli	s4,t4,0x18
    24fc:	0068d313          	srli	t1,a7,0x6
    2500:	0ff6f693          	andi	a3,a3,255
    2504:	8119                	srli	a0,a0,0x6
    2506:	098a                	slli	s3,s3,0x2
    2508:	060a                	slli	a2,a2,0x2
    250a:	3fcb7b13          	andi	s6,s6,1020
    250e:	3fc2f293          	andi	t0,t0,1020
    2512:	090a                	slli	s2,s2,0x2
    2514:	0a8a                	slli	s5,s5,0x2
    2516:	3fce7e13          	andi	t3,t3,1020
    251a:	3fcfff93          	andi	t6,t6,1020
    251e:	048a                	slli	s1,s1,0x2
    2520:	080a                	slli	a6,a6,0x2
    2522:	0a0a                	slli	s4,s4,0x2
    2524:	99be                	add	s3,s3,a5
    2526:	9b3e                	add	s6,s6,a5
    2528:	993e                	add	s2,s2,a5
    252a:	9abe                	add	s5,s5,a5
    252c:	94be                	add	s1,s1,a5
    252e:	9a3e                	add	s4,s4,a5
    2530:	963e                	add	a2,a2,a5
    2532:	92be                	add	t0,t0,a5
    2534:	9e3e                	add	t3,t3,a5
    2536:	9fbe                	add	t6,t6,a5
    2538:	983e                	add	a6,a6,a5
    253a:	00eedf13          	srli	t5,t4,0xe
    253e:	00269413          	slli	s0,a3,0x2
    2542:	3fc57393          	andi	t2,a0,1020
    2546:	3fc37313          	andi	t1,t1,1020
    254a:	00e8d893          	srli	a7,a7,0xe
    254e:	c74b2e83          	lw	t4,-908(s6)
    2552:	c74aa683          	lw	a3,-908(s5)
    2556:	c749ac03          	lw	s8,-908(s3)
    255a:	c7492b83          	lw	s7,-908(s2)
    255e:	c744ab03          	lw	s6,-908(s1)
    2562:	c7462603          	lw	a2,-908(a2)
    2566:	c742a283          	lw	t0,-908(t0)
    256a:	c74e2e03          	lw	t3,-908(t3)
    256e:	c74faf83          	lw	t6,-908(t6)
    2572:	01072983          	lw	s3,16(a4)
    2576:	01472903          	lw	s2,20(a4)
    257a:	4f04                	lw	s1,24(a4)
    257c:	943e                	add	s0,s0,a5
    257e:	c7482803          	lw	a6,-908(a6)
    2582:	933e                	add	t1,t1,a5
    2584:	c74a2503          	lw	a0,-908(s4)
    2588:	93be                	add	t2,t2,a5
    258a:	3fcf7f13          	andi	t5,t5,1020
    258e:	3fc8f893          	andi	a7,a7,1020
    2592:	c7442a03          	lw	s4,-908(s0)
    2596:	c7432303          	lw	t1,-908(t1)
    259a:	c743a383          	lw	t2,-908(t2)
    259e:	4f40                	lw	s0,28(a4)
    25a0:	9f3e                	add	t5,t5,a5
    25a2:	98be                	add	a7,a7,a5
    25a4:	c74f2f03          	lw	t5,-908(t5)
    25a8:	c748a883          	lw	a7,-908(a7)
    25ac:	00865d13          	srli	s10,a2,0x8
    25b0:	00885a93          	srli	s5,a6,0x8
    25b4:	00855d93          	srli	s11,a0,0x8
    25b8:	0086dc93          	srli	s9,a3,0x8
    25bc:	0662                	slli	a2,a2,0x18
    25be:	06e2                	slli	a3,a3,0x18
    25c0:	0862                	slli	a6,a6,0x18
    25c2:	0562                	slli	a0,a0,0x18
    25c4:	00cd6633          	or	a2,s10,a2
    25c8:	00dcecb3          	or	s9,s9,a3
    25cc:	009b44b3          	xor	s1,s6,s1
    25d0:	00831d13          	slli	s10,t1,0x8
    25d4:	008a4433          	xor	s0,s4,s0
    25d8:	013c49b3          	xor	s3,s8,s3
    25dc:	012bc933          	xor	s2,s7,s2
    25e0:	008e9c13          	slli	s8,t4,0x8
    25e4:	008e1b93          	slli	s7,t3,0x8
    25e8:	010ae833          	or	a6,s5,a6
    25ec:	00ade533          	or	a0,s11,a0
    25f0:	00839b13          	slli	s6,t2,0x8
    25f4:	018ede93          	srli	t4,t4,0x18
    25f8:	0183d393          	srli	t2,t2,0x18
    25fc:	018e5e13          	srli	t3,t3,0x18
    2600:	01835313          	srli	t1,t1,0x18
    2604:	00c9c9b3          	xor	s3,s3,a2
    2608:	01029a93          	slli	s5,t0,0x10
    260c:	01994933          	xor	s2,s2,s9
    2610:	01cbee33          	or	t3,s7,t3
    2614:	010f9613          	slli	a2,t6,0x10
    2618:	006d6333          	or	t1,s10,t1
    261c:	010f1b93          	slli	s7,t5,0x10
    2620:	007b6b33          	or	s6,s6,t2
    2624:	01dc6eb3          	or	t4,s8,t4
    2628:	01089393          	slli	t2,a7,0x10
    262c:	0104c833          	xor	a6,s1,a6
    2630:	8d21                	xor	a0,a0,s0
    2632:	0102d293          	srli	t0,t0,0x10
    2636:	010fdf93          	srli	t6,t6,0x10
    263a:	010f5f13          	srli	t5,t5,0x10
    263e:	0108d893          	srli	a7,a7,0x10
    2642:	01d9ceb3          	xor	t4,s3,t4
    2646:	01c946b3          	xor	a3,s2,t3
    264a:	01f66fb3          	or	t6,a2,t6
    264e:	01ebef33          	or	t5,s7,t5
    2652:	01654533          	xor	a0,a0,s6
    2656:	005ae2b3          	or	t0,s5,t0
    265a:	00684833          	xor	a6,a6,t1
    265e:	0113e8b3          	or	a7,t2,a7
    2662:	01e84833          	xor	a6,a6,t5
    2666:	005ec2b3          	xor	t0,t4,t0
    266a:	01f6c6b3          	xor	a3,a3,t6
    266e:	011548b3          	xor	a7,a0,a7
    2672:	0186df13          	srli	t5,a3,0x18
    2676:	01885f93          	srli	t6,a6,0x18
    267a:	0188d413          	srli	s0,a7,0x18
    267e:	0182d393          	srli	t2,t0,0x18
    2682:	0ff2fb93          	andi	s7,t0,255
    2686:	0068db13          	srli	s6,a7,0x6
    268a:	0ff6fa93          	andi	s5,a3,255
    268e:	0062de93          	srli	t4,t0,0x6
    2692:	0ff87a13          	andi	s4,a6,255
    2696:	0066de13          	srli	t3,a3,0x6
    269a:	0ff8f913          	andi	s2,a7,255
    269e:	00685493          	srli	s1,a6,0x6
    26a2:	0f0a                	slli	t5,t5,0x2
    26a4:	0f8a                	slli	t6,t6,0x2
    26a6:	040a                	slli	s0,s0,0x2
    26a8:	038a                	slli	t2,t2,0x2
    26aa:	9f3e                	add	t5,t5,a5
    26ac:	9fbe                	add	t6,t6,a5
    26ae:	943e                	add	s0,s0,a5
    26b0:	93be                	add	t2,t2,a5
    26b2:	0b8a                	slli	s7,s7,0x2
    26b4:	3fcb7b13          	andi	s6,s6,1020
    26b8:	00e85313          	srli	t1,a6,0xe
    26bc:	00e8d513          	srli	a0,a7,0xe
    26c0:	00e2d613          	srli	a2,t0,0xe
    26c4:	00291893          	slli	a7,s2,0x2
    26c8:	3fc4f813          	andi	a6,s1,1020
    26cc:	0a8a                	slli	s5,s5,0x2
    26ce:	3fcefe93          	andi	t4,t4,1020
    26d2:	0a0a                	slli	s4,s4,0x2
    26d4:	3fce7e13          	andi	t3,t3,1020
    26d8:	82b9                	srli	a3,a3,0xe
    26da:	c74f2983          	lw	s3,-908(t5)
    26de:	c74fa903          	lw	s2,-908(t6)
    26e2:	c7442483          	lw	s1,-908(s0)
    26e6:	01678fb3          	add	t6,a5,s6
    26ea:	c743a403          	lw	s0,-908(t2)
    26ee:	01778f33          	add	t5,a5,s7
    26f2:	9abe                	add	s5,s5,a5
    26f4:	9ebe                	add	t4,t4,a5
    26f6:	9a3e                	add	s4,s4,a5
    26f8:	9e3e                	add	t3,t3,a5
    26fa:	98be                	add	a7,a7,a5
    26fc:	983e                	add	a6,a6,a5
    26fe:	3fc37313          	andi	t1,t1,1020
    2702:	3fc57513          	andi	a0,a0,1020
    2706:	3fc67613          	andi	a2,a2,1020
    270a:	3fc6f693          	andi	a3,a3,1020
    270e:	c74fa383          	lw	t2,-908(t6)
    2712:	c74ea283          	lw	t0,-908(t4)
    2716:	c74e2f83          	lw	t6,-908(t3)
    271a:	c74aae83          	lw	t4,-908(s5)
    271e:	c74a2e03          	lw	t3,-908(s4)
    2722:	02c72d83          	lw	s11,44(a4)
    2726:	c7482803          	lw	a6,-908(a6)
    272a:	c74f2f03          	lw	t5,-908(t5)
    272e:	02072c83          	lw	s9,32(a4)
    2732:	02472b83          	lw	s7,36(a4)
    2736:	02872a83          	lw	s5,40(a4)
    273a:	c748a883          	lw	a7,-908(a7)
    273e:	933e                	add	t1,t1,a5
    2740:	953e                	add	a0,a0,a5
    2742:	963e                	add	a2,a2,a5
    2744:	96be                	add	a3,a3,a5
    2746:	c7432303          	lw	t1,-908(t1)
    274a:	c7452503          	lw	a0,-908(a0)
    274e:	c7462603          	lw	a2,-908(a2)
    2752:	c746a683          	lw	a3,-908(a3)
    2756:	0089dd13          	srli	s10,s3,0x8
    275a:	00895c13          	srli	s8,s2,0x8
    275e:	0084db13          	srli	s6,s1,0x8
    2762:	00845a13          	srli	s4,s0,0x8
    2766:	09e2                	slli	s3,s3,0x18
    2768:	0462                	slli	s0,s0,0x18
    276a:	0962                	slli	s2,s2,0x18
    276c:	04e2                	slli	s1,s1,0x18
    276e:	013d69b3          	or	s3,s10,s3
    2772:	012c6933          	or	s2,s8,s2
    2776:	00839d13          	slli	s10,t2,0x8
    277a:	00829c13          	slli	s8,t0,0x8
    277e:	009b64b3          	or	s1,s6,s1
    2782:	008a6a33          	or	s4,s4,s0
    2786:	008f9b13          	slli	s6,t6,0x8
    278a:	019f4cb3          	xor	s9,t5,s9
    278e:	017ecbb3          	xor	s7,t4,s7
    2792:	015e4ab3          	xor	s5,t3,s5
    2796:	01b8c8b3          	xor	a7,a7,s11
    279a:	00881413          	slli	s0,a6,0x8
    279e:	0183d393          	srli	t2,t2,0x18
    27a2:	01885813          	srli	a6,a6,0x18
    27a6:	0182d293          	srli	t0,t0,0x18
    27aa:	018fdf93          	srli	t6,t6,0x18
    27ae:	013ccf33          	xor	t5,s9,s3
    27b2:	007d63b3          	or	t2,s10,t2
    27b6:	01031993          	slli	s3,t1,0x10
    27ba:	012bceb3          	xor	t4,s7,s2
    27be:	005c62b3          	or	t0,s8,t0
    27c2:	01051913          	slli	s2,a0,0x10
    27c6:	009ace33          	xor	t3,s5,s1
    27ca:	01fb6fb3          	or	t6,s6,t6
    27ce:	01061493          	slli	s1,a2,0x10
    27d2:	01046433          	or	s0,s0,a6
    27d6:	0148c8b3          	xor	a7,a7,s4
    27da:	01069813          	slli	a6,a3,0x10
    27de:	01035313          	srli	t1,t1,0x10
    27e2:	8141                	srli	a0,a0,0x10
    27e4:	8241                	srli	a2,a2,0x10
    27e6:	82c1                	srli	a3,a3,0x10
    27e8:	007f4f33          	xor	t5,t5,t2
    27ec:	005eceb3          	xor	t4,t4,t0
    27f0:	01fe4e33          	xor	t3,t3,t6
    27f4:	0088c8b3          	xor	a7,a7,s0
    27f8:	0069e333          	or	t1,s3,t1
    27fc:	00a96533          	or	a0,s2,a0
    2800:	8e45                	or	a2,a2,s1
    2802:	00d866b3          	or	a3,a6,a3
    2806:	00d8c6b3          	xor	a3,a7,a3
    280a:	006f4333          	xor	t1,t5,t1
    280e:	00aec533          	xor	a0,t4,a0
    2812:	00ce4633          	xor	a2,t3,a2
    2816:	0ff37293          	andi	t0,t1,255
    281a:	01855f93          	srli	t6,a0,0x18
    281e:	0066df13          	srli	t5,a3,0x6
    2822:	00e65e93          	srli	t4,a2,0xe
    2826:	01865e13          	srli	t3,a2,0x18
    282a:	0186d493          	srli	s1,a3,0x18
    282e:	00635893          	srli	a7,t1,0x6
    2832:	0ff67413          	andi	s0,a2,255
    2836:	01835393          	srli	t2,t1,0x18
    283a:	028a                	slli	t0,t0,0x2
    283c:	0ff57b13          	andi	s6,a0,255
    2840:	0e0a                	slli	t3,t3,0x2
    2842:	00655813          	srli	a6,a0,0x6
    2846:	0f8a                	slli	t6,t6,0x2
    2848:	3fcf7f13          	andi	t5,t5,1020
    284c:	3fcefe93          	andi	t4,t4,1020
    2850:	048a                	slli	s1,s1,0x2
    2852:	005789b3          	add	s3,a5,t0
    2856:	01c78933          	add	s2,a5,t3
    285a:	9fbe                	add	t6,t6,a5
    285c:	9f3e                	add	t5,t5,a5
    285e:	9ebe                	add	t4,t4,a5
    2860:	94be                	add	s1,s1,a5
    2862:	3fc8f293          	andi	t0,a7,1020
    2866:	00241e13          	slli	t3,s0,0x2
    286a:	038a                	slli	t2,t2,0x2
    286c:	0b0a                	slli	s6,s6,0x2
    286e:	3fc87813          	andi	a6,a6,1020
    2872:	00e35313          	srli	t1,t1,0xe
    2876:	c74f2403          	lw	s0,-908(t5)
    287a:	c74faa03          	lw	s4,-908(t6)
    287e:	03072c83          	lw	s9,48(a4)
    2882:	93be                	add	t2,t2,a5
    2884:	9b3e                	add	s6,s6,a5
    2886:	92be                	add	t0,t0,a5
    2888:	983e                	add	a6,a6,a5
    288a:	0ff6fa93          	andi	s5,a3,255
    288e:	00e6d893          	srli	a7,a3,0xe
    2892:	9e3e                	add	t3,t3,a5
    2894:	c749a683          	lw	a3,-908(s3)
    2898:	3fc37313          	andi	t1,t1,1020
    289c:	c74eaf83          	lw	t6,-908(t4)
    28a0:	c7492983          	lw	s3,-908(s2)
    28a4:	c744a903          	lw	s2,-908(s1)
    28a8:	c74b2e83          	lw	t4,-908(s6)
    28ac:	c743a483          	lw	s1,-908(t2)
    28b0:	c74e2e03          	lw	t3,-908(t3)
    28b4:	c742a383          	lw	t2,-908(t0)
    28b8:	03872b03          	lw	s6,56(a4)
    28bc:	c7482283          	lw	t0,-908(a6)
    28c0:	933e                	add	t1,t1,a5
    28c2:	8219                	srli	a2,a2,0x6
    28c4:	c7432303          	lw	t1,-908(t1)
    28c8:	0a8a                	slli	s5,s5,0x2
    28ca:	3fc67613          	andi	a2,a2,1020
    28ce:	9abe                	add	s5,s5,a5
    28d0:	963e                	add	a2,a2,a5
    28d2:	00895b93          	srli	s7,s2,0x8
    28d6:	8139                	srli	a0,a0,0xe
    28d8:	3fc8f893          	andi	a7,a7,1020
    28dc:	0962                	slli	s2,s2,0x18
    28de:	c7462803          	lw	a6,-908(a2)
    28e2:	03c72d83          	lw	s11,60(a4)
    28e6:	03472f03          	lw	t5,52(a4)
    28ea:	c74aa603          	lw	a2,-908(s5)
    28ee:	008a5d13          	srli	s10,s4,0x8
    28f2:	012be933          	or	s2,s7,s2
    28f6:	98be                	add	a7,a7,a5
    28f8:	00829b93          	slli	s7,t0,0x8
    28fc:	016e4b33          	xor	s6,t3,s6
    2900:	3fc57513          	andi	a0,a0,1020
    2904:	0a62                	slli	s4,s4,0x18
    2906:	0182d293          	srli	t0,t0,0x18
    290a:	c748a883          	lw	a7,-908(a7)
    290e:	014d6a33          	or	s4,s10,s4
    2912:	012b4e33          	xor	t3,s6,s2
    2916:	00841d13          	slli	s10,s0,0x8
    291a:	005be2b3          	or	t0,s7,t0
    291e:	01031913          	slli	s2,t1,0x10
    2922:	953e                	add	a0,a0,a5
    2924:	0196ccb3          	xor	s9,a3,s9
    2928:	8061                	srli	s0,s0,0x18
    292a:	01035313          	srli	t1,t1,0x10
    292e:	c7452503          	lw	a0,-908(a0)
    2932:	0089dc13          	srli	s8,s3,0x8
    2936:	014cc6b3          	xor	a3,s9,s4
    293a:	008d6433          	or	s0,s10,s0
    293e:	010f9a13          	slli	s4,t6,0x10
    2942:	005e4e33          	xor	t3,t3,t0
    2946:	0084da93          	srli	s5,s1,0x8
    294a:	00696333          	or	t1,s2,t1
    294e:	04e2                	slli	s1,s1,0x18
    2950:	09e2                	slli	s3,s3,0x18
    2952:	010fdf93          	srli	t6,t6,0x10
    2956:	006e4333          	xor	t1,t3,t1
    295a:	013c69b3          	or	s3,s8,s3
    295e:	009aeab3          	or	s5,s5,s1
    2962:	00839c13          	slli	s8,t2,0x8
    2966:	01fa6fb3          	or	t6,s4,t6
    296a:	01eecf33          	xor	t5,t4,t5
    296e:	01b64633          	xor	a2,a2,s11
    2972:	8ea1                	xor	a3,a3,s0
    2974:	0183d393          	srli	t2,t2,0x18
    2978:	01f6c6b3          	xor	a3,a3,t6
    297c:	013f4eb3          	xor	t4,t5,s3
    2980:	007c63b3          	or	t2,s8,t2
    2984:	00881493          	slli	s1,a6,0x8
    2988:	01089993          	slli	s3,a7,0x10
    298c:	01885813          	srli	a6,a6,0x18
    2990:	0108df13          	srli	t5,a7,0x10
    2994:	01564633          	xor	a2,a2,s5
    2998:	01835a93          	srli	s5,t1,0x18
    299c:	0104e4b3          	or	s1,s1,a6
    29a0:	007eceb3          	xor	t4,t4,t2
    29a4:	01051813          	slli	a6,a0,0x10
    29a8:	01e9e8b3          	or	a7,s3,t5
    29ac:	0066de13          	srli	t3,a3,0x6
    29b0:	0ff6f993          	andi	s3,a3,255
    29b4:	00e6df13          	srli	t5,a3,0xe
    29b8:	8141                	srli	a0,a0,0x10
    29ba:	82e1                	srli	a3,a3,0x18
    29bc:	0a8a                	slli	s5,s5,0x2
    29be:	011ec8b3          	xor	a7,t4,a7
    29c2:	00a86533          	or	a0,a6,a0
    29c6:	9abe                	add	s5,s5,a5
    29c8:	8e25                	xor	a2,a2,s1
    29ca:	068a                	slli	a3,a3,0x2
    29cc:	8e29                	xor	a2,a2,a0
    29ce:	0188d493          	srli	s1,a7,0x18
    29d2:	00d78533          	add	a0,a5,a3
    29d6:	c74aa683          	lw	a3,-908(s5)
    29da:	00665e93          	srli	t4,a2,0x6
    29de:	00e35293          	srli	t0,t1,0xe
    29e2:	0ff8f913          	andi	s2,a7,255
    29e6:	00e65f93          	srli	t6,a2,0xe
    29ea:	0ff37413          	andi	s0,t1,255
    29ee:	01865813          	srli	a6,a2,0x18
    29f2:	0068da13          	srli	s4,a7,0x6
    29f6:	00635313          	srli	t1,t1,0x6
    29fa:	0ff67613          	andi	a2,a2,255
    29fe:	048a                	slli	s1,s1,0x2
    2a00:	00e8d893          	srli	a7,a7,0xe
    2a04:	94be                	add	s1,s1,a5
    2a06:	3fc37393          	andi	t2,t1,1020
    2a0a:	098a                	slli	s3,s3,0x2
    2a0c:	3fcefe93          	andi	t4,t4,1020
    2a10:	3fc2f293          	andi	t0,t0,1020
    2a14:	090a                	slli	s2,s2,0x2
    2a16:	3fce7e13          	andi	t3,t3,1020
    2a1a:	3fcfff93          	andi	t6,t6,1020
    2a1e:	040a                	slli	s0,s0,0x2
    2a20:	080a                	slli	a6,a6,0x2
    2a22:	3fca7a13          	andi	s4,s4,1020
    2a26:	3fcf7f13          	andi	t5,t5,1020
    2a2a:	060a                	slli	a2,a2,0x2
    2a2c:	3fc8f893          	andi	a7,a7,1020
    2a30:	c744a483          	lw	s1,-908(s1)
    2a34:	99be                	add	s3,s3,a5
    2a36:	993e                	add	s2,s2,a5
    2a38:	943e                	add	s0,s0,a5
    2a3a:	9a3e                	add	s4,s4,a5
    2a3c:	963e                	add	a2,a2,a5
    2a3e:	9ebe                	add	t4,t4,a5
    2a40:	92be                	add	t0,t0,a5
    2a42:	9e3e                	add	t3,t3,a5
    2a44:	9fbe                	add	t6,t6,a5
    2a46:	983e                	add	a6,a6,a5
    2a48:	9f3e                	add	t5,t5,a5
    2a4a:	93be                	add	t2,t2,a5
    2a4c:	98be                	add	a7,a7,a5
    2a4e:	0086da93          	srli	s5,a3,0x8
    2a52:	06e2                	slli	a3,a3,0x18
    2a54:	c74a2303          	lw	t1,-908(s4)
    2a58:	c74eae83          	lw	t4,-908(t4)
    2a5c:	c742a283          	lw	t0,-908(t0)
    2a60:	c74e2e03          	lw	t3,-908(t3)
    2a64:	c74faf83          	lw	t6,-908(t6)
    2a68:	c7482803          	lw	a6,-908(a6)
    2a6c:	c74f2f03          	lw	t5,-908(t5)
    2a70:	c749aa03          	lw	s4,-908(s3)
    2a74:	c7452503          	lw	a0,-908(a0)
    2a78:	c7492983          	lw	s3,-908(s2)
    2a7c:	c743a383          	lw	t2,-908(t2)
    2a80:	c7442903          	lw	s2,-908(s0)
    2a84:	c748a883          	lw	a7,-908(a7)
    2a88:	c7462403          	lw	s0,-908(a2)
    2a8c:	00daeab3          	or	s5,s5,a3
    2a90:	04072c03          	lw	s8,64(a4)
    2a94:	4734                	lw	a3,72(a4)
    2a96:	0084db13          	srli	s6,s1,0x8
    2a9a:	01849613          	slli	a2,s1,0x18
    2a9e:	00cb6633          	or	a2,s6,a2
    2aa2:	00d94933          	xor	s2,s2,a3
    2aa6:	04472b03          	lw	s6,68(a4)
    2aaa:	4774                	lw	a3,76(a4)
    2aac:	00885493          	srli	s1,a6,0x8
    2ab0:	00855b93          	srli	s7,a0,0x8
    2ab4:	0862                	slli	a6,a6,0x18
    2ab6:	0562                	slli	a0,a0,0x18
    2ab8:	008e1c93          	slli	s9,t3,0x8
    2abc:	00831d13          	slli	s10,t1,0x8
    2ac0:	8c35                	xor	s0,s0,a3
    2ac2:	018a4a33          	xor	s4,s4,s8
    2ac6:	0169c9b3          	xor	s3,s3,s6
    2aca:	008e9c13          	slli	s8,t4,0x8
    2ace:	0104e833          	or	a6,s1,a6
    2ad2:	00abe533          	or	a0,s7,a0
    2ad6:	00839493          	slli	s1,t2,0x8
    2ada:	018ede93          	srli	t4,t4,0x18
    2ade:	018e5e13          	srli	t3,t3,0x18
    2ae2:	01835313          	srli	t1,t1,0x18
    2ae6:	0183d393          	srli	t2,t2,0x18
    2aea:	00ca4a33          	xor	s4,s4,a2
    2aee:	01029d93          	slli	s11,t0,0x10
    2af2:	0159c9b3          	xor	s3,s3,s5
    2af6:	01ccee33          	or	t3,s9,t3
    2afa:	010f9613          	slli	a2,t6,0x10
    2afe:	006d6333          	or	t1,s10,t1
    2b02:	010f1a93          	slli	s5,t5,0x10
    2b06:	0074e3b3          	or	t2,s1,t2
    2b0a:	01dc6eb3          	or	t4,s8,t4
    2b0e:	01094833          	xor	a6,s2,a6
    2b12:	01089c13          	slli	s8,a7,0x10
    2b16:	8d21                	xor	a0,a0,s0
    2b18:	0102d293          	srli	t0,t0,0x10
    2b1c:	010fdf93          	srli	t6,t6,0x10
    2b20:	010f5f13          	srli	t5,t5,0x10
    2b24:	0108d893          	srli	a7,a7,0x10
    2b28:	01da4eb3          	xor	t4,s4,t4
    2b2c:	01c9c6b3          	xor	a3,s3,t3
    2b30:	01f66fb3          	or	t6,a2,t6
    2b34:	00684833          	xor	a6,a6,t1
    2b38:	00754533          	xor	a0,a0,t2
    2b3c:	005de2b3          	or	t0,s11,t0
    2b40:	01eaef33          	or	t5,s5,t5
    2b44:	011c68b3          	or	a7,s8,a7
    2b48:	005ec2b3          	xor	t0,t4,t0
    2b4c:	01f6c6b3          	xor	a3,a3,t6
    2b50:	01e84f33          	xor	t5,a6,t5
    2b54:	011548b3          	xor	a7,a0,a7
    2b58:	0186dc93          	srli	s9,a3,0x18
    2b5c:	018f5c13          	srli	s8,t5,0x18
    2b60:	0188d413          	srli	s0,a7,0x18
    2b64:	0182d393          	srli	t2,t0,0x18
    2b68:	0ff2f313          	andi	t1,t0,255
    2b6c:	0068df93          	srli	t6,a7,0x6
    2b70:	0ff6fa93          	andi	s5,a3,255
    2b74:	0062de93          	srli	t4,t0,0x6
    2b78:	0fff7b13          	andi	s6,t5,255
    2b7c:	0066de13          	srli	t3,a3,0x6
    2b80:	0ff8fa13          	andi	s4,a7,255
    2b84:	006f5513          	srli	a0,t5,0x6
    2b88:	0c8a                	slli	s9,s9,0x2
    2b8a:	0c0a                	slli	s8,s8,0x2
    2b8c:	040a                	slli	s0,s0,0x2
    2b8e:	038a                	slli	t2,t2,0x2
    2b90:	9cbe                	add	s9,s9,a5
    2b92:	9c3e                	add	s8,s8,a5
    2b94:	943e                	add	s0,s0,a5
    2b96:	93be                	add	t2,t2,a5
    2b98:	030a                	slli	t1,t1,0x2
    2b9a:	00ef5813          	srli	a6,t5,0xe
    2b9e:	00e8d893          	srli	a7,a7,0xe
    2ba2:	0b0a                	slli	s6,s6,0x2
    2ba4:	00e2d613          	srli	a2,t0,0xe
    2ba8:	3fcfff93          	andi	t6,t6,1020
    2bac:	0a8a                	slli	s5,s5,0x2
    2bae:	3fcefe93          	andi	t4,t4,1020
    2bb2:	3fce7e13          	andi	t3,t3,1020
    2bb6:	0a0a                	slli	s4,s4,0x2
    2bb8:	3fc57513          	andi	a0,a0,1020
    2bbc:	82b9                	srli	a3,a3,0xe
    2bbe:	c74ca983          	lw	s3,-908(s9)
    2bc2:	c7442483          	lw	s1,-908(s0)
    2bc6:	c74c2903          	lw	s2,-908(s8)
    2bca:	c743a403          	lw	s0,-908(t2)
    2bce:	00678f33          	add	t5,a5,t1
    2bd2:	9fbe                	add	t6,t6,a5
    2bd4:	9abe                	add	s5,s5,a5
    2bd6:	9ebe                	add	t4,t4,a5
    2bd8:	9e3e                	add	t3,t3,a5
    2bda:	9a3e                	add	s4,s4,a5
    2bdc:	3fc8f313          	andi	t1,a7,1020
    2be0:	953e                	add	a0,a0,a5
    2be2:	016788b3          	add	a7,a5,s6
    2be6:	3fc87813          	andi	a6,a6,1020
    2bea:	3fc67613          	andi	a2,a2,1020
    2bee:	3fc6f693          	andi	a3,a3,1020
    2bf2:	c74fa383          	lw	t2,-908(t6)
    2bf6:	c74ea283          	lw	t0,-908(t4)
    2bfa:	c74e2f83          	lw	t6,-908(t3)
    2bfe:	c74aae83          	lw	t4,-908(s5)
    2c02:	05c72d83          	lw	s11,92(a4)
    2c06:	c7452503          	lw	a0,-908(a0)
    2c0a:	c74f2f03          	lw	t5,-908(t5)
    2c0e:	05072c83          	lw	s9,80(a4)
    2c12:	05472b83          	lw	s7,84(a4)
    2c16:	c748a883          	lw	a7,-908(a7)
    2c1a:	05872a83          	lw	s5,88(a4)
    2c1e:	c74a2e03          	lw	t3,-908(s4)
    2c22:	983e                	add	a6,a6,a5
    2c24:	933e                	add	t1,t1,a5
    2c26:	963e                	add	a2,a2,a5
    2c28:	96be                	add	a3,a3,a5
    2c2a:	c7482803          	lw	a6,-908(a6)
    2c2e:	c7432303          	lw	t1,-908(t1)
    2c32:	c7462603          	lw	a2,-908(a2)
    2c36:	c746a683          	lw	a3,-908(a3)
    2c3a:	0089dd13          	srli	s10,s3,0x8
    2c3e:	00895c13          	srli	s8,s2,0x8
    2c42:	0084db13          	srli	s6,s1,0x8
    2c46:	00845a13          	srli	s4,s0,0x8
    2c4a:	09e2                	slli	s3,s3,0x18
    2c4c:	0462                	slli	s0,s0,0x18
    2c4e:	0962                	slli	s2,s2,0x18
    2c50:	04e2                	slli	s1,s1,0x18
    2c52:	013d69b3          	or	s3,s10,s3
    2c56:	012c6933          	or	s2,s8,s2
    2c5a:	00839d13          	slli	s10,t2,0x8
    2c5e:	00829c13          	slli	s8,t0,0x8
    2c62:	009b64b3          	or	s1,s6,s1
    2c66:	008a6a33          	or	s4,s4,s0
    2c6a:	008f9b13          	slli	s6,t6,0x8
    2c6e:	019f4cb3          	xor	s9,t5,s9
    2c72:	017ecbb3          	xor	s7,t4,s7
    2c76:	0158cab3          	xor	s5,a7,s5
    2c7a:	01be4e33          	xor	t3,t3,s11
    2c7e:	00851413          	slli	s0,a0,0x8
    2c82:	0183d393          	srli	t2,t2,0x18
    2c86:	8161                	srli	a0,a0,0x18
    2c88:	0182d293          	srli	t0,t0,0x18
    2c8c:	018fdf93          	srli	t6,t6,0x18
    2c90:	013ccf33          	xor	t5,s9,s3
    2c94:	007d63b3          	or	t2,s10,t2
    2c98:	01081993          	slli	s3,a6,0x10
    2c9c:	012bceb3          	xor	t4,s7,s2
    2ca0:	005c62b3          	or	t0,s8,t0
    2ca4:	01031913          	slli	s2,t1,0x10
    2ca8:	009ac8b3          	xor	a7,s5,s1
    2cac:	01fb6fb3          	or	t6,s6,t6
    2cb0:	01061493          	slli	s1,a2,0x10
    2cb4:	8c49                	or	s0,s0,a0
    2cb6:	014e4e33          	xor	t3,t3,s4
    2cba:	01069513          	slli	a0,a3,0x10
    2cbe:	01085813          	srli	a6,a6,0x10
    2cc2:	01035313          	srli	t1,t1,0x10
    2cc6:	8241                	srli	a2,a2,0x10
    2cc8:	82c1                	srli	a3,a3,0x10
    2cca:	007f4f33          	xor	t5,t5,t2
    2cce:	005eceb3          	xor	t4,t4,t0
    2cd2:	01f8c8b3          	xor	a7,a7,t6
    2cd6:	008e4e33          	xor	t3,t3,s0
    2cda:	0109e833          	or	a6,s3,a6
    2cde:	00696333          	or	t1,s2,t1
    2ce2:	8e45                	or	a2,a2,s1
    2ce4:	8ec9                	or	a3,a3,a0
    2ce6:	006ec333          	xor	t1,t4,t1
    2cea:	00c8c633          	xor	a2,a7,a2
    2cee:	00de46b3          	xor	a3,t3,a3
    2cf2:	010f4833          	xor	a6,t5,a6
    2cf6:	0ff87f13          	andi	t5,a6,255
    2cfa:	01835993          	srli	s3,t1,0x18
    2cfe:	0066d393          	srli	t2,a3,0x6
    2d02:	00e65913          	srli	s2,a2,0xe
    2d06:	0ff37e93          	andi	t4,t1,255
    2d0a:	01865493          	srli	s1,a2,0x18
    2d0e:	00685293          	srli	t0,a6,0x6
    2d12:	0186d413          	srli	s0,a3,0x18
    2d16:	01885f93          	srli	t6,a6,0x18
    2d1a:	0ff67a13          	andi	s4,a2,255
    2d1e:	00635893          	srli	a7,t1,0x6
    2d22:	0ff6f513          	andi	a0,a3,255
    2d26:	0f8a                	slli	t6,t6,0x2
    2d28:	0f0a                	slli	t5,t5,0x2
    2d2a:	098a                	slli	s3,s3,0x2
    2d2c:	3fc3f393          	andi	t2,t2,1020
    2d30:	3fc97913          	andi	s2,s2,1020
    2d34:	0e8a                	slli	t4,t4,0x2
    2d36:	048a                	slli	s1,s1,0x2
    2d38:	3fc2f293          	andi	t0,t0,1020
    2d3c:	040a                	slli	s0,s0,0x2
    2d3e:	8219                	srli	a2,a2,0x6
    2d40:	993e                	add	s2,s2,a5
    2d42:	94be                	add	s1,s1,a5
    2d44:	943e                	add	s0,s0,a5
    2d46:	9f3e                	add	t5,t5,a5
    2d48:	99be                	add	s3,s3,a5
    2d4a:	93be                	add	t2,t2,a5
    2d4c:	9ebe                	add	t4,t4,a5
    2d4e:	92be                	add	t0,t0,a5
    2d50:	00e6de13          	srli	t3,a3,0xe
    2d54:	0a0a                	slli	s4,s4,0x2
    2d56:	01f786b3          	add	a3,a5,t6
    2d5a:	3fc8f893          	andi	a7,a7,1020
    2d5e:	00e35f93          	srli	t6,t1,0xe
    2d62:	00e85813          	srli	a6,a6,0xe
    2d66:	050a                	slli	a0,a0,0x2
    2d68:	3fc67613          	andi	a2,a2,1020
    2d6c:	c7492303          	lw	t1,-908(s2)
    2d70:	c749a983          	lw	s3,-908(s3)
    2d74:	c744a903          	lw	s2,-908(s1)
    2d78:	c743a383          	lw	t2,-908(t2)
    2d7c:	c74f2f03          	lw	t5,-908(t5)
    2d80:	06072c83          	lw	s9,96(a4)
    2d84:	c74eae83          	lw	t4,-908(t4)
    2d88:	06472b83          	lw	s7,100(a4)
    2d8c:	9a3e                	add	s4,s4,a5
    2d8e:	c742a283          	lw	t0,-908(t0)
    2d92:	98be                	add	a7,a7,a5
    2d94:	c7442483          	lw	s1,-908(s0)
    2d98:	953e                	add	a0,a0,a5
    2d9a:	c746a403          	lw	s0,-908(a3)
    2d9e:	963e                	add	a2,a2,a5
    2da0:	3fcff693          	andi	a3,t6,1020
    2da4:	3fce7e13          	andi	t3,t3,1020
    2da8:	3fc87813          	andi	a6,a6,1020
    2dac:	c748af83          	lw	t6,-908(a7)
    2db0:	06c72d83          	lw	s11,108(a4)
    2db4:	c74a2883          	lw	a7,-908(s4)
    2db8:	c7462603          	lw	a2,-908(a2)
    2dbc:	06872a83          	lw	s5,104(a4)
    2dc0:	c7452503          	lw	a0,-908(a0)
    2dc4:	9e3e                	add	t3,t3,a5
    2dc6:	983e                	add	a6,a6,a5
    2dc8:	96be                	add	a3,a3,a5
    2dca:	c74e2e03          	lw	t3,-908(t3)
    2dce:	c7482803          	lw	a6,-908(a6)
    2dd2:	c746a683          	lw	a3,-908(a3)
    2dd6:	0089dd13          	srli	s10,s3,0x8
    2dda:	00895c13          	srli	s8,s2,0x8
    2dde:	0084db13          	srli	s6,s1,0x8
    2de2:	00845a13          	srli	s4,s0,0x8
    2de6:	09e2                	slli	s3,s3,0x18
    2de8:	0462                	slli	s0,s0,0x18
    2dea:	0962                	slli	s2,s2,0x18
    2dec:	04e2                	slli	s1,s1,0x18
    2dee:	013d69b3          	or	s3,s10,s3
    2df2:	012c6933          	or	s2,s8,s2
    2df6:	00839d13          	slli	s10,t2,0x8
    2dfa:	00829c13          	slli	s8,t0,0x8
    2dfe:	009b64b3          	or	s1,s6,s1
    2e02:	008a6a33          	or	s4,s4,s0
    2e06:	008f9b13          	slli	s6,t6,0x8
    2e0a:	019f4cb3          	xor	s9,t5,s9
    2e0e:	017ecbb3          	xor	s7,t4,s7
    2e12:	0158cab3          	xor	s5,a7,s5
    2e16:	01b54533          	xor	a0,a0,s11
    2e1a:	00861413          	slli	s0,a2,0x8
    2e1e:	0183d393          	srli	t2,t2,0x18
    2e22:	8261                	srli	a2,a2,0x18
    2e24:	0182d293          	srli	t0,t0,0x18
    2e28:	018fdf93          	srli	t6,t6,0x18
    2e2c:	013ccf33          	xor	t5,s9,s3
    2e30:	007d63b3          	or	t2,s10,t2
    2e34:	01031993          	slli	s3,t1,0x10
    2e38:	012bceb3          	xor	t4,s7,s2
    2e3c:	005c62b3          	or	t0,s8,t0
    2e40:	010e1913          	slli	s2,t3,0x10
    2e44:	009ac8b3          	xor	a7,s5,s1
    2e48:	01fb6fb3          	or	t6,s6,t6
    2e4c:	01081493          	slli	s1,a6,0x10
    2e50:	8c51                	or	s0,s0,a2
    2e52:	01454533          	xor	a0,a0,s4
    2e56:	01069613          	slli	a2,a3,0x10
    2e5a:	01035313          	srli	t1,t1,0x10
    2e5e:	010e5e13          	srli	t3,t3,0x10
    2e62:	01085813          	srli	a6,a6,0x10
    2e66:	82c1                	srli	a3,a3,0x10
    2e68:	007f4f33          	xor	t5,t5,t2
    2e6c:	005eceb3          	xor	t4,t4,t0
    2e70:	01c96e33          	or	t3,s2,t3
    2e74:	0104e833          	or	a6,s1,a6
    2e78:	8d21                	xor	a0,a0,s0
    2e7a:	0069e333          	or	t1,s3,t1
    2e7e:	01f8c8b3          	xor	a7,a7,t6
    2e82:	8ed1                	or	a3,a3,a2
    2e84:	01cec3b3          	xor	t2,t4,t3
    2e88:	8ea9                	xor	a3,a3,a0
    2e8a:	006f4333          	xor	t1,t5,t1
    2e8e:	0108c8b3          	xor	a7,a7,a6
    2e92:	0186df13          	srli	t5,a3,0x18
    2e96:	01835e93          	srli	t4,t1,0x18
    2e9a:	0183d293          	srli	t0,t2,0x18
    2e9e:	0188df93          	srli	t6,a7,0x18
    2ea2:	0ff37c13          	andi	s8,t1,255
    2ea6:	0066db93          	srli	s7,a3,0x6
    2eaa:	0ff3fb13          	andi	s6,t2,255
    2eae:	00635e13          	srli	t3,t1,0x6
    2eb2:	0ff8fa93          	andi	s5,a7,255
    2eb6:	002f1493          	slli	s1,t5,0x2
    2eba:	0063d813          	srli	a6,t2,0x6
    2ebe:	0ff6fa13          	andi	s4,a3,255
    2ec2:	002e9413          	slli	s0,t4,0x2
    2ec6:	0068d513          	srli	a0,a7,0x6
    2eca:	028a                	slli	t0,t0,0x2
    2ecc:	0f8a                	slli	t6,t6,0x2
    2ece:	92be                	add	t0,t0,a5
    2ed0:	9fbe                	add	t6,t6,a5
    2ed2:	00978f33          	add	t5,a5,s1
    2ed6:	00878eb3          	add	t4,a5,s0
    2eda:	0c0a                	slli	s8,s8,0x2
    2edc:	3fcbfb93          	andi	s7,s7,1020
    2ee0:	0b0a                	slli	s6,s6,0x2
    2ee2:	00e6d613          	srli	a2,a3,0xe
    2ee6:	00e8d893          	srli	a7,a7,0xe
    2eea:	00e3d693          	srli	a3,t2,0xe
    2eee:	3fce7e13          	andi	t3,t3,1020
    2ef2:	0a8a                	slli	s5,s5,0x2
    2ef4:	3fc87813          	andi	a6,a6,1020
    2ef8:	00e35313          	srli	t1,t1,0xe
    2efc:	0a0a                	slli	s4,s4,0x2
    2efe:	3fc57513          	andi	a0,a0,1020
    2f02:	c742a983          	lw	s3,-908(t0)
    2f06:	c74fa903          	lw	s2,-908(t6)
    2f0a:	c74f2483          	lw	s1,-908(t5)
    2f0e:	c74ea403          	lw	s0,-908(t4)
    2f12:	01778f33          	add	t5,a5,s7
    2f16:	01878fb3          	add	t6,a5,s8
    2f1a:	01678eb3          	add	t4,a5,s6
    2f1e:	9e3e                	add	t3,t3,a5
    2f20:	9abe                	add	s5,s5,a5
    2f22:	983e                	add	a6,a6,a5
    2f24:	9a3e                	add	s4,s4,a5
    2f26:	953e                	add	a0,a0,a5
    2f28:	3fc8f893          	andi	a7,a7,1020
    2f2c:	3fc67613          	andi	a2,a2,1020
    2f30:	3fc37313          	andi	t1,t1,1020
    2f34:	3fc6f693          	andi	a3,a3,1020
    2f38:	c74f2383          	lw	t2,-908(t5)
    2f3c:	c74e2283          	lw	t0,-908(t3)
    2f40:	c7482f03          	lw	t5,-908(a6)
    2f44:	c74aae03          	lw	t3,-908(s5)
    2f48:	07c72d83          	lw	s11,124(a4)
    2f4c:	c7452503          	lw	a0,-908(a0)
    2f50:	c74faf83          	lw	t6,-908(t6)
    2f54:	07072c83          	lw	s9,112(a4)
    2f58:	c74eae83          	lw	t4,-908(t4)
    2f5c:	07472b83          	lw	s7,116(a4)
    2f60:	07872a83          	lw	s5,120(a4)
    2f64:	c74a2803          	lw	a6,-908(s4)
    2f68:	98be                	add	a7,a7,a5
    2f6a:	963e                	add	a2,a2,a5
    2f6c:	933e                	add	t1,t1,a5
    2f6e:	96be                	add	a3,a3,a5
    2f70:	c748a883          	lw	a7,-908(a7)
    2f74:	c7462603          	lw	a2,-908(a2)
    2f78:	c7432303          	lw	t1,-908(t1)
    2f7c:	c746a683          	lw	a3,-908(a3)
    2f80:	0089dd13          	srli	s10,s3,0x8
    2f84:	00895c13          	srli	s8,s2,0x8
    2f88:	0084db13          	srli	s6,s1,0x8
    2f8c:	00845a13          	srli	s4,s0,0x8
    2f90:	09e2                	slli	s3,s3,0x18
    2f92:	0462                	slli	s0,s0,0x18
    2f94:	0962                	slli	s2,s2,0x18
    2f96:	04e2                	slli	s1,s1,0x18
    2f98:	013d69b3          	or	s3,s10,s3
    2f9c:	012c6933          	or	s2,s8,s2
    2fa0:	00839d13          	slli	s10,t2,0x8
    2fa4:	00829c13          	slli	s8,t0,0x8
    2fa8:	009b64b3          	or	s1,s6,s1
    2fac:	008a6a33          	or	s4,s4,s0
    2fb0:	008f1b13          	slli	s6,t5,0x8
    2fb4:	019fccb3          	xor	s9,t6,s9
    2fb8:	017ecbb3          	xor	s7,t4,s7
    2fbc:	015e4ab3          	xor	s5,t3,s5
    2fc0:	01b84833          	xor	a6,a6,s11
    2fc4:	00851413          	slli	s0,a0,0x8
    2fc8:	0183d393          	srli	t2,t2,0x18
    2fcc:	8161                	srli	a0,a0,0x18
    2fce:	0182d293          	srli	t0,t0,0x18
    2fd2:	018f5f13          	srli	t5,t5,0x18
    2fd6:	013ccfb3          	xor	t6,s9,s3
    2fda:	007d63b3          	or	t2,s10,t2
    2fde:	01089993          	slli	s3,a7,0x10
    2fe2:	012bceb3          	xor	t4,s7,s2
    2fe6:	005c62b3          	or	t0,s8,t0
    2fea:	01061913          	slli	s2,a2,0x10
    2fee:	009ace33          	xor	t3,s5,s1
    2ff2:	01eb6f33          	or	t5,s6,t5
    2ff6:	01031493          	slli	s1,t1,0x10
    2ffa:	8c49                	or	s0,s0,a0
    2ffc:	01484833          	xor	a6,a6,s4
    3000:	01069513          	slli	a0,a3,0x10
    3004:	0108d893          	srli	a7,a7,0x10
    3008:	8241                	srli	a2,a2,0x10
    300a:	01035313          	srli	t1,t1,0x10
    300e:	82c1                	srli	a3,a3,0x10
    3010:	007fcfb3          	xor	t6,t6,t2
    3014:	005eceb3          	xor	t4,t4,t0
    3018:	01ee4e33          	xor	t3,t3,t5
    301c:	00884833          	xor	a6,a6,s0
    3020:	0119e8b3          	or	a7,s3,a7
    3024:	00c96633          	or	a2,s2,a2
    3028:	0064e333          	or	t1,s1,t1
    302c:	8ec9                	or	a3,a3,a0
    302e:	006e4333          	xor	t1,t3,t1
    3032:	011fc8b3          	xor	a7,t6,a7
    3036:	00cec633          	xor	a2,t4,a2
    303a:	00d846b3          	xor	a3,a6,a3
    303e:	0188de93          	srli	t4,a7,0x18
    3042:	0ff8f393          	andi	t2,a7,255
    3046:	01865293          	srli	t0,a2,0x18
    304a:	01835f93          	srli	t6,t1,0x18
    304e:	0186d493          	srli	s1,a3,0x18
    3052:	0066d813          	srli	a6,a3,0x6
    3056:	00665b93          	srli	s7,a2,0x6
    305a:	038a                	slli	t2,t2,0x2
    305c:	0ff67b13          	andi	s6,a2,255
    3060:	0f8a                	slli	t6,t6,0x2
    3062:	0068de13          	srli	t3,a7,0x6
    3066:	0ff37a93          	andi	s5,t1,255
    306a:	0ff6fa13          	andi	s4,a3,255
    306e:	002e9413          	slli	s0,t4,0x2
    3072:	00635513          	srli	a0,t1,0x6
    3076:	028a                	slli	t0,t0,0x2
    3078:	048a                	slli	s1,s1,0x2
    307a:	007789b3          	add	s3,a5,t2
    307e:	01f78933          	add	s2,a5,t6
    3082:	00878eb3          	add	t4,a5,s0
    3086:	92be                	add	t0,t0,a5
    3088:	94be                	add	s1,s1,a5
    308a:	3fc87393          	andi	t2,a6,1020
    308e:	00e35f13          	srli	t5,t1,0xe
    3092:	0b0a                	slli	s6,s6,0x2
    3094:	00e6d813          	srli	a6,a3,0xe
    3098:	3fcbf313          	andi	t1,s7,1020
    309c:	002a1693          	slli	a3,s4,0x2
    30a0:	3fce7e13          	andi	t3,t3,1020
    30a4:	0a8a                	slli	s5,s5,0x2
    30a6:	00e8d893          	srli	a7,a7,0xe
    30aa:	3fc57513          	andi	a0,a0,1020
    30ae:	8239                	srli	a2,a2,0xe
    30b0:	c749af83          	lw	t6,-908(s3)
    30b4:	93be                	add	t2,t2,a5
    30b6:	c742aa03          	lw	s4,-908(t0)
    30ba:	c7492983          	lw	s3,-908(s2)
    30be:	9e3e                	add	t3,t3,a5
    30c0:	c744a903          	lw	s2,-908(s1)
    30c4:	9abe                	add	s5,s5,a5
    30c6:	c74ea483          	lw	s1,-908(t4)
    30ca:	933e                	add	t1,t1,a5
    30cc:	01678eb3          	add	t4,a5,s6
    30d0:	96be                	add	a3,a3,a5
    30d2:	953e                	add	a0,a0,a5
    30d4:	3fcf7f13          	andi	t5,t5,1020
    30d8:	3fc87813          	andi	a6,a6,1020
    30dc:	3fc8f893          	andi	a7,a7,1020
    30e0:	3fc67613          	andi	a2,a2,1020
    30e4:	c743a403          	lw	s0,-908(t2)
    30e8:	c7452503          	lw	a0,-908(a0)
    30ec:	c74e2383          	lw	t2,-908(t3)
    30f0:	08072c83          	lw	s9,128(a4)
    30f4:	c7432e03          	lw	t3,-908(t1)
    30f8:	c74eae83          	lw	t4,-908(t4)
    30fc:	c74aa303          	lw	t1,-908(s5)
    3100:	08472283          	lw	t0,132(a4)
    3104:	08872b03          	lw	s6,136(a4)
    3108:	08c72d83          	lw	s11,140(a4)
    310c:	c746a683          	lw	a3,-908(a3)
    3110:	9f3e                	add	t5,t5,a5
    3112:	983e                	add	a6,a6,a5
    3114:	98be                	add	a7,a7,a5
    3116:	963e                	add	a2,a2,a5
    3118:	c7482803          	lw	a6,-908(a6)
    311c:	c74f2f03          	lw	t5,-908(t5)
    3120:	c748a883          	lw	a7,-908(a7)
    3124:	c7462603          	lw	a2,-908(a2)
    3128:	008a5d13          	srli	s10,s4,0x8
    312c:	0089dc13          	srli	s8,s3,0x8
    3130:	00895b93          	srli	s7,s2,0x8
    3134:	0084da93          	srli	s5,s1,0x8
    3138:	0a62                	slli	s4,s4,0x18
    313a:	04e2                	slli	s1,s1,0x18
    313c:	09e2                	slli	s3,s3,0x18
    313e:	0962                	slli	s2,s2,0x18
    3140:	014d6a33          	or	s4,s10,s4
    3144:	013c69b3          	or	s3,s8,s3
    3148:	012be933          	or	s2,s7,s2
    314c:	009aeab3          	or	s5,s5,s1
    3150:	008e1b93          	slli	s7,t3,0x8
    3154:	00841d13          	slli	s10,s0,0x8
    3158:	005ec2b3          	xor	t0,t4,t0
    315c:	00839c13          	slli	s8,t2,0x8
    3160:	01634b33          	xor	s6,t1,s6
    3164:	00851493          	slli	s1,a0,0x8
    3168:	019fccb3          	xor	s9,t6,s9
    316c:	8161                	srli	a0,a0,0x18
    316e:	8061                	srli	s0,s0,0x18
    3170:	0183d393          	srli	t2,t2,0x18
    3174:	018e5e13          	srli	t3,t3,0x18
    3178:	01b6c6b3          	xor	a3,a3,s11
    317c:	0132ceb3          	xor	t4,t0,s3
    3180:	012b4333          	xor	t1,s6,s2
    3184:	01cbee33          	or	t3,s7,t3
    3188:	01089913          	slli	s2,a7,0x10
    318c:	8cc9                	or	s1,s1,a0
    318e:	014ccfb3          	xor	t6,s9,s4
    3192:	01061513          	slli	a0,a2,0x10
    3196:	010f1a13          	slli	s4,t5,0x10
    319a:	008d6433          	or	s0,s10,s0
    319e:	007c63b3          	or	t2,s8,t2
    31a2:	01081993          	slli	s3,a6,0x10
    31a6:	01085293          	srli	t0,a6,0x10
    31aa:	0156c6b3          	xor	a3,a3,s5
    31ae:	010f5f13          	srli	t5,t5,0x10
    31b2:	0108d893          	srli	a7,a7,0x10
    31b6:	8241                	srli	a2,a2,0x10
    31b8:	008fcfb3          	xor	t6,t6,s0
    31bc:	007eceb3          	xor	t4,t4,t2
    31c0:	0059e833          	or	a6,s3,t0
    31c4:	01c34333          	xor	t1,t1,t3
    31c8:	8e49                	or	a2,a2,a0
    31ca:	01ea6f33          	or	t5,s4,t5
    31ce:	011968b3          	or	a7,s2,a7
    31d2:	8ea5                	xor	a3,a3,s1
    31d4:	01efcf33          	xor	t5,t6,t5
    31d8:	8eb1                	xor	a3,a3,a2
    31da:	010ec833          	xor	a6,t4,a6
    31de:	011348b3          	xor	a7,t1,a7
    31e2:	0ff87613          	andi	a2,a6,255
    31e6:	0fff7a13          	andi	s4,t5,255
    31ea:	01885493          	srli	s1,a6,0x18
    31ee:	0066df93          	srli	t6,a3,0x6
    31f2:	00e8d313          	srli	t1,a7,0xe
    31f6:	0188d413          	srli	s0,a7,0x18
    31fa:	006f5a93          	srli	s5,t5,0x6
    31fe:	00e6d993          	srli	s3,a3,0xe
    3202:	0ff8f913          	andi	s2,a7,255
    3206:	0186d393          	srli	t2,a3,0x18
    320a:	0ff6f513          	andi	a0,a3,255
    320e:	018f5293          	srli	t0,t5,0x18
    3212:	00261693          	slli	a3,a2,0x2
    3216:	00685e93          	srli	t4,a6,0x6
    321a:	0068d893          	srli	a7,a7,0x6
    321e:	0a0a                	slli	s4,s4,0x2
    3220:	048a                	slli	s1,s1,0x2
    3222:	3fcfff93          	andi	t6,t6,1020
    3226:	3fc37313          	andi	t1,t1,1020
    322a:	040a                	slli	s0,s0,0x2
    322c:	3fcafa93          	andi	s5,s5,1020
    3230:	3fc9f993          	andi	s3,s3,1020
    3234:	090a                	slli	s2,s2,0x2
    3236:	038a                	slli	t2,t2,0x2
    3238:	050a                	slli	a0,a0,0x2
    323a:	028a                	slli	t0,t0,0x2
    323c:	9abe                	add	s5,s5,a5
    323e:	99be                	add	s3,s3,a5
    3240:	993e                	add	s2,s2,a5
    3242:	953e                	add	a0,a0,a5
    3244:	9a3e                	add	s4,s4,a5
    3246:	94be                	add	s1,s1,a5
    3248:	9fbe                	add	t6,t6,a5
    324a:	933e                	add	t1,t1,a5
    324c:	96be                	add	a3,a3,a5
    324e:	943e                	add	s0,s0,a5
    3250:	93be                	add	t2,t2,a5
    3252:	00ef5613          	srli	a2,t5,0xe
    3256:	92be                	add	t0,t0,a5
    3258:	3fc8fe13          	andi	t3,a7,1020
    325c:	3fcefe93          	andi	t4,t4,1020
    3260:	00e85813          	srli	a6,a6,0xe
    3264:	09472b03          	lw	s6,148(a4)
    3268:	074aaf03          	lw	t5,116(s5)
    326c:	0749a883          	lw	a7,116(s3)
    3270:	09872a83          	lw	s5,152(a4)
    3274:	07492983          	lw	s3,116(s2)
    3278:	074a2a03          	lw	s4,116(s4)
    327c:	09072b83          	lw	s7,144(a4)
    3280:	58e4                	lw	s1,116(s1)
    3282:	074faf83          	lw	t6,116(t6)
    3286:	07432303          	lw	t1,116(t1)
    328a:	5af4                	lw	a3,116(a3)
    328c:	5860                	lw	s0,116(s0)
    328e:	9ebe                	add	t4,t4,a5
    3290:	0743a383          	lw	t2,116(t2)
    3294:	9e3e                	add	t3,t3,a5
    3296:	07452903          	lw	s2,116(a0)
    329a:	3fc87813          	andi	a6,a6,1020
    329e:	09c72503          	lw	a0,156(a4)
    32a2:	0742a283          	lw	t0,116(t0)
    32a6:	3fc67613          	andi	a2,a2,1020
    32aa:	963e                	add	a2,a2,a5
    32ac:	074eae83          	lw	t4,116(t4)
    32b0:	97c2                	add	a5,a5,a6
    32b2:	074e2e03          	lw	t3,116(t3)
    32b6:	07462803          	lw	a6,116(a2)
    32ba:	5bf0                	lw	a2,116(a5)
    32bc:	0462                	slli	s0,s0,0x18
    32be:	017a4733          	xor	a4,s4,s7
    32c2:	04e2                	slli	s1,s1,0x18
    32c4:	0166c6b3          	xor	a3,a3,s6
    32c8:	0159c7b3          	xor	a5,s3,s5
    32cc:	03e2                	slli	t2,t2,0x18
    32ce:	00a94533          	xor	a0,s2,a0
    32d2:	02e2                	slli	t0,t0,0x18
    32d4:	8ea1                	xor	a3,a3,s0
    32d6:	8f25                	xor	a4,a4,s1
    32d8:	0fa2                	slli	t6,t6,0x8
    32da:	0f22                	slli	t5,t5,0x8
    32dc:	0077c7b3          	xor	a5,a5,t2
    32e0:	0ea2                	slli	t4,t4,0x8
    32e2:	00554533          	xor	a0,a0,t0
    32e6:	0e22                	slli	t3,t3,0x8
    32e8:	01f74733          	xor	a4,a4,t6
    32ec:	0342                	slli	t1,t1,0x10
    32ee:	01e6c6b3          	xor	a3,a3,t5
    32f2:	08c2                	slli	a7,a7,0x10
    32f4:	01d7c7b3          	xor	a5,a5,t4
    32f8:	0842                	slli	a6,a6,0x10
    32fa:	01c54533          	xor	a0,a0,t3
    32fe:	0642                	slli	a2,a2,0x10
    3300:	00674333          	xor	t1,a4,t1
    3304:	0116c6b3          	xor	a3,a3,a7
    3308:	0107c433          	xor	s0,a5,a6
    330c:	8d31                	xor	a0,a0,a2
    330e:	feffe06f          	j	22fc <decrypt+0x74>
    3312:	4501                	li	a0,0
    3314:	8082                	ret
    3316:	0186d813          	srli	a6,a3,0x18
    331a:	01845a13          	srli	s4,s0,0x18
    331e:	01855993          	srli	s3,a0,0x18
    3322:	01835c93          	srli	s9,t1,0x18
    3326:	67a9                	lui	a5,0xa
    3328:	a6078793          	addi	a5,a5,-1440 # 9a60 <it_tab+0x38c>
    332c:	0066de93          	srli	t4,a3,0x6
    3330:	0ff57893          	andi	a7,a0,255
    3334:	0ff37f93          	andi	t6,t1,255
    3338:	00655c13          	srli	s8,a0,0x6
    333c:	0ff6ff13          	andi	t5,a3,255
    3340:	00635b93          	srli	s7,t1,0x6
    3344:	0ff47e13          	andi	t3,s0,255
    3348:	00645393          	srli	t2,s0,0x6
    334c:	080a                	slli	a6,a6,0x2
    334e:	0a0a                	slli	s4,s4,0x2
    3350:	098a                	slli	s3,s3,0x2
    3352:	0c8a                	slli	s9,s9,0x2
    3354:	00e35293          	srli	t0,t1,0xe
    3358:	8039                	srli	s0,s0,0xe
    335a:	82b9                	srli	a3,a3,0xe
    335c:	983e                	add	a6,a6,a5
    335e:	3fcbfb93          	andi	s7,s7,1020
    3362:	3fcef493          	andi	s1,t4,1020
    3366:	00289713          	slli	a4,a7,0x2
    336a:	9cbe                	add	s9,s9,a5
    336c:	3fc3f393          	andi	t2,t2,1020
    3370:	8139                	srli	a0,a0,0xe
    3372:	0f8a                	slli	t6,t6,0x2
    3374:	3fcc7c13          	andi	s8,s8,1020
    3378:	0f0a                	slli	t5,t5,0x2
    337a:	9a3e                	add	s4,s4,a5
    337c:	0e0a                	slli	t3,t3,0x2
    337e:	99be                	add	s3,s3,a5
    3380:	c7482a83          	lw	s5,-908(a6)
    3384:	c74ca903          	lw	s2,-908(s9)
    3388:	c74a2a03          	lw	s4,-908(s4)
    338c:	c749a983          	lw	s3,-908(s3)
    3390:	3fc47b13          	andi	s6,s0,1020
    3394:	00978eb3          	add	t4,a5,s1
    3398:	00e788b3          	add	a7,a5,a4
    339c:	00778333          	add	t1,a5,t2
    33a0:	9c3e                	add	s8,s8,a5
    33a2:	9f3e                	add	t5,t5,a5
    33a4:	01778433          	add	s0,a5,s7
    33a8:	9e3e                	add	t3,t3,a5
    33aa:	3fc2f813          	andi	a6,t0,1020
    33ae:	3fc6f713          	andi	a4,a3,1020
    33b2:	9fbe                	add	t6,t6,a5
    33b4:	3fc57513          	andi	a0,a0,1020
    33b8:	c74c2483          	lw	s1,-908(s8)
    33bc:	c74ea383          	lw	t2,-908(t4)
    33c0:	c7432283          	lw	t0,-908(t1)
    33c4:	c74f2e83          	lw	t4,-908(t5)
    33c8:	c74e2303          	lw	t1,-908(t3)
    33cc:	c748a683          	lw	a3,-908(a7)
    33d0:	c7442403          	lw	s0,-908(s0)
    33d4:	c74faf83          	lw	t6,-908(t6)
    33d8:	016788b3          	add	a7,a5,s6
    33dc:	11862d83          	lw	s11,280(a2)
    33e0:	11c62d03          	lw	s10,284(a2)
    33e4:	12062c83          	lw	s9,288(a2)
    33e8:	12462b83          	lw	s7,292(a2)
    33ec:	953e                	add	a0,a0,a5
    33ee:	983e                	add	a6,a6,a5
    33f0:	973e                	add	a4,a4,a5
    33f2:	c748af03          	lw	t5,-908(a7)
    33f6:	c7452e03          	lw	t3,-908(a0)
    33fa:	c7482883          	lw	a7,-908(a6)
    33fe:	c7472503          	lw	a0,-908(a4)
    3402:	008adc13          	srli	s8,s5,0x8
    3406:	008a5813          	srli	a6,s4,0x8
    340a:	0089d713          	srli	a4,s3,0x8
    340e:	00895b13          	srli	s6,s2,0x8
    3412:	0ae2                	slli	s5,s5,0x18
    3414:	0962                	slli	s2,s2,0x18
    3416:	0a62                	slli	s4,s4,0x18
    3418:	09e2                	slli	s3,s3,0x18
    341a:	015c6ab3          	or	s5,s8,s5
    341e:	01486a33          	or	s4,a6,s4
    3422:	00849c13          	slli	s8,s1,0x8
    3426:	00841813          	slli	a6,s0,0x8
    342a:	013769b3          	or	s3,a4,s3
    342e:	0176cbb3          	xor	s7,a3,s7
    3432:	00839713          	slli	a4,t2,0x8
    3436:	012b66b3          	or	a3,s6,s2
    343a:	01bfcdb3          	xor	s11,t6,s11
    343e:	00829b13          	slli	s6,t0,0x8
    3442:	01aecd33          	xor	s10,t4,s10
    3446:	01934cb3          	xor	s9,t1,s9
    344a:	80e1                	srli	s1,s1,0x18
    344c:	8061                	srli	s0,s0,0x18
    344e:	0183d393          	srli	t2,t2,0x18
    3452:	0182d293          	srli	t0,t0,0x18
    3456:	015dcfb3          	xor	t6,s11,s5
    345a:	009c64b3          	or	s1,s8,s1
    345e:	014d4eb3          	xor	t4,s10,s4
    3462:	010f1c13          	slli	s8,t5,0x10
    3466:	00886433          	or	s0,a6,s0
    346a:	010e1913          	slli	s2,t3,0x10
    346e:	013cc333          	xor	t1,s9,s3
    3472:	007763b3          	or	t2,a4,t2
    3476:	005b62b3          	or	t0,s6,t0
    347a:	01089713          	slli	a4,a7,0x10
    347e:	01051813          	slli	a6,a0,0x10
    3482:	00dbc6b3          	xor	a3,s7,a3
    3486:	010f5f13          	srli	t5,t5,0x10
    348a:	010e5e13          	srli	t3,t3,0x10
    348e:	0108d893          	srli	a7,a7,0x10
    3492:	8141                	srli	a0,a0,0x10
    3494:	009fcfb3          	xor	t6,t6,s1
    3498:	008eceb3          	xor	t4,t4,s0
    349c:	01c96e33          	or	t3,s2,t3
    34a0:	00734333          	xor	t1,t1,t2
    34a4:	00a86533          	or	a0,a6,a0
    34a8:	01ec6f33          	or	t5,s8,t5
    34ac:	011768b3          	or	a7,a4,a7
    34b0:	0056c6b3          	xor	a3,a3,t0
    34b4:	01efcc33          	xor	s8,t6,t5
    34b8:	01cec833          	xor	a6,t4,t3
    34bc:	01134733          	xor	a4,t1,a7
    34c0:	8ea9                	xor	a3,a3,a0
    34c2:	0ffc7293          	andi	t0,s8,255
    34c6:	01885e13          	srli	t3,a6,0x18
    34ca:	0066df93          	srli	t6,a3,0x6
    34ce:	00e75313          	srli	t1,a4,0xe
    34d2:	0ff87913          	andi	s2,a6,255
    34d6:	01875513          	srli	a0,a4,0x18
    34da:	006c5a93          	srli	s5,s8,0x6
    34de:	00e6d993          	srli	s3,a3,0xe
    34e2:	0ff77413          	andi	s0,a4,255
    34e6:	0186d893          	srli	a7,a3,0x18
    34ea:	018c5f13          	srli	t5,s8,0x18
    34ee:	00685e93          	srli	t4,a6,0x6
    34f2:	8319                	srli	a4,a4,0x6
    34f4:	028a                	slli	t0,t0,0x2
    34f6:	0e0a                	slli	t3,t3,0x2
    34f8:	3fcfff93          	andi	t6,t6,1020
    34fc:	3fc37313          	andi	t1,t1,1020
    3500:	090a                	slli	s2,s2,0x2
    3502:	050a                	slli	a0,a0,0x2
    3504:	3fcafa93          	andi	s5,s5,1020
    3508:	3fc9f993          	andi	s3,s3,1020
    350c:	040a                	slli	s0,s0,0x2
    350e:	088a                	slli	a7,a7,0x2
    3510:	0ff6f693          	andi	a3,a3,255
    3514:	0f0a                	slli	t5,t5,0x2
    3516:	9fbe                	add	t6,t6,a5
    3518:	933e                	add	t1,t1,a5
    351a:	993e                	add	s2,s2,a5
    351c:	9abe                	add	s5,s5,a5
    351e:	943e                	add	s0,s0,a5
    3520:	068a                	slli	a3,a3,0x2
    3522:	9f3e                	add	t5,t5,a5
    3524:	3fc77493          	andi	s1,a4,1020
    3528:	92be                	add	t0,t0,a5
    352a:	00e85713          	srli	a4,a6,0xe
    352e:	9e3e                	add	t3,t3,a5
    3530:	953e                	add	a0,a0,a5
    3532:	99be                	add	s3,s3,a5
    3534:	98be                	add	a7,a7,a5
    3536:	3fcefe93          	andi	t4,t4,1020
    353a:	00ec5c13          	srli	s8,s8,0xe
    353e:	c74fa383          	lw	t2,-908(t6)
    3542:	c7432a03          	lw	s4,-908(t1)
    3546:	c7452503          	lw	a0,-908(a0)
    354a:	c74aaf83          	lw	t6,-908(s5)
    354e:	c7492d03          	lw	s10,-908(s2)
    3552:	c74e2e03          	lw	t3,-908(t3)
    3556:	c749a983          	lw	s3,-908(s3)
    355a:	c742a283          	lw	t0,-908(t0)
    355e:	c7442c83          	lw	s9,-908(s0)
    3562:	12862303          	lw	t1,296(a2)
    3566:	13062403          	lw	s0,304(a2)
    356a:	12c62b03          	lw	s6,300(a2)
    356e:	3fcc7c13          	andi	s8,s8,1020
    3572:	c748a883          	lw	a7,-908(a7)
    3576:	94be                	add	s1,s1,a5
    3578:	c74f2803          	lw	a6,-908(t5)
    357c:	9ebe                	add	t4,t4,a5
    357e:	00d78f33          	add	t5,a5,a3
    3582:	3fc77713          	andi	a4,a4,1020
    3586:	c744a903          	lw	s2,-908(s1)
    358a:	c74f2b83          	lw	s7,-908(t5)
    358e:	018786b3          	add	a3,a5,s8
    3592:	c74eae83          	lw	t4,-908(t4)
    3596:	973e                	add	a4,a4,a5
    3598:	13462a83          	lw	s5,308(a2)
    359c:	c746a483          	lw	s1,-908(a3)
    35a0:	c7472f03          	lw	t5,-908(a4)
    35a4:	008e5d93          	srli	s11,t3,0x8
    35a8:	01851713          	slli	a4,a0,0x18
    35ac:	0088dc13          	srli	s8,a7,0x8
    35b0:	00855693          	srli	a3,a0,0x8
    35b4:	0e62                	slli	t3,t3,0x18
    35b6:	00885513          	srli	a0,a6,0x8
    35ba:	08e2                	slli	a7,a7,0x18
    35bc:	0862                	slli	a6,a6,0x18
    35be:	01cdee33          	or	t3,s11,t3
    35c2:	016d4b33          	xor	s6,s10,s6
    35c6:	0062c333          	xor	t1,t0,t1
    35ca:	008f9d13          	slli	s10,t6,0x8
    35ce:	00839293          	slli	t0,t2,0x8
    35d2:	8ed9                	or	a3,a3,a4
    35d4:	018fdf93          	srli	t6,t6,0x18
    35d8:	011c68b3          	or	a7,s8,a7
    35dc:	008e9d93          	slli	s11,t4,0x8
    35e0:	015bcab3          	xor	s5,s7,s5
    35e4:	01056533          	or	a0,a0,a6
    35e8:	0183d393          	srli	t2,t2,0x18
    35ec:	00891813          	slli	a6,s2,0x8
    35f0:	008cccb3          	xor	s9,s9,s0
    35f4:	018ede93          	srli	t4,t4,0x18
    35f8:	01895913          	srli	s2,s2,0x18
    35fc:	01c34333          	xor	t1,t1,t3
    3600:	010a1b93          	slli	s7,s4,0x10
    3604:	01fd6e33          	or	t3,s10,t6
    3608:	00db46b3          	xor	a3,s6,a3
    360c:	01099d13          	slli	s10,s3,0x10
    3610:	01049b13          	slli	s6,s1,0x10
    3614:	010f1f93          	slli	t6,t5,0x10
    3618:	0072e3b3          	or	t2,t0,t2
    361c:	010a5a13          	srli	s4,s4,0x10
    3620:	0109d993          	srli	s3,s3,0x10
    3624:	011cc433          	xor	s0,s9,a7
    3628:	01ddeeb3          	or	t4,s11,t4
    362c:	80c1                	srli	s1,s1,0x10
    362e:	00aac533          	xor	a0,s5,a0
    3632:	01286933          	or	s2,a6,s2
    3636:	010f5f13          	srli	t5,t5,0x10
    363a:	13862c03          	lw	s8,312(a2)
    363e:	00734333          	xor	t1,t1,t2
    3642:	014bea33          	or	s4,s7,s4
    3646:	01c6c6b3          	xor	a3,a3,t3
    364a:	013d69b3          	or	s3,s10,s3
    364e:	01d44433          	xor	s0,s0,t4
    3652:	009b64b3          	or	s1,s6,s1
    3656:	01254533          	xor	a0,a0,s2
    365a:	01efef33          	or	t5,t6,t5
    365e:	01434333          	xor	t1,t1,s4
    3662:	0136c6b3          	xor	a3,a3,s3
    3666:	8c25                	xor	s0,s0,s1
    3668:	01e54533          	xor	a0,a0,t5
    366c:	13860713          	addi	a4,a2,312
    3670:	01835e13          	srli	t3,t1,0x18
    3674:	0186df93          	srli	t6,a3,0x18
    3678:	01845b13          	srli	s6,s0,0x18
    367c:	01855f13          	srli	t5,a0,0x18
    3680:	00635a13          	srli	s4,t1,0x6
    3684:	0ff37393          	andi	t2,t1,255
    3688:	00655993          	srli	s3,a0,0x6
    368c:	0ff6fe93          	andi	t4,a3,255
    3690:	0ff47893          	andi	a7,s0,255
    3694:	0066d913          	srli	s2,a3,0x6
    3698:	0ff57293          	andi	t0,a0,255
    369c:	00645613          	srli	a2,s0,0x6
    36a0:	0f8a                	slli	t6,t6,0x2
    36a2:	002e1493          	slli	s1,t3,0x2
    36a6:	0b0a                	slli	s6,s6,0x2
    36a8:	0f0a                	slli	t5,t5,0x2
    36aa:	00978e33          	add	t3,a5,s1
    36ae:	00e45813          	srli	a6,s0,0xe
    36b2:	00e55c93          	srli	s9,a0,0xe
    36b6:	00e35313          	srli	t1,t1,0xe
    36ba:	01f78533          	add	a0,a5,t6
    36be:	088a                	slli	a7,a7,0x2
    36c0:	3fca7f93          	andi	t6,s4,1020
    36c4:	9f3e                	add	t5,t5,a5
    36c6:	3fc97913          	andi	s2,s2,1020
    36ca:	028a                	slli	t0,t0,0x2
    36cc:	82b9                	srli	a3,a3,0xe
    36ce:	038a                	slli	t2,t2,0x2
    36d0:	3fc9f993          	andi	s3,s3,1020
    36d4:	0e8a                	slli	t4,t4,0x2
    36d6:	9b3e                	add	s6,s6,a5
    36d8:	3fc67613          	andi	a2,a2,1020
    36dc:	c7452d03          	lw	s10,-908(a0)
    36e0:	c74b2b03          	lw	s6,-908(s6)
    36e4:	c74f2483          	lw	s1,-908(t5)
    36e8:	c74e2403          	lw	s0,-908(t3)
    36ec:	93be                	add	t2,t2,a5
    36ee:	99be                	add	s3,s3,a5
    36f0:	9ebe                	add	t4,t4,a5
    36f2:	01178e33          	add	t3,a5,a7
    36f6:	01278f33          	add	t5,a5,s2
    36fa:	3fc37a13          	andi	s4,t1,1020
    36fe:	00578533          	add	a0,a5,t0
    3702:	3fc87813          	andi	a6,a6,1020
    3706:	9fbe                	add	t6,t6,a5
    3708:	3fccfc93          	andi	s9,s9,1020
    370c:	963e                	add	a2,a2,a5
    370e:	3fc6f693          	andi	a3,a3,1020
    3712:	c749a283          	lw	t0,-908(s3)
    3716:	c743ad83          	lw	s11,-908(t2)
    371a:	c74e2883          	lw	a7,-908(t3)
    371e:	c74ea383          	lw	t2,-908(t4)
    3722:	00472b83          	lw	s7,4(a4)
    3726:	c74faf83          	lw	t6,-908(t6)
    372a:	00872983          	lw	s3,8(a4)
    372e:	c74f2f03          	lw	t5,-908(t5)
    3732:	00c72a83          	lw	s5,12(a4)
    3736:	c7462603          	lw	a2,-908(a2)
    373a:	c7452503          	lw	a0,-908(a0)
    373e:	983e                	add	a6,a6,a5
    3740:	9cbe                	add	s9,s9,a5
    3742:	9a3e                	add	s4,s4,a5
    3744:	96be                	add	a3,a3,a5
    3746:	c7482e03          	lw	t3,-908(a6)
    374a:	c74ca303          	lw	t1,-908(s9)
    374e:	c74a2803          	lw	a6,-908(s4)
    3752:	c746a683          	lw	a3,-908(a3)
    3756:	008d5e93          	srli	t4,s10,0x8
    375a:	008b5c93          	srli	s9,s6,0x8
    375e:	00845a13          	srli	s4,s0,0x8
    3762:	018b1913          	slli	s2,s6,0x18
    3766:	0462                	slli	s0,s0,0x18
    3768:	0084db13          	srli	s6,s1,0x8
    376c:	0d62                	slli	s10,s10,0x18
    376e:	04e2                	slli	s1,s1,0x18
    3770:	01bc4c33          	xor	s8,s8,s11
    3774:	012ce933          	or	s2,s9,s2
    3778:	00829d93          	slli	s11,t0,0x8
    377c:	008f9c93          	slli	s9,t6,0x8
    3780:	009b64b3          	or	s1,s6,s1
    3784:	01554ab3          	xor	s5,a0,s5
    3788:	008f1b13          	slli	s6,t5,0x8
    378c:	008a6533          	or	a0,s4,s0
    3790:	01aeed33          	or	s10,t4,s10
    3794:	0173cbb3          	xor	s7,t2,s7
    3798:	0138c9b3          	xor	s3,a7,s3
    379c:	00861a13          	slli	s4,a2,0x8
    37a0:	0182d293          	srli	t0,t0,0x18
    37a4:	8261                	srli	a2,a2,0x18
    37a6:	018fdf93          	srli	t6,t6,0x18
    37aa:	018f5f13          	srli	t5,t5,0x18
    37ae:	018d4eb3          	xor	t4,s10,s8
    37b2:	005de2b3          	or	t0,s11,t0
    37b6:	010e1413          	slli	s0,t3,0x10
    37ba:	012bc3b3          	xor	t2,s7,s2
    37be:	01fcefb3          	or	t6,s9,t6
    37c2:	01031913          	slli	s2,t1,0x10
    37c6:	0099c8b3          	xor	a7,s3,s1
    37ca:	01eb6f33          	or	t5,s6,t5
    37ce:	01081993          	slli	s3,a6,0x10
    37d2:	00ca6a33          	or	s4,s4,a2
    37d6:	00aac533          	xor	a0,s5,a0
    37da:	01069613          	slli	a2,a3,0x10
    37de:	010e5e13          	srli	t3,t3,0x10
    37e2:	01035313          	srli	t1,t1,0x10
    37e6:	01085813          	srli	a6,a6,0x10
    37ea:	82c1                	srli	a3,a3,0x10
    37ec:	01c46e33          	or	t3,s0,t3
    37f0:	00696333          	or	t1,s2,t1
    37f4:	01e8c8b3          	xor	a7,a7,t5
    37f8:	01454533          	xor	a0,a0,s4
    37fc:	005eceb3          	xor	t4,t4,t0
    3800:	01f3c3b3          	xor	t2,t2,t6
    3804:	0109e833          	or	a6,s3,a6
    3808:	8ed1                	or	a3,a3,a2
    380a:	01ceceb3          	xor	t4,t4,t3
    380e:	0063c3b3          	xor	t2,t2,t1
    3812:	0108c833          	xor	a6,a7,a6
    3816:	8ea9                	xor	a3,a3,a0
    3818:	0ffef313          	andi	t1,t4,255
    381c:	0183d893          	srli	a7,t2,0x18
    3820:	0066d293          	srli	t0,a3,0x6
    3824:	00e85913          	srli	s2,a6,0xe
    3828:	0ff3f413          	andi	s0,t2,255
    382c:	01885613          	srli	a2,a6,0x18
    3830:	006edf93          	srli	t6,t4,0x6
    3834:	00e6d493          	srli	s1,a3,0xe
    3838:	0ff87a13          	andi	s4,a6,255
    383c:	0186da93          	srli	s5,a3,0x18
    3840:	0063df13          	srli	t5,t2,0x6
    3844:	018ede13          	srli	t3,t4,0x18
    3848:	040a                	slli	s0,s0,0x2
    384a:	0ff6f513          	andi	a0,a3,255
    384e:	00685813          	srli	a6,a6,0x6
    3852:	030a                	slli	t1,t1,0x2
    3854:	088a                	slli	a7,a7,0x2
    3856:	3fc2f293          	andi	t0,t0,1020
    385a:	3fc97913          	andi	s2,s2,1020
    385e:	060a                	slli	a2,a2,0x2
    3860:	3fcfff93          	andi	t6,t6,1020
    3864:	3fc4f493          	andi	s1,s1,1020
    3868:	0a0a                	slli	s4,s4,0x2
    386a:	0a8a                	slli	s5,s5,0x2
    386c:	3fcf7f13          	andi	t5,t5,1020
    3870:	0e0a                	slli	t3,t3,0x2
    3872:	008786b3          	add	a3,a5,s0
    3876:	9a3e                	add	s4,s4,a5
    3878:	9abe                	add	s5,s5,a5
    387a:	00eed413          	srli	s0,t4,0xe
    387e:	3fc87993          	andi	s3,a6,1020
    3882:	933e                	add	t1,t1,a5
    3884:	98be                	add	a7,a7,a5
    3886:	92be                	add	t0,t0,a5
    3888:	993e                	add	s2,s2,a5
    388a:	963e                	add	a2,a2,a5
    388c:	9fbe                	add	t6,t6,a5
    388e:	94be                	add	s1,s1,a5
    3890:	9f3e                	add	t5,t5,a5
    3892:	050a                	slli	a0,a0,0x2
    3894:	9e3e                	add	t3,t3,a5
    3896:	00e3d393          	srli	t2,t2,0xe
    389a:	01072d83          	lw	s11,16(a4)
    389e:	01872b83          	lw	s7,24(a4)
    38a2:	c74aae83          	lw	t4,-908(s5)
    38a6:	c748a883          	lw	a7,-908(a7)
    38aa:	c742a283          	lw	t0,-908(t0)
    38ae:	c7492903          	lw	s2,-908(s2)
    38b2:	01472c83          	lw	s9,20(a4)
    38b6:	c7462603          	lw	a2,-908(a2)
    38ba:	c74faf83          	lw	t6,-908(t6)
    38be:	c744a483          	lw	s1,-908(s1)
    38c2:	c746a683          	lw	a3,-908(a3)
    38c6:	c74a2803          	lw	a6,-908(s4)
    38ca:	c7432303          	lw	t1,-908(t1)
    38ce:	3fc47413          	andi	s0,s0,1020
    38d2:	c74f2f03          	lw	t5,-908(t5)
    38d6:	953e                	add	a0,a0,a5
    38d8:	c74e2e03          	lw	t3,-908(t3)
    38dc:	99be                	add	s3,s3,a5
    38de:	3fc3f393          	andi	t2,t2,1020
    38e2:	01c72a83          	lw	s5,28(a4)
    38e6:	c749a983          	lw	s3,-908(s3)
    38ea:	c7452503          	lw	a0,-908(a0)
    38ee:	943e                	add	s0,s0,a5
    38f0:	93be                	add	t2,t2,a5
    38f2:	c7442403          	lw	s0,-908(s0)
    38f6:	c743a383          	lw	t2,-908(t2)
    38fa:	0088dd13          	srli	s10,a7,0x8
    38fe:	00865c13          	srli	s8,a2,0x8
    3902:	008edb13          	srli	s6,t4,0x8
    3906:	0662                	slli	a2,a2,0x18
    3908:	0ee2                	slli	t4,t4,0x18
    390a:	008e5a13          	srli	s4,t3,0x8
    390e:	08e2                	slli	a7,a7,0x18
    3910:	0e62                	slli	t3,t3,0x18
    3912:	011d68b3          	or	a7,s10,a7
    3916:	01784833          	xor	a6,a6,s7
    391a:	00829d13          	slli	s10,t0,0x8
    391e:	01b34333          	xor	t1,t1,s11
    3922:	0196ccb3          	xor	s9,a3,s9
    3926:	00cc6c33          	or	s8,s8,a2
    392a:	008f9d93          	slli	s11,t6,0x8
    392e:	00899613          	slli	a2,s3,0x8
    3932:	01db6b33          	or	s6,s6,t4
    3936:	008f1b93          	slli	s7,t5,0x8
    393a:	0182d293          	srli	t0,t0,0x18
    393e:	018fdf93          	srli	t6,t6,0x18
    3942:	018f5f13          	srli	t5,t5,0x18
    3946:	01554ab3          	xor	s5,a0,s5
    394a:	01ca6e33          	or	t3,s4,t3
    394e:	0189d993          	srli	s3,s3,0x18
    3952:	01134333          	xor	t1,t1,a7
    3956:	01049693          	slli	a3,s1,0x10
    395a:	005d62b3          	or	t0,s10,t0
    395e:	01091893          	slli	a7,s2,0x10
    3962:	01684b33          	xor	s6,a6,s6
    3966:	013669b3          	or	s3,a2,s3
    396a:	01041813          	slli	a6,s0,0x10
    396e:	01039d13          	slli	s10,t2,0x10
    3972:	01095913          	srli	s2,s2,0x10
    3976:	018cccb3          	xor	s9,s9,s8
    397a:	01fdefb3          	or	t6,s11,t6
    397e:	80c1                	srli	s1,s1,0x10
    3980:	01ebef33          	or	t5,s7,t5
    3984:	8041                	srli	s0,s0,0x10
    3986:	01cac533          	xor	a0,s5,t3
    398a:	0103d393          	srli	t2,t2,0x10
    398e:	005342b3          	xor	t0,t1,t0
    3992:	0128e933          	or	s2,a7,s2
    3996:	01fcc633          	xor	a2,s9,t6
    399a:	8cd5                	or	s1,s1,a3
    399c:	01eb4eb3          	xor	t4,s6,t5
    39a0:	00886433          	or	s0,a6,s0
    39a4:	01354533          	xor	a0,a0,s3
    39a8:	007d63b3          	or	t2,s10,t2
    39ac:	0122c333          	xor	t1,t0,s2
    39b0:	009646b3          	xor	a3,a2,s1
    39b4:	008ec433          	xor	s0,t4,s0
    39b8:	00754533          	xor	a0,a0,t2
    39bc:	02070713          	addi	a4,a4,32
    39c0:	96bfe06f          	j	232a <decrypt+0xa2>
    39c4:	67a9                	lui	a5,0xa
    39c6:	11862c03          	lw	s8,280(a2)
    39ca:	a6078793          	addi	a5,a5,-1440 # 9a60 <it_tab+0x38c>
    39ce:	b14d                	j	3670 <decrypt+0x13e8>

000039d0 <fillrand>:
    39d0:	20001737          	lui	a4,0x20001
    39d4:	8ac72783          	lw	a5,-1876(a4) # 200008ac <mt.4>
    39d8:	cf99                	beqz	a5,39f6 <fillrand+0x26>
    39da:	200017b7          	lui	a5,0x20001
    39de:	8a072623          	sw	zero,-1876(a4)
    39e2:	673d                	lui	a4,0xf
    39e4:	8f078793          	addi	a5,a5,-1808 # 200008f0 <a.3>
    39e8:	af370713          	addi	a4,a4,-1293 # eaf3 <_global_impure_ptr+0x456b>
    39ec:	c398                	sw	a4,0(a5)
    39ee:	670d                	lui	a4,0x3
    39f0:	5fe70713          	addi	a4,a4,1534 # 35fe <decrypt+0x1376>
    39f4:	c3d8                	sw	a4,4(a5)
    39f6:	08b05e63          	blez	a1,3a92 <fillrand+0xc2>
    39fa:	1141                	addi	sp,sp,-16
    39fc:	20001f37          	lui	t5,0x20001
    3a00:	8f0f0f13          	addi	t5,t5,-1808 # 200008f0 <a.3>
    3a04:	c622                	sw	s0,12(sp)
    3a06:	20001437          	lui	s0,0x20001
    3a0a:	000f2883          	lw	a7,0(t5)
    3a0e:	004f2683          	lw	a3,4(t5)
    3a12:	8a842703          	lw	a4,-1880(s0) # 200008a8 <count.2>
    3a16:	200013b7          	lui	t2,0x20001
    3a1a:	6841                	lui	a6,0x10
    3a1c:	62a5                	lui	t0,0x9
    3a1e:	6f91                	lui	t6,0x4
    3a20:	c426                	sw	s1,8(sp)
    3a22:	00b50333          	add	t1,a0,a1
    3a26:	4481                	li	s1,0
    3a28:	8ec38e93          	addi	t4,t2,-1812 # 200008ec <r.1>
    3a2c:	4e11                	li	t3,4
    3a2e:	187d                	addi	a6,a6,-1
    3a30:	06928293          	addi	t0,t0,105 # 9069 <im_tab+0x195>
    3a34:	650f8f93          	addi	t6,t6,1616 # 4650 <_ftoa+0x16>
    3a38:	03c70763          	beq	a4,t3,3a66 <fillrand+0x96>
    3a3c:	87ba                	mv	a5,a4
    3a3e:	0705                	addi	a4,a4,1
    3a40:	97f6                	add	a5,a5,t4
    3a42:	0007c783          	lbu	a5,0(a5)
    3a46:	0505                	addi	a0,a0,1
    3a48:	fef50fa3          	sb	a5,-1(a0)
    3a4c:	fe6516e3          	bne	a0,t1,3a38 <fillrand+0x68>
    3a50:	8ae42423          	sw	a4,-1880(s0)
    3a54:	c489                	beqz	s1,3a5e <fillrand+0x8e>
    3a56:	011f2023          	sw	a7,0(t5)
    3a5a:	00df2223          	sw	a3,4(t5)
    3a5e:	4432                	lw	s0,12(sp)
    3a60:	44a2                	lw	s1,8(sp)
    3a62:	0141                	addi	sp,sp,16
    3a64:	8082                	ret
    3a66:	0108f633          	and	a2,a7,a6
    3a6a:	02560633          	mul	a2,a2,t0
    3a6e:	0106f5b3          	and	a1,a3,a6
    3a72:	0108d893          	srli	a7,a7,0x10
    3a76:	82c1                	srli	a3,a3,0x10
    3a78:	4781                	li	a5,0
    3a7a:	4705                	li	a4,1
    3a7c:	4485                	li	s1,1
    3a7e:	03f585b3          	mul	a1,a1,t6
    3a82:	98b2                	add	a7,a7,a2
    3a84:	01089613          	slli	a2,a7,0x10
    3a88:	96ae                	add	a3,a3,a1
    3a8a:	9636                	add	a2,a2,a3
    3a8c:	8ec3a623          	sw	a2,-1812(t2)
    3a90:	bf45                	j	3a40 <fillrand+0x70>
    3a92:	8082                	ret

00003a94 <encfile>:
    3a94:	7139                	addi	sp,sp,-64
    3a96:	d05a                	sw	s6,32(sp)
    3a98:	8b2e                	mv	s6,a1
    3a9a:	da26                	sw	s1,52(sp)
    3a9c:	45c1                	li	a1,16
    3a9e:	84aa                	mv	s1,a0
    3aa0:	855a                	mv	a0,s6
    3aa2:	de06                	sw	ra,60(sp)
    3aa4:	dc22                	sw	s0,56(sp)
    3aa6:	d84a                	sw	s2,48(sp)
    3aa8:	d64e                	sw	s3,44(sp)
    3aaa:	d452                	sw	s4,40(sp)
    3aac:	d256                	sw	s5,36(sp)
    3aae:	ce5e                	sw	s7,28(sp)
    3ab0:	3705                	jal	39d0 <fillrand>
    3ab2:	4585                	li	a1,1
    3ab4:	850a                	mv	a0,sp
    3ab6:	3f29                	jal	39d0 <fillrand>
    3ab8:	00014783          	lbu	a5,0(sp)
    3abc:	41c65a37          	lui	s4,0x41c65
    3ac0:	698d                	lui	s3,0x3
    3ac2:	9bc1                	andi	a5,a5,-16
    3ac4:	80000937          	lui	s2,0x80000
    3ac8:	00f10023          	sb	a5,0(sp)
    3acc:	10000a93          	li	s5,256
    3ad0:	20001bb7          	lui	s7,0x20001
    3ad4:	0800                	addi	s0,sp,16
    3ad6:	e6da0a13          	addi	s4,s4,-403 # 41c64e6d <__kernel_stack+0x21ba4e75>
    3ada:	03998993          	addi	s3,s3,57 # 3039 <decrypt+0xdb1>
    3ade:	fff94913          	not	s2,s2
    3ae2:	8e8ba783          	lw	a5,-1816(s7) # 200008e8 <seed.0>
    3ae6:	870a                	mv	a4,sp
    3ae8:	868a                	mv	a3,sp
    3aea:	034787b3          	mul	a5,a5,s4
    3aee:	0685                	addi	a3,a3,1
    3af0:	97ce                	add	a5,a5,s3
    3af2:	0127f7b3          	and	a5,a5,s2
    3af6:	4107d613          	srai	a2,a5,0x10
    3afa:	fec68fa3          	sb	a2,-1(a3)
    3afe:	fe8696e3          	bne	a3,s0,3aea <encfile+0x56>
    3b02:	8efba423          	sw	a5,-1816(s7)
    3b06:	86da                	mv	a3,s6
    3b08:	00074783          	lbu	a5,0(a4)
    3b0c:	0006c603          	lbu	a2,0(a3)
    3b10:	0705                	addi	a4,a4,1
    3b12:	0685                	addi	a3,a3,1
    3b14:	8fb1                	xor	a5,a5,a2
    3b16:	fef70fa3          	sb	a5,-1(a4)
    3b1a:	fe8717e3          	bne	a4,s0,3b08 <encfile+0x74>
    3b1e:	1afd                	addi	s5,s5,-1
    3b20:	8626                	mv	a2,s1
    3b22:	85da                	mv	a1,s6
    3b24:	850a                	mv	a0,sp
    3b26:	fe7fc0ef          	jal	ra,b0c <encrypt>
    3b2a:	fa0a9ce3          	bnez	s5,3ae2 <encfile+0x4e>
    3b2e:	50f2                	lw	ra,60(sp)
    3b30:	5462                	lw	s0,56(sp)
    3b32:	54d2                	lw	s1,52(sp)
    3b34:	5942                	lw	s2,48(sp)
    3b36:	59b2                	lw	s3,44(sp)
    3b38:	5a22                	lw	s4,40(sp)
    3b3a:	5a92                	lw	s5,36(sp)
    3b3c:	5b02                	lw	s6,32(sp)
    3b3e:	4bf2                	lw	s7,28(sp)
    3b40:	4501                	li	a0,0
    3b42:	6121                	addi	sp,sp,64
    3b44:	8082                	ret

00003b46 <decfile>:
    3b46:	715d                	addi	sp,sp,-80
    3b48:	c2a6                	sw	s1,68(sp)
    3b4a:	d266                	sw	s9,36(sp)
    3b4c:	84aa                	mv	s1,a0
    3b4e:	8cae                	mv	s9,a1
    3b50:	850a                	mv	a0,sp
    3b52:	45c1                	li	a1,16
    3b54:	c4a2                	sw	s0,72(sp)
    3b56:	d65e                	sw	s7,44(sp)
    3b58:	c686                	sw	ra,76(sp)
    3b5a:	c0ca                	sw	s2,64(sp)
    3b5c:	de4e                	sw	s3,60(sp)
    3b5e:	dc52                	sw	s4,56(sp)
    3b60:	da56                	sw	s5,52(sp)
    3b62:	d85a                	sw	s6,48(sp)
    3b64:	d462                	sw	s8,40(sp)
    3b66:	20001437          	lui	s0,0x20001
    3b6a:	359d                	jal	39d0 <fillrand>
    3b6c:	8e842783          	lw	a5,-1816(s0) # 200008e8 <seed.0>
    3b70:	01010b93          	addi	s7,sp,16
    3b74:	41c65537          	lui	a0,0x41c65
    3b78:	658d                	lui	a1,0x3
    3b7a:	80000637          	lui	a2,0x80000
    3b7e:	875e                	mv	a4,s7
    3b80:	02010813          	addi	a6,sp,32
    3b84:	e6d50513          	addi	a0,a0,-403 # 41c64e6d <__kernel_stack+0x21ba4e75>
    3b88:	03958593          	addi	a1,a1,57 # 3039 <decrypt+0xdb1>
    3b8c:	fff64613          	not	a2,a2
    3b90:	02a787b3          	mul	a5,a5,a0
    3b94:	0705                	addi	a4,a4,1
    3b96:	97ae                	add	a5,a5,a1
    3b98:	8ff1                	and	a5,a5,a2
    3b9a:	4107d693          	srai	a3,a5,0x10
    3b9e:	fed70fa3          	sb	a3,-1(a4)
    3ba2:	fee817e3          	bne	a6,a4,3b90 <decfile+0x4a>
    3ba6:	8626                	mv	a2,s1
    3ba8:	85e6                	mv	a1,s9
    3baa:	855e                	mv	a0,s7
    3bac:	8ef42423          	sw	a5,-1816(s0)
    3bb0:	ed8fe0ef          	jal	ra,2288 <decrypt>
    3bb4:	870a                	mv	a4,sp
    3bb6:	87e6                	mv	a5,s9
    3bb8:	0007c683          	lbu	a3,0(a5)
    3bbc:	00074603          	lbu	a2,0(a4)
    3bc0:	0785                	addi	a5,a5,1
    3bc2:	0705                	addi	a4,a4,1
    3bc4:	8eb1                	xor	a3,a3,a2
    3bc6:	fed78fa3          	sb	a3,-1(a5)
    3bca:	feeb97e3          	bne	s7,a4,3bb8 <decfile+0x72>
    3bce:	41c65a37          	lui	s4,0x41c65
    3bd2:	698d                	lui	s3,0x3
    3bd4:	80000937          	lui	s2,0x80000
    3bd8:	10000c13          	li	s8,256
    3bdc:	8b0a                	mv	s6,sp
    3bde:	010c8a93          	addi	s5,s9,16
    3be2:	e6da0a13          	addi	s4,s4,-403 # 41c64e6d <__kernel_stack+0x21ba4e75>
    3be6:	03998993          	addi	s3,s3,57 # 3039 <decrypt+0xdb1>
    3bea:	fff94913          	not	s2,s2
    3bee:	8e842783          	lw	a5,-1816(s0)
    3bf2:	875a                	mv	a4,s6
    3bf4:	010b0613          	addi	a2,s6,16
    3bf8:	034787b3          	mul	a5,a5,s4
    3bfc:	0705                	addi	a4,a4,1
    3bfe:	97ce                	add	a5,a5,s3
    3c00:	0127f7b3          	and	a5,a5,s2
    3c04:	4107d693          	srai	a3,a5,0x10
    3c08:	fed70fa3          	sb	a3,-1(a4)
    3c0c:	fee616e3          	bne	a2,a4,3bf8 <decfile+0xb2>
    3c10:	8626                	mv	a2,s1
    3c12:	85e6                	mv	a1,s9
    3c14:	855a                	mv	a0,s6
    3c16:	8ef42423          	sw	a5,-1816(s0)
    3c1a:	e6efe0ef          	jal	ra,2288 <decrypt>
    3c1e:	86de                	mv	a3,s7
    3c20:	87e6                	mv	a5,s9
    3c22:	0007c703          	lbu	a4,0(a5)
    3c26:	0006c603          	lbu	a2,0(a3)
    3c2a:	0785                	addi	a5,a5,1
    3c2c:	0685                	addi	a3,a3,1
    3c2e:	8f31                	xor	a4,a4,a2
    3c30:	fee78fa3          	sb	a4,-1(a5)
    3c34:	fefa97e3          	bne	s5,a5,3c22 <decfile+0xdc>
    3c38:	1c7d                	addi	s8,s8,-1
    3c3a:	87de                	mv	a5,s7
    3c3c:	8bda                	mv	s7,s6
    3c3e:	000c0463          	beqz	s8,3c46 <decfile+0x100>
    3c42:	8b3e                	mv	s6,a5
    3c44:	b76d                	j	3bee <decfile+0xa8>
    3c46:	40b6                	lw	ra,76(sp)
    3c48:	4426                	lw	s0,72(sp)
    3c4a:	4496                	lw	s1,68(sp)
    3c4c:	4906                	lw	s2,64(sp)
    3c4e:	59f2                	lw	s3,60(sp)
    3c50:	5a62                	lw	s4,56(sp)
    3c52:	5ad2                	lw	s5,52(sp)
    3c54:	5b42                	lw	s6,48(sp)
    3c56:	5bb2                	lw	s7,44(sp)
    3c58:	5c22                	lw	s8,40(sp)
    3c5a:	5c92                	lw	s9,36(sp)
    3c5c:	4501                	li	a0,0
    3c5e:	6161                	addi	sp,sp,80
    3c60:	8082                	ret

00003c62 <verify_benchmark>:
    3c62:	557d                	li	a0,-1
    3c64:	8082                	ret

00003c66 <initialise_benchmark>:
    3c66:	8082                	ret

00003c68 <benchmark>:
    3c68:	da010113          	addi	sp,sp,-608
    3c6c:	20c00613          	li	a2,524
    3c70:	4581                	li	a1,0
    3c72:	00c8                	addi	a0,sp,68
    3c74:	24112e23          	sw	ra,604(sp)
    3c78:	24812c23          	sw	s0,600(sp)
    3c7c:	d202                	sw	zero,36(sp)
    3c7e:	d402                	sw	zero,40(sp)
    3c80:	d602                	sw	zero,44(sp)
    3c82:	d802                	sw	zero,48(sp)
    3c84:	da02                	sw	zero,52(sp)
    3c86:	dc02                	sw	zero,56(sp)
    3c88:	de02                	sw	zero,60(sp)
    3c8a:	c082                	sw	zero,64(sp)
    3c8c:	6f0040ef          	jal	ra,837c <memset>
    3c90:	200017b7          	lui	a5,0x20001
    3c94:	8b07a803          	lw	a6,-1872(a5) # 200008b0 <presetkey>
    3c98:	4701                	li	a4,0
    3c9a:	4781                	li	a5,0
    3c9c:	48a5                	li	a7,9
    3c9e:	4e15                	li	t3,5
    3ca0:	04000313          	li	t1,64
    3ca4:	00084683          	lbu	a3,0(a6) # 10000 <_global_impure_ptr+0x5a78>
    3ca8:	00479513          	slli	a0,a5,0x4
    3cac:	fd068613          	addi	a2,a3,-48
    3cb0:	fbf68593          	addi	a1,a3,-65
    3cb4:	9536                	add	a0,a0,a3
    3cb6:	0ff67613          	andi	a2,a2,255
    3cba:	0ff5f593          	andi	a1,a1,255
    3cbe:	87aa                	mv	a5,a0
    3cc0:	c2c5                	beqz	a3,3d60 <benchmark+0xf8>
    3cc2:	0805                	addi	a6,a6,1
    3cc4:	08c8e963          	bltu	a7,a2,3d56 <benchmark+0xee>
    3cc8:	fd050793          	addi	a5,a0,-48
    3ccc:	00177613          	andi	a2,a4,1
    3cd0:	0705                	addi	a4,a4,1
    3cd2:	40175693          	srai	a3,a4,0x1
    3cd6:	0c8c                	addi	a1,sp,592
    3cd8:	96ae                	add	a3,a3,a1
    3cda:	c219                	beqz	a2,3ce0 <benchmark+0x78>
    3cdc:	dcf689a3          	sb	a5,-557(a3)
    3ce0:	fc6712e3          	bne	a4,t1,3ca4 <benchmark+0x3c>
    3ce4:	00084783          	lbu	a5,0(a6)
    3ce8:	5475                	li	s0,-3
    3cea:	eba1                	bnez	a5,3d3a <benchmark+0xd2>
    3cec:	02000413          	li	s0,32
    3cf0:	00d4                	addi	a3,sp,68
    3cf2:	4605                	li	a2,1
    3cf4:	85a2                	mv	a1,s0
    3cf6:	1048                	addi	a0,sp,36
    3cf8:	8bdfc0ef          	jal	ra,5b4 <set_key>
    3cfc:	004c                	addi	a1,sp,4
    3cfe:	00c8                	addi	a0,sp,68
    3d00:	3b51                	jal	3a94 <encfile>
    3d02:	004c                	addi	a1,sp,4
    3d04:	00c8                	addi	a0,sp,68
    3d06:	3379                	jal	3a94 <encfile>
    3d08:	85aa                	mv	a1,a0
    3d0a:	6529                	lui	a0,0xa
    3d0c:	0d450513          	addi	a0,a0,212 # a0d4 <s_box+0x100>
    3d10:	3b8010ef          	jal	ra,50c8 <printf>
    3d14:	00d4                	addi	a3,sp,68
    3d16:	4609                	li	a2,2
    3d18:	85a2                	mv	a1,s0
    3d1a:	1048                	addi	a0,sp,36
    3d1c:	899fc0ef          	jal	ra,5b4 <set_key>
    3d20:	084c                	addi	a1,sp,20
    3d22:	00c8                	addi	a0,sp,68
    3d24:	350d                	jal	3b46 <decfile>
    3d26:	084c                	addi	a1,sp,20
    3d28:	842a                	mv	s0,a0
    3d2a:	00c8                	addi	a0,sp,68
    3d2c:	3d29                	jal	3b46 <decfile>
    3d2e:	85aa                	mv	a1,a0
    3d30:	6529                	lui	a0,0xa
    3d32:	0e050513          	addi	a0,a0,224 # a0e0 <s_box+0x10c>
    3d36:	392010ef          	jal	ra,50c8 <printf>
    3d3a:	6529                	lui	a0,0xa
    3d3c:	85a2                	mv	a1,s0
    3d3e:	0ec50513          	addi	a0,a0,236 # a0ec <s_box+0x118>
    3d42:	386010ef          	jal	ra,50c8 <printf>
    3d46:	25c12083          	lw	ra,604(sp)
    3d4a:	8522                	mv	a0,s0
    3d4c:	25812403          	lw	s0,600(sp)
    3d50:	26010113          	addi	sp,sp,608
    3d54:	8082                	ret
    3d56:	00be6f63          	bltu	t3,a1,3d74 <benchmark+0x10c>
    3d5a:	fc978793          	addi	a5,a5,-55
    3d5e:	b7bd                	j	3ccc <benchmark+0x64>
    3d60:	47fd                	li	a5,31
    3d62:	5471                	li	s0,-4
    3d64:	fce7dbe3          	bge	a5,a4,3d3a <benchmark+0xd2>
    3d68:	00f77793          	andi	a5,a4,15
    3d6c:	f7f9                	bnez	a5,3d3a <benchmark+0xd2>
    3d6e:	40175413          	srai	s0,a4,0x1
    3d72:	bfbd                	j	3cf0 <benchmark+0x88>
    3d74:	5479                	li	s0,-2
    3d76:	b7d1                	j	3d3a <benchmark+0xd2>

00003d78 <fputc>:
    3d78:	0ff57593          	andi	a1,a0,255
    3d7c:	20000537          	lui	a0,0x20000
    3d80:	00450513          	addi	a0,a0,4 # 20000004 <uart0>
    3d84:	66a0106f          	j	53ee <ck_uart_putc>

00003d88 <main>:
    3d88:	6795                	lui	a5,0x5
    3d8a:	7179                	addi	sp,sp,-48
    3d8c:	b0078793          	addi	a5,a5,-1280 # 4b00 <_vsnprintf+0xc4>
    3d90:	d422                	sw	s0,40(sp)
    3d92:	c43e                	sw	a5,8(sp)
    3d94:	20000437          	lui	s0,0x20000
    3d98:	478d                	li	a5,3
    3d9a:	ca3e                	sw	a5,20(sp)
    3d9c:	4581                	li	a1,0
    3d9e:	4785                	li	a5,1
    3da0:	00440513          	addi	a0,s0,4 # 20000004 <uart0>
    3da4:	d606                	sw	ra,44(sp)
    3da6:	ce3e                	sw	a5,28(sp)
    3da8:	c802                	sw	zero,16(sp)
    3daa:	c602                	sw	zero,12(sp)
    3dac:	570010ef          	jal	ra,531c <ck_uart_open>
    3db0:	002c                	addi	a1,sp,8
    3db2:	00440513          	addi	a0,s0,4
    3db6:	57a010ef          	jal	ra,5330 <ck_uart_init>
    3dba:	357d                	jal	3c68 <benchmark>
    3dbc:	6529                	lui	a0,0xa
    3dbe:	0f450513          	addi	a0,a0,244 # a0f4 <s_box+0x120>
    3dc2:	2bc010ef          	jal	ra,507e <puts>
    3dc6:	50b2                	lw	ra,44(sp)
    3dc8:	5422                	lw	s0,40(sp)
    3dca:	4501                	li	a0,0
    3dcc:	6145                	addi	sp,sp,48
    3dce:	8082                	ret

00003dd0 <os_critical_enter>:
    3dd0:	8082                	ret

00003dd2 <os_critical_exit>:
    3dd2:	8082                	ret

00003dd4 <ck_intc_init>:
    3dd4:	e00007b7          	lui	a5,0xe0000
    3dd8:	0007a023          	sw	zero,0(a5) # e0000000 <__kernel_stack+0xbff40008>
    3ddc:	00810737          	lui	a4,0x810
    3de0:	e08007b7          	lui	a5,0xe0800
    3de4:	40e7a823          	sw	a4,1040(a5) # e0800410 <__kernel_stack+0xc0740418>
    3de8:	8082                	ret

00003dea <_out_buffer>:
    3dea:	00d67563          	bgeu	a2,a3,3df4 <_out_buffer+0xa>
    3dee:	95b2                	add	a1,a1,a2
    3df0:	00a58023          	sb	a0,0(a1)
    3df4:	8082                	ret

00003df6 <_out_null>:
    3df6:	8082                	ret

00003df8 <_out_rev>:
    3df8:	7179                	addi	sp,sp,-48
    3dfa:	d226                	sw	s1,36(sp)
    3dfc:	d04a                	sw	s2,32(sp)
    3dfe:	ce4e                	sw	s3,28(sp)
    3e00:	cc52                	sw	s4,24(sp)
    3e02:	ca56                	sw	s5,20(sp)
    3e04:	c85a                	sw	s6,16(sp)
    3e06:	8ab2                	mv	s5,a2
    3e08:	c462                	sw	s8,8(sp)
    3e0a:	c266                	sw	s9,4(sp)
    3e0c:	c06a                	sw	s10,0(sp)
    3e0e:	d606                	sw	ra,44(sp)
    3e10:	d422                	sw	s0,40(sp)
    3e12:	c65e                	sw	s7,12(sp)
    3e14:	0038f613          	andi	a2,a7,3
    3e18:	8cc6                	mv	s9,a7
    3e1a:	892a                	mv	s2,a0
    3e1c:	89ae                	mv	s3,a1
    3e1e:	8a36                	mv	s4,a3
    3e20:	8b3a                	mv	s6,a4
    3e22:	8d3e                	mv	s10,a5
    3e24:	8c42                	mv	s8,a6
    3e26:	84d6                	mv	s1,s5
    3e28:	e205                	bnez	a2,3e48 <_out_rev+0x50>
    3e2a:	0107ff63          	bgeu	a5,a6,3e48 <_out_rev+0x50>
    3e2e:	40f804b3          	sub	s1,a6,a5
    3e32:	94d6                	add	s1,s1,s5
    3e34:	8456                	mv	s0,s5
    3e36:	8622                	mv	a2,s0
    3e38:	86d2                	mv	a3,s4
    3e3a:	0405                	addi	s0,s0,1
    3e3c:	85ce                	mv	a1,s3
    3e3e:	02000513          	li	a0,32
    3e42:	9902                	jalr	s2
    3e44:	fe9419e3          	bne	s0,s1,3e36 <_out_rev+0x3e>
    3e48:	020d0163          	beqz	s10,3e6a <_out_rev+0x72>
    3e4c:	01ab0433          	add	s0,s6,s10
    3e50:	00940bb3          	add	s7,s0,s1
    3e54:	fff44503          	lbu	a0,-1(s0)
    3e58:	408b8633          	sub	a2,s7,s0
    3e5c:	86d2                	mv	a3,s4
    3e5e:	147d                	addi	s0,s0,-1
    3e60:	85ce                	mv	a1,s3
    3e62:	9902                	jalr	s2
    3e64:	fe8b18e3          	bne	s6,s0,3e54 <_out_rev+0x5c>
    3e68:	94ea                	add	s1,s1,s10
    3e6a:	002cfc93          	andi	s9,s9,2
    3e6e:	020c8063          	beqz	s9,3e8e <_out_rev+0x96>
    3e72:	41548ab3          	sub	s5,s1,s5
    3e76:	018afc63          	bgeu	s5,s8,3e8e <_out_rev+0x96>
    3e7a:	8626                	mv	a2,s1
    3e7c:	0a85                	addi	s5,s5,1
    3e7e:	86d2                	mv	a3,s4
    3e80:	85ce                	mv	a1,s3
    3e82:	02000513          	li	a0,32
    3e86:	0485                	addi	s1,s1,1
    3e88:	9902                	jalr	s2
    3e8a:	ff8ae8e3          	bltu	s5,s8,3e7a <_out_rev+0x82>
    3e8e:	50b2                	lw	ra,44(sp)
    3e90:	5422                	lw	s0,40(sp)
    3e92:	5902                	lw	s2,32(sp)
    3e94:	49f2                	lw	s3,28(sp)
    3e96:	4a62                	lw	s4,24(sp)
    3e98:	4ad2                	lw	s5,20(sp)
    3e9a:	4b42                	lw	s6,16(sp)
    3e9c:	4bb2                	lw	s7,12(sp)
    3e9e:	4c22                	lw	s8,8(sp)
    3ea0:	4c92                	lw	s9,4(sp)
    3ea2:	4d02                	lw	s10,0(sp)
    3ea4:	8526                	mv	a0,s1
    3ea6:	5492                	lw	s1,36(sp)
    3ea8:	6145                	addi	sp,sp,48
    3eaa:	8082                	ret

00003eac <_ntoa_format>:
    3eac:	43a2                	lw	t2,8(sp)
    3eae:	4282                	lw	t0,0(sp)
    3eb0:	4f92                	lw	t6,4(sp)
    3eb2:	0023f313          	andi	t1,t2,2
    3eb6:	8f42                	mv	t5,a6
    3eb8:	04031f63          	bnez	t1,3f16 <_ntoa_format+0x6a>
    3ebc:	0013f813          	andi	a6,t2,1
    3ec0:	0e0f9d63          	bnez	t6,3fba <_ntoa_format+0x10e>
    3ec4:	0257f363          	bgeu	a5,t0,3eea <_ntoa_format+0x3e>
    3ec8:	437d                	li	t1,31
    3eca:	1cf36b63          	bltu	t1,a5,40a0 <_ntoa_format+0x1f4>
    3ece:	03000e13          	li	t3,48
    3ed2:	02000e93          	li	t4,32
    3ed6:	a019                	j	3edc <_ntoa_format+0x30>
    3ed8:	01d78963          	beq	a5,t4,3eea <_ntoa_format+0x3e>
    3edc:	0785                	addi	a5,a5,1
    3ede:	00f70333          	add	t1,a4,a5
    3ee2:	ffc30fa3          	sb	t3,-1(t1)
    3ee6:	fe57e9e3          	bltu	a5,t0,3ed8 <_ntoa_format+0x2c>
    3eea:	02080663          	beqz	a6,3f16 <_ntoa_format+0x6a>
    3eee:	03f7f463          	bgeu	a5,t6,3f16 <_ntoa_format+0x6a>
    3ef2:	02000813          	li	a6,32
    3ef6:	0f078363          	beq	a5,a6,3fdc <_ntoa_format+0x130>
    3efa:	03000e13          	li	t3,48
    3efe:	02000e93          	li	t4,32
    3f02:	a019                	j	3f08 <_ntoa_format+0x5c>
    3f04:	0dd78c63          	beq	a5,t4,3fdc <_ntoa_format+0x130>
    3f08:	0785                	addi	a5,a5,1
    3f0a:	00f70333          	add	t1,a4,a5
    3f0e:	ffc30fa3          	sb	t3,-1(t1)
    3f12:	fff799e3          	bne	a5,t6,3f04 <_ntoa_format+0x58>
    3f16:	0103f813          	andi	a6,t2,16
    3f1a:	06080a63          	beqz	a6,3f8e <_ntoa_format+0xe2>
    3f1e:	4003f813          	andi	a6,t2,1024
    3f22:	04081563          	bnez	a6,3f6c <_ntoa_format+0xc0>
    3f26:	02079f63          	bnez	a5,3f64 <_ntoa_format+0xb8>
    3f2a:	47c1                	li	a5,16
    3f2c:	12f88663          	beq	a7,a5,4058 <_ntoa_format+0x1ac>
    3f30:	4789                	li	a5,2
    3f32:	16f88163          	beq	a7,a5,4094 <_ntoa_format+0x1e8>
    3f36:	03000793          	li	a5,48
    3f3a:	00f70023          	sb	a5,0(a4) # 810000 <_global_impure_ptr+0x805a78>
    3f3e:	4785                	li	a5,1
    3f40:	040f0d63          	beqz	t5,3f9a <_ntoa_format+0xee>
    3f44:	00f70833          	add	a6,a4,a5
    3f48:	02d00893          	li	a7,45
    3f4c:	01180023          	sb	a7,0(a6)
    3f50:	0785                	addi	a5,a5,1
    3f52:	889e                	mv	a7,t2
    3f54:	887e                	mv	a6,t6
    3f56:	b54d                	j	3df8 <_out_rev>
    3f58:	4003f793          	andi	a5,t2,1024
    3f5c:	12079363          	bnez	a5,4082 <_ntoa_format+0x1d6>
    3f60:	02000793          	li	a5,32
    3f64:	0af28e63          	beq	t0,a5,4020 <_ntoa_format+0x174>
    3f68:	0aff8c63          	beq	t6,a5,4020 <_ntoa_format+0x174>
    3f6c:	4841                	li	a6,16
    3f6e:	0d088563          	beq	a7,a6,4038 <_ntoa_format+0x18c>
    3f72:	4809                	li	a6,2
    3f74:	09088c63          	beq	a7,a6,400c <_ntoa_format+0x160>
    3f78:	02000813          	li	a6,32
    3f7c:	fd078be3          	beq	a5,a6,3f52 <_ntoa_format+0xa6>
    3f80:	00f70833          	add	a6,a4,a5
    3f84:	03000893          	li	a7,48
    3f88:	01180023          	sb	a7,0(a6)
    3f8c:	0785                	addi	a5,a5,1
    3f8e:	02000813          	li	a6,32
    3f92:	fd0780e3          	beq	a5,a6,3f52 <_ntoa_format+0xa6>
    3f96:	fa0f17e3          	bnez	t5,3f44 <_ntoa_format+0x98>
    3f9a:	0043f813          	andi	a6,t2,4
    3f9e:	04081d63          	bnez	a6,3ff8 <_ntoa_format+0x14c>
    3fa2:	0083f813          	andi	a6,t2,8
    3fa6:	fa0806e3          	beqz	a6,3f52 <_ntoa_format+0xa6>
    3faa:	00f70833          	add	a6,a4,a5
    3fae:	02000893          	li	a7,32
    3fb2:	01180023          	sb	a7,0(a6)
    3fb6:	0785                	addi	a5,a5,1
    3fb8:	bf69                	j	3f52 <_ntoa_format+0xa6>
    3fba:	02080763          	beqz	a6,3fe8 <_ntoa_format+0x13c>
    3fbe:	040f1f63          	bnez	t5,401c <_ntoa_format+0x170>
    3fc2:	00c3f313          	andi	t1,t2,12
    3fc6:	04031b63          	bnez	t1,401c <_ntoa_format+0x170>
    3fca:	f257f2e3          	bgeu	a5,t0,3eee <_ntoa_format+0x42>
    3fce:	437d                	li	t1,31
    3fd0:	eef37fe3          	bgeu	t1,a5,3ece <_ntoa_format+0x22>
    3fd4:	02000793          	li	a5,32
    3fd8:	f3f7ffe3          	bgeu	a5,t6,3f16 <_ntoa_format+0x6a>
    3fdc:	0103f793          	andi	a5,t2,16
    3fe0:	ffa5                	bnez	a5,3f58 <_ntoa_format+0xac>
    3fe2:	02000793          	li	a5,32
    3fe6:	b7b5                	j	3f52 <_ntoa_format+0xa6>
    3fe8:	f257f7e3          	bgeu	a5,t0,3f16 <_ntoa_format+0x6a>
    3fec:	437d                	li	t1,31
    3fee:	eef370e3          	bgeu	t1,a5,3ece <_ntoa_format+0x22>
    3ff2:	02000793          	li	a5,32
    3ff6:	b705                	j	3f16 <_ntoa_format+0x6a>
    3ff8:	00f70833          	add	a6,a4,a5
    3ffc:	02b00893          	li	a7,43
    4000:	01180023          	sb	a7,0(a6)
    4004:	0785                	addi	a5,a5,1
    4006:	889e                	mv	a7,t2
    4008:	887e                	mv	a6,t6
    400a:	b3fd                	j	3df8 <_out_rev>
    400c:	02000813          	li	a6,32
    4010:	f50781e3          	beq	a5,a6,3f52 <_ntoa_format+0xa6>
    4014:	00f70833          	add	a6,a4,a5
    4018:	0785                	addi	a5,a5,1
    401a:	a055                	j	40be <_ntoa_format+0x212>
    401c:	1ffd                	addi	t6,t6,-1
    401e:	b775                	j	3fca <_ntoa_format+0x11e>
    4020:	fff78813          	addi	a6,a5,-1
    4024:	f00803e3          	beqz	a6,3f2a <_ntoa_format+0x7e>
    4028:	4341                	li	t1,16
    402a:	08688063          	beq	a7,t1,40aa <_ntoa_format+0x1fe>
    402e:	4309                	li	t1,2
    4030:	08688663          	beq	a7,t1,40bc <_ntoa_format+0x210>
    4034:	87c2                	mv	a5,a6
    4036:	b7a9                	j	3f80 <_ntoa_format+0xd4>
    4038:	0203f813          	andi	a6,t2,32
    403c:	02081763          	bnez	a6,406a <_ntoa_format+0x1be>
    4040:	02000813          	li	a6,32
    4044:	f10787e3          	beq	a5,a6,3f52 <_ntoa_format+0xa6>
    4048:	00f708b3          	add	a7,a4,a5
    404c:	0785                	addi	a5,a5,1
    404e:	07800813          	li	a6,120
    4052:	01088023          	sb	a6,0(a7)
    4056:	b70d                	j	3f78 <_ntoa_format+0xcc>
    4058:	0203f793          	andi	a5,t2,32
    405c:	e795                	bnez	a5,4088 <_ntoa_format+0x1dc>
    405e:	07800793          	li	a5,120
    4062:	00f70023          	sb	a5,0(a4)
    4066:	4785                	li	a5,1
    4068:	bf21                	j	3f80 <_ntoa_format+0xd4>
    406a:	02000813          	li	a6,32
    406e:	ef0782e3          	beq	a5,a6,3f52 <_ntoa_format+0xa6>
    4072:	00f70833          	add	a6,a4,a5
    4076:	05800893          	li	a7,88
    407a:	01180023          	sb	a7,0(a6)
    407e:	0785                	addi	a5,a5,1
    4080:	bde5                	j	3f78 <_ntoa_format+0xcc>
    4082:	02000793          	li	a5,32
    4086:	b5dd                	j	3f6c <_ntoa_format+0xc0>
    4088:	05800793          	li	a5,88
    408c:	00f70023          	sb	a5,0(a4)
    4090:	4785                	li	a5,1
    4092:	b5fd                	j	3f80 <_ntoa_format+0xd4>
    4094:	06200793          	li	a5,98
    4098:	00f70023          	sb	a5,0(a4)
    409c:	4785                	li	a5,1
    409e:	b5cd                	j	3f80 <_ntoa_format+0xd4>
    40a0:	02000793          	li	a5,32
    40a4:	e40815e3          	bnez	a6,3eee <_ntoa_format+0x42>
    40a8:	b5bd                	j	3f16 <_ntoa_format+0x6a>
    40aa:	0203f893          	andi	a7,t2,32
    40ae:	17f9                	addi	a5,a5,-2
    40b0:	fc0891e3          	bnez	a7,4072 <_ntoa_format+0x1c6>
    40b4:	00f708b3          	add	a7,a4,a5
    40b8:	87c2                	mv	a5,a6
    40ba:	bf51                	j	404e <_ntoa_format+0x1a2>
    40bc:	983a                	add	a6,a6,a4
    40be:	06200893          	li	a7,98
    40c2:	01180023          	sb	a7,0(a6)
    40c6:	bd4d                	j	3f78 <_ntoa_format+0xcc>

000040c8 <_ntoa_long>:
    40c8:	7139                	addi	sp,sp,-64
    40ca:	dc22                	sw	s0,56(sp)
    40cc:	de06                	sw	ra,60(sp)
    40ce:	8ec2                	mv	t4,a6
    40d0:	4416                	lw	s0,68(sp)
    40d2:	8e3a                	mv	t3,a4
    40d4:	883e                	mv	a6,a5
    40d6:	e709                	bnez	a4,40e0 <_ntoa_long+0x18>
    40d8:	40047793          	andi	a5,s0,1024
    40dc:	983d                	andi	s0,s0,-17
    40de:	e3bd                	bnez	a5,4144 <_ntoa_long+0x7c>
    40e0:	02047713          	andi	a4,s0,32
    40e4:	06100293          	li	t0,97
    40e8:	eb39                	bnez	a4,413e <_ntoa_long+0x76>
    40ea:	4781                	li	a5,0
    40ec:	0818                	addi	a4,sp,16
    40ee:	43a5                	li	t2,9
    40f0:	12d9                	addi	t0,t0,-10
    40f2:	02000093          	li	ra,32
    40f6:	a021                	j	40fe <_ntoa_long+0x36>
    40f8:	02178963          	beq	a5,ra,412a <_ntoa_long+0x62>
    40fc:	8e1a                	mv	t3,t1
    40fe:	03de7f33          	remu	t5,t3,t4
    4102:	0fff7313          	andi	t1,t5,255
    4106:	03030f93          	addi	t6,t1,48
    410a:	9316                	add	t1,t1,t0
    410c:	0ff37313          	andi	t1,t1,255
    4110:	01e3e463          	bltu	t2,t5,4118 <_ntoa_long+0x50>
    4114:	0ffff313          	andi	t1,t6,255
    4118:	0785                	addi	a5,a5,1
    411a:	00f70f33          	add	t5,a4,a5
    411e:	fe6f0fa3          	sb	t1,-1(t5)
    4122:	03de5333          	divu	t1,t3,t4
    4126:	fdde79e3          	bgeu	t3,t4,40f8 <_ntoa_long+0x30>
    412a:	4306                	lw	t1,64(sp)
    412c:	c422                	sw	s0,8(sp)
    412e:	c046                	sw	a7,0(sp)
    4130:	c21a                	sw	t1,4(sp)
    4132:	88f6                	mv	a7,t4
    4134:	3ba5                	jal	3eac <_ntoa_format>
    4136:	50f2                	lw	ra,60(sp)
    4138:	5462                	lw	s0,56(sp)
    413a:	6121                	addi	sp,sp,64
    413c:	8082                	ret
    413e:	04100293          	li	t0,65
    4142:	b765                	j	40ea <_ntoa_long+0x22>
    4144:	4781                	li	a5,0
    4146:	0818                	addi	a4,sp,16
    4148:	b7cd                	j	412a <_ntoa_long+0x62>

0000414a <_ntoa_long_long>:
    414a:	7175                	addi	sp,sp,-144
    414c:	d2d6                	sw	s5,100(sp)
    414e:	d0da                	sw	s6,96(sp)
    4150:	cede                	sw	s7,92(sp)
    4152:	cce2                	sw	s8,88(sp)
    4154:	cae6                	sw	s9,84(sp)
    4156:	c8ea                	sw	s10,80(sp)
    4158:	c6ee                	sw	s11,76(sp)
    415a:	de86                	sw	ra,124(sp)
    415c:	8dbe                	mv	s11,a5
    415e:	dca2                	sw	s0,120(sp)
    4160:	daa6                	sw	s1,116(sp)
    4162:	d8ca                	sw	s2,112(sp)
    4164:	d6ce                	sw	s3,108(sp)
    4166:	d4d2                	sw	s4,104(sp)
    4168:	c746                	sw	a7,140(sp)
    416a:	8fd9                	or	a5,a5,a4
    416c:	cc2a                	sw	a0,24(sp)
    416e:	ce2e                	sw	a1,28(sp)
    4170:	4b4a                	lw	s6,144(sp)
    4172:	8aba                	mv	s5,a4
    4174:	8bb2                	mv	s7,a2
    4176:	8c36                	mv	s8,a3
    4178:	8cc2                	mv	s9,a6
    417a:	8d46                	mv	s10,a7
    417c:	eb89                	bnez	a5,418e <_ntoa_long_long+0x44>
    417e:	477a                	lw	a4,156(sp)
    4180:	47fa                	lw	a5,156(sp)
    4182:	fef77a13          	andi	s4,a4,-17
    4186:	4007f793          	andi	a5,a5,1024
    418a:	cf52                	sw	s4,156(sp)
    418c:	e3bd                	bnez	a5,41f2 <_ntoa_long_long+0xa8>
    418e:	47fa                	lw	a5,156(sp)
    4190:	06100413          	li	s0,97
    4194:	0207f793          	andi	a5,a5,32
    4198:	e3c5                	bnez	a5,4238 <_ntoa_long_long+0xee>
    419a:	4a01                	li	s4,0
    419c:	1004                	addi	s1,sp,32
    419e:	4925                	li	s2,9
    41a0:	1459                	addi	s0,s0,-10
    41a2:	02000993          	li	s3,32
    41a6:	866a                	mv	a2,s10
    41a8:	86da                	mv	a3,s6
    41aa:	8556                	mv	a0,s5
    41ac:	85ee                	mv	a1,s11
    41ae:	69e010ef          	jal	ra,584c <__umoddi3>
    41b2:	0ff57513          	andi	a0,a0,255
    41b6:	00850833          	add	a6,a0,s0
    41ba:	03050613          	addi	a2,a0,48
    41be:	0ff87813          	andi	a6,a6,255
    41c2:	00a96463          	bltu	s2,a0,41ca <_ntoa_long_long+0x80>
    41c6:	0ff67813          	andi	a6,a2,255
    41ca:	0a05                	addi	s4,s4,1
    41cc:	014488b3          	add	a7,s1,s4
    41d0:	8556                	mv	a0,s5
    41d2:	85ee                	mv	a1,s11
    41d4:	866a                	mv	a2,s10
    41d6:	86da                	mv	a3,s6
    41d8:	ff088fa3          	sb	a6,-1(a7)
    41dc:	310010ef          	jal	ra,54ec <__udivdi3>
    41e0:	016deb63          	bltu	s11,s6,41f6 <_ntoa_long_long+0xac>
    41e4:	05bb0763          	beq	s6,s11,4232 <_ntoa_long_long+0xe8>
    41e8:	013a0763          	beq	s4,s3,41f6 <_ntoa_long_long+0xac>
    41ec:	8aaa                	mv	s5,a0
    41ee:	8dae                	mv	s11,a1
    41f0:	bf5d                	j	41a6 <_ntoa_long_long+0x5c>
    41f2:	4a01                	li	s4,0
    41f4:	1004                	addi	s1,sp,32
    41f6:	476a                	lw	a4,152(sp)
    41f8:	47fa                	lw	a5,156(sp)
    41fa:	45f2                	lw	a1,28(sp)
    41fc:	c23a                	sw	a4,4(sp)
    41fe:	475a                	lw	a4,148(sp)
    4200:	4562                	lw	a0,24(sp)
    4202:	c43e                	sw	a5,8(sp)
    4204:	c03a                	sw	a4,0(sp)
    4206:	88ea                	mv	a7,s10
    4208:	8866                	mv	a6,s9
    420a:	87d2                	mv	a5,s4
    420c:	8726                	mv	a4,s1
    420e:	86e2                	mv	a3,s8
    4210:	865e                	mv	a2,s7
    4212:	3969                	jal	3eac <_ntoa_format>
    4214:	50f6                	lw	ra,124(sp)
    4216:	5466                	lw	s0,120(sp)
    4218:	54d6                	lw	s1,116(sp)
    421a:	5946                	lw	s2,112(sp)
    421c:	59b6                	lw	s3,108(sp)
    421e:	5a26                	lw	s4,104(sp)
    4220:	5a96                	lw	s5,100(sp)
    4222:	5b06                	lw	s6,96(sp)
    4224:	4bf6                	lw	s7,92(sp)
    4226:	4c66                	lw	s8,88(sp)
    4228:	4cd6                	lw	s9,84(sp)
    422a:	4d46                	lw	s10,80(sp)
    422c:	4db6                	lw	s11,76(sp)
    422e:	6149                	addi	sp,sp,144
    4230:	8082                	ret
    4232:	fbaafbe3          	bgeu	s5,s10,41e8 <_ntoa_long_long+0x9e>
    4236:	b7c1                	j	41f6 <_ntoa_long_long+0xac>
    4238:	04100413          	li	s0,65
    423c:	bfb9                	j	419a <_ntoa_long_long+0x50>

0000423e <_etoa>:
    423e:	7119                	addi	sp,sp,-128
    4240:	d8ca                	sw	s2,112(sp)
    4242:	d6ce                	sw	s3,108(sp)
    4244:	d4d2                	sw	s4,104(sp)
    4246:	d2d6                	sw	s5,100(sp)
    4248:	89aa                	mv	s3,a0
    424a:	8a2e                	mv	s4,a1
    424c:	8932                	mv	s2,a2
    424e:	8ab6                	mv	s5,a3
    4250:	863a                	mv	a2,a4
    4252:	86be                	mv	a3,a5
    4254:	853a                	mv	a0,a4
    4256:	85be                	mv	a1,a5
    4258:	dca2                	sw	s0,120(sp)
    425a:	daa6                	sw	s1,116(sp)
    425c:	d0da                	sw	s6,96(sp)
    425e:	cce2                	sw	s8,88(sp)
    4260:	cae6                	sw	s9,84(sp)
    4262:	de86                	sw	ra,124(sp)
    4264:	cede                	sw	s7,92(sp)
    4266:	c8ea                	sw	s10,80(sp)
    4268:	c6ee                	sw	s11,76(sp)
    426a:	843a                	mv	s0,a4
    426c:	84be                	mv	s1,a5
    426e:	8c42                	mv	s8,a6
    4270:	8b46                	mv	s6,a7
    4272:	05f020ef          	jal	ra,6ad0 <__eqdf2>
    4276:	4c8a                	lw	s9,128(sp)
    4278:	36051063          	bnez	a0,45d8 <_etoa+0x39a>
    427c:	67a9                	lui	a5,0xa
    427e:	4f07a603          	lw	a2,1264(a5) # a4f0 <__erodata>
    4282:	4f47a683          	lw	a3,1268(a5)
    4286:	8522                	mv	a0,s0
    4288:	85a6                	mv	a1,s1
    428a:	0eb020ef          	jal	ra,6b74 <__gedf2>
    428e:	34a04563          	bgtz	a0,45d8 <_etoa+0x39a>
    4292:	67a9                	lui	a5,0xa
    4294:	4f87a603          	lw	a2,1272(a5) # a4f8 <__erodata+0x8>
    4298:	4fc7a683          	lw	a3,1276(a5)
    429c:	8522                	mv	a0,s0
    429e:	85a6                	mv	a1,s1
    42a0:	18b020ef          	jal	ra,6c2a <__ledf2>
    42a4:	32054a63          	bltz	a0,45d8 <_etoa+0x39a>
    42a8:	8522                	mv	a0,s0
    42aa:	85a6                	mv	a1,s1
    42ac:	4601                	li	a2,0
    42ae:	4681                	li	a3,0
    42b0:	17b020ef          	jal	ra,6c2a <__ledf2>
    42b4:	80000bb7          	lui	s7,0x80000
    42b8:	d222                	sw	s0,36(sp)
    42ba:	009bcbb3          	xor	s7,s7,s1
    42be:	00054363          	bltz	a0,42c4 <_etoa+0x86>
    42c2:	8ba6                	mv	s7,s1
    42c4:	400cf793          	andi	a5,s9,1024
    42c8:	de3e                	sw	a5,60(sp)
    42ca:	e391                	bnez	a5,42ce <_etoa+0x90>
    42cc:	4c19                	li	s8,6
    42ce:	014bd513          	srli	a0,s7,0x14
    42d2:	7ff57513          	andi	a0,a0,2047
    42d6:	c0150513          	addi	a0,a0,-1023
    42da:	1d1030ef          	jal	ra,7caa <__floatsidf>
    42de:	67a9                	lui	a5,0xa
    42e0:	5007a603          	lw	a2,1280(a5) # a500 <__erodata+0x10>
    42e4:	5047a683          	lw	a3,1284(a5)
    42e8:	1f9020ef          	jal	ra,6ce0 <__muldf3>
    42ec:	67a9                	lui	a5,0xa
    42ee:	5087a603          	lw	a2,1288(a5) # a508 <__erodata+0x18>
    42f2:	50c7a683          	lw	a3,1292(a5)
    42f6:	097010ef          	jal	ra,5b8c <__adddf3>
    42fa:	00cb9793          	slli	a5,s7,0xc
    42fe:	00c7d713          	srli	a4,a5,0xc
    4302:	67a9                	lui	a5,0xa
    4304:	5107a603          	lw	a2,1296(a5) # a510 <__erodata+0x20>
    4308:	5147a683          	lw	a3,1300(a5)
    430c:	3ff007b7          	lui	a5,0x3ff00
    4310:	8fd9                	or	a5,a5,a4
    4312:	8daa                	mv	s11,a0
    4314:	8d2e                	mv	s10,a1
    4316:	8522                	mv	a0,s0
    4318:	85be                	mv	a1,a5
    431a:	765020ef          	jal	ra,727e <__subdf3>
    431e:	67a9                	lui	a5,0xa
    4320:	5187a603          	lw	a2,1304(a5) # a518 <__erodata+0x28>
    4324:	51c7a683          	lw	a3,1308(a5)
    4328:	1b9020ef          	jal	ra,6ce0 <__muldf3>
    432c:	862a                	mv	a2,a0
    432e:	86ae                	mv	a3,a1
    4330:	856e                	mv	a0,s11
    4332:	85ea                	mv	a1,s10
    4334:	059010ef          	jal	ra,5b8c <__adddf3>
    4338:	013030ef          	jal	ra,7b4a <__fixdfsi>
    433c:	8d2a                	mv	s10,a0
    433e:	16d030ef          	jal	ra,7caa <__floatsidf>
    4342:	67a9                	lui	a5,0xa
    4344:	5207a603          	lw	a2,1312(a5) # a520 <__erodata+0x30>
    4348:	5247a683          	lw	a3,1316(a5)
    434c:	8dae                	mv	s11,a1
    434e:	cc2a                	sw	a0,24(sp)
    4350:	191020ef          	jal	ra,6ce0 <__muldf3>
    4354:	6729                	lui	a4,0xa
    4356:	52872603          	lw	a2,1320(a4) # a528 <__erodata+0x38>
    435a:	52c72683          	lw	a3,1324(a4)
    435e:	02f010ef          	jal	ra,5b8c <__adddf3>
    4362:	7e8030ef          	jal	ra,7b4a <__fixdfsi>
    4366:	47e2                	lw	a5,24(sp)
    4368:	66a9                	lui	a3,0xa
    436a:	5306a603          	lw	a2,1328(a3) # a530 <__erodata+0x40>
    436e:	5346a683          	lw	a3,1332(a3)
    4372:	872a                	mv	a4,a0
    4374:	85ee                	mv	a1,s11
    4376:	853e                	mv	a0,a5
    4378:	8dba                	mv	s11,a4
    437a:	167020ef          	jal	ra,6ce0 <__muldf3>
    437e:	87aa                	mv	a5,a0
    4380:	856e                	mv	a0,s11
    4382:	cc3e                	sw	a5,24(sp)
    4384:	d46e                	sw	s11,40(sp)
    4386:	8dae                	mv	s11,a1
    4388:	123030ef          	jal	ra,7caa <__floatsidf>
    438c:	6729                	lui	a4,0xa
    438e:	53872603          	lw	a2,1336(a4) # a538 <__erodata+0x48>
    4392:	53c72683          	lw	a3,1340(a4)
    4396:	14b020ef          	jal	ra,6ce0 <__muldf3>
    439a:	47e2                	lw	a5,24(sp)
    439c:	862a                	mv	a2,a0
    439e:	86ae                	mv	a3,a1
    43a0:	853e                	mv	a0,a5
    43a2:	85ee                	mv	a1,s11
    43a4:	6db020ef          	jal	ra,727e <__subdf3>
    43a8:	862a                	mv	a2,a0
    43aa:	86ae                	mv	a3,a1
    43ac:	d62a                	sw	a0,44(sp)
    43ae:	cc2e                	sw	a1,24(sp)
    43b0:	131020ef          	jal	ra,6ce0 <__muldf3>
    43b4:	47e2                	lw	a5,24(sp)
    43b6:	5732                	lw	a4,44(sp)
    43b8:	8daa                	mv	s11,a0
    43ba:	86be                	mv	a3,a5
    43bc:	882e                	mv	a6,a1
    43be:	863a                	mv	a2,a4
    43c0:	85be                	mv	a1,a5
    43c2:	853a                	mv	a0,a4
    43c4:	da3e                	sw	a5,52(sp)
    43c6:	dc3a                	sw	a4,56(sp)
    43c8:	cc42                	sw	a6,24(sp)
    43ca:	7c2010ef          	jal	ra,5b8c <__adddf3>
    43ce:	66a9                	lui	a3,0xa
    43d0:	882e                	mv	a6,a1
    43d2:	5406a603          	lw	a2,1344(a3) # a540 <__erodata+0x50>
    43d6:	45e2                	lw	a1,24(sp)
    43d8:	5446a683          	lw	a3,1348(a3)
    43dc:	88aa                	mv	a7,a0
    43de:	856e                	mv	a0,s11
    43e0:	d846                	sw	a7,48(sp)
    43e2:	d642                	sw	a6,44(sp)
    43e4:	060020ef          	jal	ra,6444 <__divdf3>
    43e8:	6729                	lui	a4,0xa
    43ea:	54872603          	lw	a2,1352(a4) # a548 <__erodata+0x58>
    43ee:	54c72683          	lw	a3,1356(a4)
    43f2:	79a010ef          	jal	ra,5b8c <__adddf3>
    43f6:	86ae                	mv	a3,a1
    43f8:	45e2                	lw	a1,24(sp)
    43fa:	862a                	mv	a2,a0
    43fc:	856e                	mv	a0,s11
    43fe:	046020ef          	jal	ra,6444 <__divdf3>
    4402:	66a9                	lui	a3,0xa
    4404:	5506a603          	lw	a2,1360(a3) # a550 <__erodata+0x60>
    4408:	5546a683          	lw	a3,1364(a3)
    440c:	780010ef          	jal	ra,5b8c <__adddf3>
    4410:	86ae                	mv	a3,a1
    4412:	45e2                	lw	a1,24(sp)
    4414:	862a                	mv	a2,a0
    4416:	856e                	mv	a0,s11
    4418:	02c020ef          	jal	ra,6444 <__divdf3>
    441c:	5762                	lw	a4,56(sp)
    441e:	57d2                	lw	a5,52(sp)
    4420:	66a9                	lui	a3,0xa
    4422:	832a                	mv	t1,a0
    4424:	8dae                	mv	s11,a1
    4426:	5586a503          	lw	a0,1368(a3) # a558 <__erodata+0x68>
    442a:	55c6a583          	lw	a1,1372(a3)
    442e:	863a                	mv	a2,a4
    4430:	86be                	mv	a3,a5
    4432:	cc1a                	sw	t1,24(sp)
    4434:	64b020ef          	jal	ra,727e <__subdf3>
    4438:	4362                	lw	t1,24(sp)
    443a:	862a                	mv	a2,a0
    443c:	86ae                	mv	a3,a1
    443e:	851a                	mv	a0,t1
    4440:	85ee                	mv	a1,s11
    4442:	74a010ef          	jal	ra,5b8c <__adddf3>
    4446:	58c2                	lw	a7,48(sp)
    4448:	5832                	lw	a6,44(sp)
    444a:	862a                	mv	a2,a0
    444c:	86ae                	mv	a3,a1
    444e:	8546                	mv	a0,a7
    4450:	85c2                	mv	a1,a6
    4452:	7f3010ef          	jal	ra,6444 <__divdf3>
    4456:	67a9                	lui	a5,0xa
    4458:	5607a603          	lw	a2,1376(a5) # a560 <__erodata+0x70>
    445c:	5647a683          	lw	a3,1380(a5)
    4460:	72c010ef          	jal	ra,5b8c <__adddf3>
    4464:	57a2                	lw	a5,40(sp)
    4466:	4601                	li	a2,0
    4468:	3ff78793          	addi	a5,a5,1023
    446c:	07d2                	slli	a5,a5,0x14
    446e:	86be                	mv	a3,a5
    4470:	071020ef          	jal	ra,6ce0 <__muldf3>
    4474:	8622                	mv	a2,s0
    4476:	86de                	mv	a3,s7
    4478:	8daa                	mv	s11,a0
    447a:	cc2e                	sw	a1,24(sp)
    447c:	6f8020ef          	jal	ra,6b74 <__gedf2>
    4480:	18a04463          	bgtz	a0,4608 <_etoa+0x3ca>
    4484:	43e2                	lw	t2,24(sp)
    4486:	836e                	mv	t1,s11
    4488:	063d0d93          	addi	s11,s10,99
    448c:	00bcd793          	srli	a5,s9,0xb
    4490:	0c600713          	li	a4,198
    4494:	01b73db3          	sltu	s11,a4,s11
    4498:	8b85                	andi	a5,a5,1
    449a:	0d91                	addi	s11,s11,4
    449c:	c7a1                	beqz	a5,44e4 <_etoa+0x2a6>
    449e:	67a9                	lui	a5,0xa
    44a0:	5687a603          	lw	a2,1384(a5) # a568 <__erodata+0x78>
    44a4:	56c7a683          	lw	a3,1388(a5)
    44a8:	8522                	mv	a0,s0
    44aa:	85de                	mv	a1,s7
    44ac:	cc1a                	sw	t1,24(sp)
    44ae:	ce1e                	sw	t2,28(sp)
    44b0:	6c4020ef          	jal	ra,6b74 <__gedf2>
    44b4:	4362                	lw	t1,24(sp)
    44b6:	43f2                	lw	t2,28(sp)
    44b8:	00054f63          	bltz	a0,44d6 <_etoa+0x298>
    44bc:	67a9                	lui	a5,0xa
    44be:	5707a603          	lw	a2,1392(a5) # a570 <__erodata+0x80>
    44c2:	5747a683          	lw	a3,1396(a5)
    44c6:	8522                	mv	a0,s0
    44c8:	85de                	mv	a1,s7
    44ca:	760020ef          	jal	ra,6c2a <__ledf2>
    44ce:	4362                	lw	t1,24(sp)
    44d0:	43f2                	lw	t2,28(sp)
    44d2:	14054863          	bltz	a0,4622 <_etoa+0x3e4>
    44d6:	000c0763          	beqz	s8,44e4 <_etoa+0x2a6>
    44da:	57f2                	lw	a5,60(sp)
    44dc:	00f037b3          	snez	a5,a5
    44e0:	40fc0c33          	sub	s8,s8,a5
    44e4:	4881                	li	a7,0
    44e6:	016df463          	bgeu	s11,s6,44ee <_etoa+0x2b0>
    44ea:	41bb08b3          	sub	a7,s6,s11
    44ee:	002cf793          	andi	a5,s9,2
    44f2:	d43e                	sw	a5,40(sp)
    44f4:	c799                	beqz	a5,4502 <_etoa+0x2c4>
    44f6:	001db793          	seqz	a5,s11
    44fa:	40f007b3          	neg	a5,a5
    44fe:	00f8f8b3          	and	a7,a7,a5
    4502:	000d0c63          	beqz	s10,451a <_etoa+0x2dc>
    4506:	85de                	mv	a1,s7
    4508:	8522                	mv	a0,s0
    450a:	861a                	mv	a2,t1
    450c:	869e                	mv	a3,t2
    450e:	cc46                	sw	a7,24(sp)
    4510:	735010ef          	jal	ra,6444 <__divdf3>
    4514:	48e2                	lw	a7,24(sp)
    4516:	d22a                	sw	a0,36(sp)
    4518:	8bae                	mv	s7,a1
    451a:	8522                	mv	a0,s0
    451c:	85a6                	mv	a1,s1
    451e:	4601                	li	a2,0
    4520:	4681                	li	a3,0
    4522:	cc46                	sw	a7,24(sp)
    4524:	706020ef          	jal	ra,6c2a <__ledf2>
    4528:	48e2                	lw	a7,24(sp)
    452a:	00055663          	bgez	a0,4536 <_etoa+0x2f8>
    452e:	800007b7          	lui	a5,0x80000
    4532:	0177cbb3          	xor	s7,a5,s7
    4536:	5512                	lw	a0,36(sp)
    4538:	77fd                	lui	a5,0xfffff
    453a:	7ff78793          	addi	a5,a5,2047 # fffff7ff <__kernel_stack+0xdff3f807>
    453e:	00fcf7b3          	and	a5,s9,a5
    4542:	c03e                	sw	a5,0(sp)
    4544:	872a                	mv	a4,a0
    4546:	8862                	mv	a6,s8
    4548:	87de                	mv	a5,s7
    454a:	86d6                	mv	a3,s5
    454c:	864a                	mv	a2,s2
    454e:	85d2                	mv	a1,s4
    4550:	854e                	mv	a0,s3
    4552:	20e5                	jal	463a <_ftoa>
    4554:	842a                	mv	s0,a0
    4556:	060d8163          	beqz	s11,45b8 <_etoa+0x37a>
    455a:	01ac9513          	slli	a0,s9,0x1a
    455e:	857d                	srai	a0,a0,0x1f
    4560:	9901                	andi	a0,a0,-32
    4562:	8622                	mv	a2,s0
    4564:	86d6                	mv	a3,s5
    4566:	85d2                	mv	a1,s4
    4568:	06550513          	addi	a0,a0,101
    456c:	9982                	jalr	s3
    456e:	41fd5713          	srai	a4,s10,0x1f
    4572:	01a746b3          	xor	a3,a4,s10
    4576:	4795                	li	a5,5
    4578:	1dfd                	addi	s11,s11,-1
    457a:	00140613          	addi	a2,s0,1
    457e:	c23e                	sw	a5,4(sp)
    4580:	40e68733          	sub	a4,a3,a4
    4584:	01fd5793          	srli	a5,s10,0x1f
    4588:	c06e                	sw	s11,0(sp)
    458a:	4881                	li	a7,0
    458c:	4829                	li	a6,10
    458e:	86d6                	mv	a3,s5
    4590:	85d2                	mv	a1,s4
    4592:	854e                	mv	a0,s3
    4594:	3e15                	jal	40c8 <_ntoa_long>
    4596:	57a2                	lw	a5,40(sp)
    4598:	842a                	mv	s0,a0
    459a:	cf99                	beqz	a5,45b8 <_etoa+0x37a>
    459c:	41250933          	sub	s2,a0,s2
    45a0:	01697c63          	bgeu	s2,s6,45b8 <_etoa+0x37a>
    45a4:	8622                	mv	a2,s0
    45a6:	0905                	addi	s2,s2,1
    45a8:	86d6                	mv	a3,s5
    45aa:	85d2                	mv	a1,s4
    45ac:	02000513          	li	a0,32
    45b0:	0405                	addi	s0,s0,1
    45b2:	9982                	jalr	s3
    45b4:	ff6968e3          	bltu	s2,s6,45a4 <_etoa+0x366>
    45b8:	50f6                	lw	ra,124(sp)
    45ba:	8522                	mv	a0,s0
    45bc:	5466                	lw	s0,120(sp)
    45be:	54d6                	lw	s1,116(sp)
    45c0:	5946                	lw	s2,112(sp)
    45c2:	59b6                	lw	s3,108(sp)
    45c4:	5a26                	lw	s4,104(sp)
    45c6:	5a96                	lw	s5,100(sp)
    45c8:	5b06                	lw	s6,96(sp)
    45ca:	4bf6                	lw	s7,92(sp)
    45cc:	4c66                	lw	s8,88(sp)
    45ce:	4cd6                	lw	s9,84(sp)
    45d0:	4d46                	lw	s10,80(sp)
    45d2:	4db6                	lw	s11,76(sp)
    45d4:	6109                	addi	sp,sp,128
    45d6:	8082                	ret
    45d8:	8722                	mv	a4,s0
    45da:	5466                	lw	s0,120(sp)
    45dc:	c166                	sw	s9,128(sp)
    45de:	50f6                	lw	ra,124(sp)
