
E:/个人文件/论文paper/SoftwareX/CFIEE/elf_files/rijndael_main.elf:     file format elf32-littleriscv


Disassembly of section .text:

00000000 <__start>:
       0:	200c0117          	auipc	sp,0x200c0
       4:	ff810113          	addi	sp,sp,-8 # 200bfff8 <__kernel_stack>
       8:	0000a197          	auipc	gp,0xa
       c:	4e818193          	addi	gp,gp,1256 # a4f0 <__erodata>
      10:	20000217          	auipc	tp,0x20000
      14:	ff020213          	addi	tp,tp,-16 # 20000000 <__data_start__>
      18:	20001297          	auipc	t0,0x20001
      1c:	89028293          	addi	t0,t0,-1904 # 200008a8 <count.2>
      20:	404282b3          	sub	t0,t0,tp
      24:	00028b63          	beqz	t0,3a <L_loop0_done>

00000028 <L_loop0>:
      28:	0001a303          	lw	t1,0(gp)
      2c:	00622023          	sw	t1,0(tp) # 0 <__start>
      30:	0191                	addi	gp,gp,4
      32:	0211                	addi	tp,tp,4
      34:	12f1                	addi	t0,t0,-4
      36:	fe0299e3          	bnez	t0,28 <L_loop0>

0000003a <L_loop0_done>:
      3a:	20001197          	auipc	gp,0x20001
      3e:	86e18193          	addi	gp,gp,-1938 # 200008a8 <count.2>
      42:	20001217          	auipc	tp,0x20001
      46:	8a620213          	addi	tp,tp,-1882 # 200008e8 <seed.0>
      4a:	4281                	li	t0,0
      4c:	40320233          	sub	tp,tp,gp
      50:	00020863          	beqz	tp,60 <L_loop1_done>

00000054 <L_loop1>:
      54:	0051a023          	sw	t0,0(gp)
      58:	0191                	addi	gp,gp,4
      5a:	1271                	addi	tp,tp,-4
      5c:	fe021ce3          	bnez	tp,54 <L_loop1>

00000060 <L_loop1_done>:
      60:	00000197          	auipc	gp,0x0
      64:	0e018193          	addi	gp,gp,224 # 140 <trap_handler>
      68:	30519073          	csrw	mtvec,gp
      6c:	00000197          	auipc	gp,0x0
      70:	11418193          	addi	gp,gp,276 # 180 <vector_table>
      74:	04018193          	addi	gp,gp,64
      78:	30719073          	csrw	mtvt,gp
      7c:	effff7b7          	lui	a5,0xeffff
      80:	00020837          	lui	a6,0x20
      84:	0107a023          	sw	a6,0(a5) # effff000 <__kernel_stack+0xcff3f008>
      88:	48b1                	li	a7,12
      8a:	0117a223          	sw	a7,4(a5)
      8e:	00040837          	lui	a6,0x40
      92:	48b1                	li	a7,12
      94:	0107a423          	sw	a6,8(a5)
      98:	0117a623          	sw	a7,12(a5)
      9c:	00050837          	lui	a6,0x50
      a0:	48c1                	li	a7,16
      a2:	0107a823          	sw	a6,16(a5)
      a6:	0117aa23          	sw	a7,20(a5)
      aa:	400117b7          	lui	a5,0x40011
      ae:	0ff00813          	li	a6,255
      b2:	0107a023          	sw	a6,0(a5) # 40011000 <__kernel_stack+0x1ff51008>
      b6:	480d                	li	a6,3
      b8:	0107a423          	sw	a6,8(a5)
      bc:	0047a803          	lw	a6,4(a5)
      c0:	08800193          	li	gp,136
      c4:	30019073          	csrw	mstatus,gp
      c8:	6189                	lui	gp,0x2
      ca:	3001a073          	csrs	mstatus,gp
      ce:	6185                	lui	gp,0x1
      d0:	03f18193          	addi	gp,gp,63 # 103f <encrypt+0x533>
      d4:	7c119073          	csrw	mhcr,gp
      d8:	6191                	lui	gp,0x4
      da:	01b1                	addi	gp,gp,12
      dc:	7c519073          	csrw	mhint,gp

000000e0 <__to_main>:
      e0:	4a9030ef          	jal	ra,3d88 <main>

000000e4 <__exit>:
      e4:	0000100f          	fence.i
      e8:	0ff0000f          	fence
      ec:	60010237          	lui	tp,0x60010
      f0:	1261                	addi	tp,tp,-8
      f2:	0ff00193          	li	gp,255
      f6:	0192                	slli	gp,gp,0x4
      f8:	01bd                	addi	gp,gp,15
      fa:	00322023          	sw	gp,0(tp) # 60010000 <__kernel_stack+0x3ff50008>

000000fe <__fail>:
      fe:	0000100f          	fence.i
     102:	0ff0000f          	fence
     106:	60010237          	lui	tp,0x60010
     10a:	1261                	addi	tp,tp,-8
     10c:	0ee00193          	li	gp,238
     110:	0192                	slli	gp,gp,0x4
     112:	01b9                	addi	gp,gp,14
     114:	00322023          	sw	gp,0(tp) # 60010000 <__kernel_stack+0x3ff50008>
     118:	00000013          	nop
     11c:	00000013          	nop
     120:	00000013          	nop
     124:	00000013          	nop
     128:	00000013          	nop
     12c:	00000013          	nop
     130:	00000013          	nop
     134:	00000013          	nop
     138:	00000013          	nop
     13c:	00000013          	nop

00000140 <trap_handler>:
     140:	a019                	j	146 <__synchronous_exception>
     142:	0001                	nop
     144:	bf6d                	j	fe <__fail>

00000146 <__synchronous_exception>:
     146:	fed12e23          	sw	a3,-4(sp)
     14a:	fee12c23          	sw	a4,-8(sp)
     14e:	fef12a23          	sw	a5,-12(sp)
     152:	34202773          	csrr	a4,mcause
     156:	0ff77793          	andi	a5,a4,255
     15a:	836d                	srli	a4,a4,0x1b
     15c:	8b41                	andi	a4,a4,16
     15e:	973e                	add	a4,a4,a5
     160:	070a                	slli	a4,a4,0x2
     162:	00000797          	auipc	a5,0x0
     166:	01e78793          	addi	a5,a5,30 # 180 <vector_table>
     16a:	97ba                	add	a5,a5,a4
     16c:	4398                	lw	a4,0(a5)
     16e:	ffc12683          	lw	a3,-4(sp)
     172:	ff412783          	lw	a5,-12(sp)
     176:	8702                	jr	a4
     178:	00000013          	nop
     17c:	00000013          	nop

00000180 <vector_table>:
     180:	0580                	addi	s0,sp,704
     182:	0000                	unimp
     184:	0580                	addi	s0,sp,704
     186:	0000                	unimp
     188:	0580                	addi	s0,sp,704
     18a:	0000                	unimp
     18c:	0580                	addi	s0,sp,704
     18e:	0000                	unimp
     190:	0580                	addi	s0,sp,704
     192:	0000                	unimp
     194:	0580                	addi	s0,sp,704
     196:	0000                	unimp
     198:	0580                	addi	s0,sp,704
     19a:	0000                	unimp
     19c:	0580                	addi	s0,sp,704
     19e:	0000                	unimp
     1a0:	0580                	addi	s0,sp,704
     1a2:	0000                	unimp
     1a4:	0580                	addi	s0,sp,704
     1a6:	0000                	unimp
     1a8:	0580                	addi	s0,sp,704
     1aa:	0000                	unimp
     1ac:	0580                	addi	s0,sp,704
     1ae:	0000                	unimp
     1b0:	0580                	addi	s0,sp,704
     1b2:	0000                	unimp
     1b4:	0580                	addi	s0,sp,704
     1b6:	0000                	unimp
     1b8:	0580                	addi	s0,sp,704
     1ba:	0000                	unimp
     1bc:	0580                	addi	s0,sp,704
     1be:	0000                	unimp
     1c0:	0580                	addi	s0,sp,704
     1c2:	0000                	unimp
     1c4:	0580                	addi	s0,sp,704
     1c6:	0000                	unimp
     1c8:	0580                	addi	s0,sp,704
     1ca:	0000                	unimp
     1cc:	0580                	addi	s0,sp,704
     1ce:	0000                	unimp
     1d0:	0580                	addi	s0,sp,704
     1d2:	0000                	unimp
     1d4:	0580                	addi	s0,sp,704
     1d6:	0000                	unimp
     1d8:	0580                	addi	s0,sp,704
     1da:	0000                	unimp
     1dc:	0580                	addi	s0,sp,704
     1de:	0000                	unimp
     1e0:	0580                	addi	s0,sp,704
     1e2:	0000                	unimp
     1e4:	0580                	addi	s0,sp,704
     1e6:	0000                	unimp
     1e8:	0580                	addi	s0,sp,704
     1ea:	0000                	unimp
     1ec:	0580                	addi	s0,sp,704
     1ee:	0000                	unimp
     1f0:	0580                	addi	s0,sp,704
     1f2:	0000                	unimp
     1f4:	0580                	addi	s0,sp,704
     1f6:	0000                	unimp
     1f8:	0580                	addi	s0,sp,704
     1fa:	0000                	unimp
     1fc:	0580                	addi	s0,sp,704
     1fe:	0000                	unimp
     200:	0580                	addi	s0,sp,704
     202:	0000                	unimp
     204:	0580                	addi	s0,sp,704
     206:	0000                	unimp
     208:	0580                	addi	s0,sp,704
     20a:	0000                	unimp
     20c:	0580                	addi	s0,sp,704
     20e:	0000                	unimp
     210:	0580                	addi	s0,sp,704
     212:	0000                	unimp
     214:	0580                	addi	s0,sp,704
     216:	0000                	unimp
     218:	0580                	addi	s0,sp,704
     21a:	0000                	unimp
     21c:	0580                	addi	s0,sp,704
     21e:	0000                	unimp
     220:	0580                	addi	s0,sp,704
     222:	0000                	unimp
     224:	0580                	addi	s0,sp,704
     226:	0000                	unimp
     228:	0580                	addi	s0,sp,704
     22a:	0000                	unimp
     22c:	0580                	addi	s0,sp,704
     22e:	0000                	unimp
     230:	0580                	addi	s0,sp,704
     232:	0000                	unimp
     234:	0580                	addi	s0,sp,704
     236:	0000                	unimp
     238:	0580                	addi	s0,sp,704
     23a:	0000                	unimp
     23c:	0580                	addi	s0,sp,704
     23e:	0000                	unimp
     240:	0580                	addi	s0,sp,704
     242:	0000                	unimp
     244:	0580                	addi	s0,sp,704
     246:	0000                	unimp
     248:	0580                	addi	s0,sp,704
     24a:	0000                	unimp
     24c:	0580                	addi	s0,sp,704
     24e:	0000                	unimp
     250:	0580                	addi	s0,sp,704
     252:	0000                	unimp
     254:	0580                	addi	s0,sp,704
     256:	0000                	unimp
     258:	0580                	addi	s0,sp,704
     25a:	0000                	unimp
     25c:	0580                	addi	s0,sp,704
     25e:	0000                	unimp
     260:	0580                	addi	s0,sp,704
     262:	0000                	unimp
     264:	0580                	addi	s0,sp,704
     266:	0000                	unimp
     268:	0580                	addi	s0,sp,704
     26a:	0000                	unimp
     26c:	0580                	addi	s0,sp,704
     26e:	0000                	unimp
     270:	0580                	addi	s0,sp,704
     272:	0000                	unimp
     274:	0580                	addi	s0,sp,704
     276:	0000                	unimp
     278:	0580                	addi	s0,sp,704
     27a:	0000                	unimp
     27c:	0580                	addi	s0,sp,704
     27e:	0000                	unimp
     280:	0580                	addi	s0,sp,704
     282:	0000                	unimp
     284:	0580                	addi	s0,sp,704
     286:	0000                	unimp
     288:	0580                	addi	s0,sp,704
     28a:	0000                	unimp
     28c:	0580                	addi	s0,sp,704
     28e:	0000                	unimp
     290:	0580                	addi	s0,sp,704
     292:	0000                	unimp
     294:	0580                	addi	s0,sp,704
     296:	0000                	unimp
     298:	0580                	addi	s0,sp,704
     29a:	0000                	unimp
     29c:	0580                	addi	s0,sp,704
     29e:	0000                	unimp
     2a0:	0580                	addi	s0,sp,704
     2a2:	0000                	unimp
     2a4:	0580                	addi	s0,sp,704
     2a6:	0000                	unimp
     2a8:	0580                	addi	s0,sp,704
     2aa:	0000                	unimp
     2ac:	0580                	addi	s0,sp,704
     2ae:	0000                	unimp
     2b0:	0580                	addi	s0,sp,704
     2b2:	0000                	unimp
     2b4:	0580                	addi	s0,sp,704
     2b6:	0000                	unimp
     2b8:	0580                	addi	s0,sp,704
     2ba:	0000                	unimp
     2bc:	0580                	addi	s0,sp,704
     2be:	0000                	unimp
     2c0:	0580                	addi	s0,sp,704
     2c2:	0000                	unimp
     2c4:	0580                	addi	s0,sp,704
     2c6:	0000                	unimp
     2c8:	0580                	addi	s0,sp,704
     2ca:	0000                	unimp
     2cc:	0580                	addi	s0,sp,704
     2ce:	0000                	unimp
     2d0:	0580                	addi	s0,sp,704
     2d2:	0000                	unimp
     2d4:	0580                	addi	s0,sp,704
     2d6:	0000                	unimp
     2d8:	0580                	addi	s0,sp,704
     2da:	0000                	unimp
     2dc:	0580                	addi	s0,sp,704
     2de:	0000                	unimp
     2e0:	0580                	addi	s0,sp,704
     2e2:	0000                	unimp
     2e4:	0580                	addi	s0,sp,704
     2e6:	0000                	unimp
     2e8:	0580                	addi	s0,sp,704
     2ea:	0000                	unimp
     2ec:	0580                	addi	s0,sp,704
     2ee:	0000                	unimp
     2f0:	0580                	addi	s0,sp,704
     2f2:	0000                	unimp
     2f4:	0580                	addi	s0,sp,704
     2f6:	0000                	unimp
     2f8:	0580                	addi	s0,sp,704
     2fa:	0000                	unimp
     2fc:	0580                	addi	s0,sp,704
     2fe:	0000                	unimp
     300:	0580                	addi	s0,sp,704
     302:	0000                	unimp
     304:	0580                	addi	s0,sp,704
     306:	0000                	unimp
     308:	0580                	addi	s0,sp,704
     30a:	0000                	unimp
     30c:	0580                	addi	s0,sp,704
     30e:	0000                	unimp
     310:	0580                	addi	s0,sp,704
     312:	0000                	unimp
     314:	0580                	addi	s0,sp,704
     316:	0000                	unimp
     318:	0580                	addi	s0,sp,704
     31a:	0000                	unimp
     31c:	0580                	addi	s0,sp,704
     31e:	0000                	unimp
     320:	0580                	addi	s0,sp,704
     322:	0000                	unimp
     324:	0580                	addi	s0,sp,704
     326:	0000                	unimp
     328:	0580                	addi	s0,sp,704
     32a:	0000                	unimp
     32c:	0580                	addi	s0,sp,704
     32e:	0000                	unimp
     330:	0580                	addi	s0,sp,704
     332:	0000                	unimp
     334:	0580                	addi	s0,sp,704
     336:	0000                	unimp
     338:	0580                	addi	s0,sp,704
     33a:	0000                	unimp
     33c:	0580                	addi	s0,sp,704
     33e:	0000                	unimp
     340:	0580                	addi	s0,sp,704
     342:	0000                	unimp
     344:	0580                	addi	s0,sp,704
     346:	0000                	unimp
     348:	0580                	addi	s0,sp,704
     34a:	0000                	unimp
     34c:	0580                	addi	s0,sp,704
     34e:	0000                	unimp
     350:	0580                	addi	s0,sp,704
     352:	0000                	unimp
     354:	0580                	addi	s0,sp,704
     356:	0000                	unimp
     358:	0580                	addi	s0,sp,704
     35a:	0000                	unimp
     35c:	0580                	addi	s0,sp,704
     35e:	0000                	unimp
     360:	0580                	addi	s0,sp,704
     362:	0000                	unimp
     364:	0580                	addi	s0,sp,704
     366:	0000                	unimp
     368:	0580                	addi	s0,sp,704
     36a:	0000                	unimp
     36c:	0580                	addi	s0,sp,704
     36e:	0000                	unimp
     370:	0580                	addi	s0,sp,704
     372:	0000                	unimp
     374:	0580                	addi	s0,sp,704
     376:	0000                	unimp
     378:	0580                	addi	s0,sp,704
     37a:	0000                	unimp
     37c:	0580                	addi	s0,sp,704
     37e:	0000                	unimp
     380:	0580                	addi	s0,sp,704
     382:	0000                	unimp
     384:	0580                	addi	s0,sp,704
     386:	0000                	unimp
     388:	0580                	addi	s0,sp,704
     38a:	0000                	unimp
     38c:	0580                	addi	s0,sp,704
     38e:	0000                	unimp
     390:	0580                	addi	s0,sp,704
     392:	0000                	unimp
     394:	0580                	addi	s0,sp,704
     396:	0000                	unimp
     398:	0580                	addi	s0,sp,704
     39a:	0000                	unimp
     39c:	0580                	addi	s0,sp,704
     39e:	0000                	unimp
     3a0:	0580                	addi	s0,sp,704
     3a2:	0000                	unimp
     3a4:	0580                	addi	s0,sp,704
     3a6:	0000                	unimp
     3a8:	0580                	addi	s0,sp,704
     3aa:	0000                	unimp
     3ac:	0580                	addi	s0,sp,704
     3ae:	0000                	unimp
     3b0:	0580                	addi	s0,sp,704
     3b2:	0000                	unimp
     3b4:	0580                	addi	s0,sp,704
     3b6:	0000                	unimp
     3b8:	0580                	addi	s0,sp,704
     3ba:	0000                	unimp
     3bc:	0580                	addi	s0,sp,704
     3be:	0000                	unimp
     3c0:	0580                	addi	s0,sp,704
     3c2:	0000                	unimp
     3c4:	0580                	addi	s0,sp,704
     3c6:	0000                	unimp
     3c8:	0580                	addi	s0,sp,704
     3ca:	0000                	unimp
     3cc:	0580                	addi	s0,sp,704
     3ce:	0000                	unimp
     3d0:	0580                	addi	s0,sp,704
     3d2:	0000                	unimp
     3d4:	0580                	addi	s0,sp,704
     3d6:	0000                	unimp
     3d8:	0580                	addi	s0,sp,704
     3da:	0000                	unimp
     3dc:	0580                	addi	s0,sp,704
     3de:	0000                	unimp
     3e0:	0580                	addi	s0,sp,704
     3e2:	0000                	unimp
     3e4:	0580                	addi	s0,sp,704
     3e6:	0000                	unimp
     3e8:	0580                	addi	s0,sp,704
     3ea:	0000                	unimp
     3ec:	0580                	addi	s0,sp,704
     3ee:	0000                	unimp
     3f0:	0580                	addi	s0,sp,704
     3f2:	0000                	unimp
     3f4:	0580                	addi	s0,sp,704
     3f6:	0000                	unimp
     3f8:	0580                	addi	s0,sp,704
     3fa:	0000                	unimp
     3fc:	0580                	addi	s0,sp,704
     3fe:	0000                	unimp
     400:	0580                	addi	s0,sp,704
     402:	0000                	unimp
     404:	0580                	addi	s0,sp,704
     406:	0000                	unimp
     408:	0580                	addi	s0,sp,704
     40a:	0000                	unimp
     40c:	0580                	addi	s0,sp,704
     40e:	0000                	unimp
     410:	0580                	addi	s0,sp,704
     412:	0000                	unimp
     414:	0580                	addi	s0,sp,704
     416:	0000                	unimp
     418:	0580                	addi	s0,sp,704
     41a:	0000                	unimp
     41c:	0580                	addi	s0,sp,704
     41e:	0000                	unimp
     420:	0580                	addi	s0,sp,704
     422:	0000                	unimp
     424:	0580                	addi	s0,sp,704
     426:	0000                	unimp
     428:	0580                	addi	s0,sp,704
     42a:	0000                	unimp
     42c:	0580                	addi	s0,sp,704
     42e:	0000                	unimp
     430:	0580                	addi	s0,sp,704
     432:	0000                	unimp
     434:	0580                	addi	s0,sp,704
     436:	0000                	unimp
     438:	0580                	addi	s0,sp,704
     43a:	0000                	unimp
     43c:	0580                	addi	s0,sp,704
     43e:	0000                	unimp
     440:	0580                	addi	s0,sp,704
     442:	0000                	unimp
     444:	0580                	addi	s0,sp,704
     446:	0000                	unimp
     448:	0580                	addi	s0,sp,704
     44a:	0000                	unimp
     44c:	0580                	addi	s0,sp,704
     44e:	0000                	unimp
     450:	0580                	addi	s0,sp,704
     452:	0000                	unimp
     454:	0580                	addi	s0,sp,704
     456:	0000                	unimp
     458:	0580                	addi	s0,sp,704
     45a:	0000                	unimp
     45c:	0580                	addi	s0,sp,704
     45e:	0000                	unimp
     460:	0580                	addi	s0,sp,704
     462:	0000                	unimp
     464:	0580                	addi	s0,sp,704
     466:	0000                	unimp
     468:	0580                	addi	s0,sp,704
     46a:	0000                	unimp
     46c:	0580                	addi	s0,sp,704
     46e:	0000                	unimp
     470:	0580                	addi	s0,sp,704
     472:	0000                	unimp
     474:	0580                	addi	s0,sp,704
     476:	0000                	unimp
     478:	0580                	addi	s0,sp,704
     47a:	0000                	unimp
     47c:	0580                	addi	s0,sp,704
     47e:	0000                	unimp
     480:	0580                	addi	s0,sp,704
     482:	0000                	unimp
     484:	0580                	addi	s0,sp,704
     486:	0000                	unimp
     488:	0580                	addi	s0,sp,704
     48a:	0000                	unimp
     48c:	0580                	addi	s0,sp,704
     48e:	0000                	unimp
     490:	0580                	addi	s0,sp,704
     492:	0000                	unimp
     494:	0580                	addi	s0,sp,704
     496:	0000                	unimp
     498:	0580                	addi	s0,sp,704
     49a:	0000                	unimp
     49c:	0580                	addi	s0,sp,704
     49e:	0000                	unimp
     4a0:	0580                	addi	s0,sp,704
     4a2:	0000                	unimp
     4a4:	0580                	addi	s0,sp,704
     4a6:	0000                	unimp
     4a8:	0580                	addi	s0,sp,704
     4aa:	0000                	unimp
     4ac:	0580                	addi	s0,sp,704
     4ae:	0000                	unimp
     4b0:	0580                	addi	s0,sp,704
     4b2:	0000                	unimp
     4b4:	0580                	addi	s0,sp,704
     4b6:	0000                	unimp
     4b8:	0580                	addi	s0,sp,704
     4ba:	0000                	unimp
     4bc:	0580                	addi	s0,sp,704
     4be:	0000                	unimp
     4c0:	0580                	addi	s0,sp,704
     4c2:	0000                	unimp
     4c4:	0580                	addi	s0,sp,704
     4c6:	0000                	unimp
     4c8:	0580                	addi	s0,sp,704
     4ca:	0000                	unimp
     4cc:	0580                	addi	s0,sp,704
     4ce:	0000                	unimp
     4d0:	0580                	addi	s0,sp,704
     4d2:	0000                	unimp
     4d4:	0580                	addi	s0,sp,704
     4d6:	0000                	unimp
     4d8:	0580                	addi	s0,sp,704
     4da:	0000                	unimp
     4dc:	0580                	addi	s0,sp,704
     4de:	0000                	unimp
     4e0:	0580                	addi	s0,sp,704
     4e2:	0000                	unimp
     4e4:	0580                	addi	s0,sp,704
     4e6:	0000                	unimp
     4e8:	0580                	addi	s0,sp,704
     4ea:	0000                	unimp
     4ec:	0580                	addi	s0,sp,704
     4ee:	0000                	unimp
     4f0:	0580                	addi	s0,sp,704
     4f2:	0000                	unimp
     4f4:	0580                	addi	s0,sp,704
     4f6:	0000                	unimp
     4f8:	0580                	addi	s0,sp,704
     4fa:	0000                	unimp
     4fc:	0580                	addi	s0,sp,704
     4fe:	0000                	unimp
     500:	0580                	addi	s0,sp,704
     502:	0000                	unimp
     504:	0580                	addi	s0,sp,704
     506:	0000                	unimp
     508:	0580                	addi	s0,sp,704
     50a:	0000                	unimp
     50c:	0580                	addi	s0,sp,704
     50e:	0000                	unimp
     510:	0580                	addi	s0,sp,704
     512:	0000                	unimp
     514:	0580                	addi	s0,sp,704
     516:	0000                	unimp
     518:	0580                	addi	s0,sp,704
     51a:	0000                	unimp
     51c:	0580                	addi	s0,sp,704
     51e:	0000                	unimp
     520:	0580                	addi	s0,sp,704
     522:	0000                	unimp
     524:	0580                	addi	s0,sp,704
     526:	0000                	unimp
     528:	0580                	addi	s0,sp,704
     52a:	0000                	unimp
     52c:	0580                	addi	s0,sp,704
     52e:	0000                	unimp
     530:	0580                	addi	s0,sp,704
     532:	0000                	unimp
     534:	0580                	addi	s0,sp,704
     536:	0000                	unimp
     538:	0580                	addi	s0,sp,704
     53a:	0000                	unimp
     53c:	0580                	addi	s0,sp,704
     53e:	0000                	unimp
     540:	0580                	addi	s0,sp,704
     542:	0000                	unimp
     544:	0580                	addi	s0,sp,704
     546:	0000                	unimp
     548:	0580                	addi	s0,sp,704
     54a:	0000                	unimp
     54c:	0580                	addi	s0,sp,704
     54e:	0000                	unimp
     550:	0580                	addi	s0,sp,704
     552:	0000                	unimp
     554:	0580                	addi	s0,sp,704
     556:	0000                	unimp
     558:	0580                	addi	s0,sp,704
     55a:	0000                	unimp
     55c:	0580                	addi	s0,sp,704
     55e:	0000                	unimp
     560:	0580                	addi	s0,sp,704
     562:	0000                	unimp
     564:	0580                	addi	s0,sp,704
     566:	0000                	unimp
     568:	0580                	addi	s0,sp,704
     56a:	0000                	unimp
     56c:	0580                	addi	s0,sp,704
     56e:	0000                	unimp
     570:	0580                	addi	s0,sp,704
     572:	0000                	unimp
     574:	0580                	addi	s0,sp,704
     576:	0000                	unimp
     578:	0580                	addi	s0,sp,704
     57a:	0000                	unimp
     57c:	0580                	addi	s0,sp,704
	...

00000580 <__dummy>:
     580:	bebd                	j	fe <__fail>
	...

000005b4 <set_key>:
     5b4:	0075f793          	andi	a5,a1,7
     5b8:	28079663          	bnez	a5,844 <set_key+0x290>
     5bc:	47bd                	li	a5,15
     5be:	26b7fd63          	bgeu	a5,a1,838 <set_key+0x284>
     5c2:	02000793          	li	a5,32
     5c6:	2086c303          	lbu	t1,520(a3)
     5ca:	26b7ef63          	bltu	a5,a1,848 <set_key+0x294>
     5ce:	8a0d                	andi	a2,a2,3
     5d0:	26060c63          	beqz	a2,848 <set_key+0x294>
     5d4:	8189                	srli	a1,a1,0x2
     5d6:	ffc37313          	andi	t1,t1,-4
     5da:	00c36333          	or	t1,t1,a2
     5de:	00658793          	addi	a5,a1,6
     5e2:	c2dc                	sw	a5,4(a3)
     5e4:	20668423          	sb	t1,520(a3)
     5e8:	c28c                	sw	a1,0(a3)
     5ea:	00052f83          	lw	t6,0(a0)
     5ee:	00758e13          	addi	t3,a1,7
     5f2:	0e0a                	slli	t3,t3,0x2
     5f4:	01f6a423          	sw	t6,8(a3)
     5f8:	00452803          	lw	a6,4(a0)
     5fc:	1101                	addi	sp,sp,-32
     5fe:	40be0e33          	sub	t3,t3,a1
     602:	0106a623          	sw	a6,12(a3)
     606:	00852883          	lw	a7,8(a0)
     60a:	00868713          	addi	a4,a3,8
     60e:	0e0a                	slli	t3,t3,0x2
     610:	0116a823          	sw	a7,16(a3)
     614:	4550                	lw	a2,12(a0)
     616:	ce22                	sw	s0,28(sp)
     618:	cc26                	sw	s1,24(sp)
     61a:	ca4a                	sw	s2,20(sp)
     61c:	c84e                	sw	s3,16(sp)
     61e:	c652                	sw	s4,12(sp)
     620:	c456                	sw	s5,8(sp)
     622:	4799                	li	a5,6
     624:	cad0                	sw	a2,20(a3)
     626:	9e3a                	add	t3,t3,a4
     628:	22f58663          	beq	a1,a5,854 <set_key+0x2a0>
     62c:	47a1                	li	a5,8
     62e:	2ef58663          	beq	a1,a5,91a <set_key+0x366>
     632:	4791                	li	a5,4
     634:	42f58c63          	beq	a1,a5,a6c <set_key+0x4b8>
     638:	00337313          	andi	t1,t1,3
     63c:	4705                	li	a4,1
     63e:	4505                	li	a0,1
     640:	1ee30463          	beq	t1,a4,828 <set_key+0x274>
     644:	42d0                	lw	a2,4(a3)
     646:	468c                	lw	a1,8(a3)
     648:	10868793          	addi	a5,a3,264
     64c:	0612                	slli	a2,a2,0x4
     64e:	97b2                	add	a5,a5,a2
     650:	c38c                	sw	a1,0(a5)
     652:	46c8                	lw	a0,12(a3)
     654:	ff078613          	addi	a2,a5,-16
     658:	01868593          	addi	a1,a3,24
     65c:	c3c8                	sw	a0,4(a5)
     65e:	4a88                	lw	a0,16(a3)
     660:	c788                	sw	a0,8(a5)
     662:	4ac8                	lw	a0,20(a3)
     664:	c7c8                	sw	a0,12(a5)
     666:	42dc                	lw	a5,4(a3)
     668:	1af77763          	bgeu	a4,a5,816 <set_key+0x262>
     66c:	67a5                	lui	a5,0x9
     66e:	4505                	li	a0,1
     670:	a6078793          	addi	a5,a5,-1440 # 8a60 <rcon_tab>
     674:	4198                	lw	a4,0(a1)
     676:	05c1                	addi	a1,a1,16
     678:	1641                	addi	a2,a2,-16
     67a:	01875313          	srli	t1,a4,0x18
     67e:	00675893          	srli	a7,a4,0x6
     682:	030a                	slli	t1,t1,0x2
     684:	933e                	add	t1,t1,a5
     686:	0ff77813          	andi	a6,a4,255
     68a:	3fc8f893          	andi	a7,a7,1020
     68e:	8339                	srli	a4,a4,0xe
     690:	47432e03          	lw	t3,1140(t1)
     694:	98be                	add	a7,a7,a5
     696:	080a                	slli	a6,a6,0x2
     698:	3fc77713          	andi	a4,a4,1020
     69c:	4748a303          	lw	t1,1140(a7)
     6a0:	983e                	add	a6,a6,a5
     6a2:	973e                	add	a4,a4,a5
     6a4:	47472883          	lw	a7,1140(a4)
     6a8:	47482e83          	lw	t4,1140(a6) # 50474 <_global_impure_ptr+0x45eec>
     6ac:	008e5713          	srli	a4,t3,0x8
     6b0:	0e62                	slli	t3,t3,0x18
     6b2:	00831813          	slli	a6,t1,0x8
     6b6:	01c76733          	or	a4,a4,t3
     6ba:	01835313          	srli	t1,t1,0x18
     6be:	00686333          	or	t1,a6,t1
     6c2:	01d74733          	xor	a4,a4,t4
     6c6:	01089813          	slli	a6,a7,0x10
     6ca:	0108d893          	srli	a7,a7,0x10
     6ce:	011868b3          	or	a7,a6,a7
     6d2:	00674733          	xor	a4,a4,t1
     6d6:	01174733          	xor	a4,a4,a7
     6da:	ca18                	sw	a4,16(a2)
     6dc:	ff45a703          	lw	a4,-12(a1)
     6e0:	0505                	addi	a0,a0,1
     6e2:	01875313          	srli	t1,a4,0x18
     6e6:	00675893          	srli	a7,a4,0x6
     6ea:	030a                	slli	t1,t1,0x2
     6ec:	933e                	add	t1,t1,a5
     6ee:	0ff77813          	andi	a6,a4,255
     6f2:	3fc8f893          	andi	a7,a7,1020
     6f6:	8339                	srli	a4,a4,0xe
     6f8:	47432e03          	lw	t3,1140(t1)
     6fc:	98be                	add	a7,a7,a5
     6fe:	080a                	slli	a6,a6,0x2
     700:	3fc77713          	andi	a4,a4,1020
     704:	4748a303          	lw	t1,1140(a7)
     708:	983e                	add	a6,a6,a5
     70a:	973e                	add	a4,a4,a5
     70c:	47472883          	lw	a7,1140(a4)
     710:	47482e83          	lw	t4,1140(a6)
     714:	008e5713          	srli	a4,t3,0x8
     718:	0e62                	slli	t3,t3,0x18
     71a:	00831813          	slli	a6,t1,0x8
     71e:	01c76733          	or	a4,a4,t3
     722:	01835313          	srli	t1,t1,0x18
     726:	00686333          	or	t1,a6,t1
     72a:	01d74733          	xor	a4,a4,t4
     72e:	01089813          	slli	a6,a7,0x10
     732:	0108d893          	srli	a7,a7,0x10
     736:	011868b3          	or	a7,a6,a7
     73a:	00674733          	xor	a4,a4,t1
     73e:	01174733          	xor	a4,a4,a7
     742:	ca58                	sw	a4,20(a2)
     744:	ff85a703          	lw	a4,-8(a1)
     748:	01875313          	srli	t1,a4,0x18
     74c:	00675893          	srli	a7,a4,0x6
     750:	030a                	slli	t1,t1,0x2
     752:	933e                	add	t1,t1,a5
     754:	0ff77813          	andi	a6,a4,255
     758:	3fc8f893          	andi	a7,a7,1020
     75c:	8339                	srli	a4,a4,0xe
     75e:	47432e03          	lw	t3,1140(t1)
     762:	98be                	add	a7,a7,a5
     764:	080a                	slli	a6,a6,0x2
     766:	3fc77713          	andi	a4,a4,1020
     76a:	4748a303          	lw	t1,1140(a7)
     76e:	983e                	add	a6,a6,a5
     770:	973e                	add	a4,a4,a5
     772:	47472883          	lw	a7,1140(a4)
     776:	47482e83          	lw	t4,1140(a6)
     77a:	008e5713          	srli	a4,t3,0x8
     77e:	0e62                	slli	t3,t3,0x18
     780:	00831813          	slli	a6,t1,0x8
     784:	01c76733          	or	a4,a4,t3
     788:	01835313          	srli	t1,t1,0x18
     78c:	00686333          	or	t1,a6,t1
     790:	01d74733          	xor	a4,a4,t4
     794:	01089813          	slli	a6,a7,0x10
     798:	0108d893          	srli	a7,a7,0x10
     79c:	011868b3          	or	a7,a6,a7
     7a0:	00674733          	xor	a4,a4,t1
     7a4:	01174733          	xor	a4,a4,a7
     7a8:	ce18                	sw	a4,24(a2)
     7aa:	ffc5a703          	lw	a4,-4(a1)
     7ae:	01875313          	srli	t1,a4,0x18
     7b2:	00675893          	srli	a7,a4,0x6
     7b6:	030a                	slli	t1,t1,0x2
     7b8:	933e                	add	t1,t1,a5
     7ba:	0ff77813          	andi	a6,a4,255
     7be:	3fc8f893          	andi	a7,a7,1020
     7c2:	8339                	srli	a4,a4,0xe
     7c4:	47432e03          	lw	t3,1140(t1)
     7c8:	98be                	add	a7,a7,a5
     7ca:	080a                	slli	a6,a6,0x2
     7cc:	3fc77713          	andi	a4,a4,1020
     7d0:	4748a303          	lw	t1,1140(a7)
     7d4:	983e                	add	a6,a6,a5
     7d6:	973e                	add	a4,a4,a5
     7d8:	47472883          	lw	a7,1140(a4)
     7dc:	47482e83          	lw	t4,1140(a6)
     7e0:	008e5713          	srli	a4,t3,0x8
     7e4:	0e62                	slli	t3,t3,0x18
     7e6:	00831813          	slli	a6,t1,0x8
     7ea:	01c76733          	or	a4,a4,t3
     7ee:	01835313          	srli	t1,t1,0x18
     7f2:	00686333          	or	t1,a6,t1
     7f6:	01d74733          	xor	a4,a4,t4
     7fa:	01089813          	slli	a6,a7,0x10
     7fe:	0108d893          	srli	a7,a7,0x10
     802:	00674733          	xor	a4,a4,t1
     806:	011868b3          	or	a7,a6,a7
     80a:	01174733          	xor	a4,a4,a7
     80e:	ce58                	sw	a4,28(a2)
     810:	42d8                	lw	a4,4(a3)
     812:	e6e561e3          	bltu	a0,a4,674 <set_key+0xc0>
     816:	419c                	lw	a5,0(a1)
     818:	4505                	li	a0,1
     81a:	c21c                	sw	a5,0(a2)
     81c:	41dc                	lw	a5,4(a1)
     81e:	c25c                	sw	a5,4(a2)
     820:	459c                	lw	a5,8(a1)
     822:	c61c                	sw	a5,8(a2)
     824:	45dc                	lw	a5,12(a1)
     826:	c65c                	sw	a5,12(a2)
     828:	4472                	lw	s0,28(sp)
     82a:	44e2                	lw	s1,24(sp)
     82c:	4952                	lw	s2,20(sp)
     82e:	49c2                	lw	s3,16(sp)
     830:	4a32                	lw	s4,12(sp)
     832:	4aa2                	lw	s5,8(sp)
     834:	6105                	addi	sp,sp,32
     836:	8082                	ret
     838:	e591                	bnez	a1,844 <set_key+0x290>
     83a:	4288                	lw	a0,0(a3)
     83c:	050a                	slli	a0,a0,0x2
     83e:	0542                	slli	a0,a0,0x10
     840:	8541                	srai	a0,a0,0x10
     842:	8082                	ret
     844:	2086c303          	lbu	t1,520(a3)
     848:	ffc37313          	andi	t1,t1,-4
     84c:	20668423          	sb	t1,520(a3)
     850:	4501                	li	a0,0
     852:	8082                	ret
     854:	4900                	lw	s0,16(a0)
     856:	67a5                	lui	a5,0x9
     858:	a6078793          	addi	a5,a5,-1440 # 8a60 <rcon_tab>
     85c:	ce80                	sw	s0,24(a3)
     85e:	01452e83          	lw	t4,20(a0)
     862:	00478493          	addi	s1,a5,4
     866:	4905                	li	s2,1
     868:	01d6ae23          	sw	t4,28(a3)
     86c:	a829                	j	886 <set_key+0x2d2>
     86e:	01472e83          	lw	t4,20(a4)
     872:	00472803          	lw	a6,4(a4)
     876:	00872883          	lw	a7,8(a4)
     87a:	4750                	lw	a2,12(a4)
     87c:	4b00                	lw	s0,16(a4)
     87e:	0004a903          	lw	s2,0(s1)
     882:	8fae                	mv	t6,a1
     884:	0491                	addi	s1,s1,4
     886:	018ed593          	srli	a1,t4,0x18
     88a:	0ffef393          	andi	t2,t4,255
     88e:	058a                	slli	a1,a1,0x2
     890:	006edf13          	srli	t5,t4,0x6
     894:	00eed293          	srli	t0,t4,0xe
     898:	95be                	add	a1,a1,a5
     89a:	038a                	slli	t2,t2,0x2
     89c:	0745a983          	lw	s3,116(a1)
     8a0:	3fcf7f13          	andi	t5,t5,1020
     8a4:	93be                	add	t2,t2,a5
     8a6:	3fc2f293          	andi	t0,t0,1020
     8aa:	0743a383          	lw	t2,116(t2)
     8ae:	9f3e                	add	t5,t5,a5
     8b0:	92be                	add	t0,t0,a5
     8b2:	0742a283          	lw	t0,116(t0)
     8b6:	074f2f03          	lw	t5,116(t5)
     8ba:	01099513          	slli	a0,s3,0x10
     8be:	0109d993          	srli	s3,s3,0x10
     8c2:	0083d593          	srli	a1,t2,0x8
     8c6:	01356533          	or	a0,a0,s3
     8ca:	03e2                	slli	t2,t2,0x18
     8cc:	01e54533          	xor	a0,a0,t5
     8d0:	0075e5b3          	or	a1,a1,t2
     8d4:	00829f13          	slli	t5,t0,0x8
     8d8:	0182d293          	srli	t0,t0,0x18
     8dc:	8da9                	xor	a1,a1,a0
     8de:	005f62b3          	or	t0,t5,t0
     8e2:	0055c5b3          	xor	a1,a1,t0
     8e6:	01f5c5b3          	xor	a1,a1,t6
     8ea:	0125c5b3          	xor	a1,a1,s2
     8ee:	0105c833          	xor	a6,a1,a6
     8f2:	011848b3          	xor	a7,a6,a7
     8f6:	00c8c633          	xor	a2,a7,a2
     8fa:	8c31                	xor	s0,s0,a2
     8fc:	01d44eb3          	xor	t4,s0,t4
     900:	cf0c                	sw	a1,24(a4)
     902:	01072e23          	sw	a6,28(a4)
     906:	03172023          	sw	a7,32(a4)
     90a:	d350                	sw	a2,36(a4)
     90c:	d700                	sw	s0,40(a4)
     90e:	03d72623          	sw	t4,44(a4)
     912:	0761                	addi	a4,a4,24
     914:	f5c76de3          	bltu	a4,t3,86e <set_key+0x2ba>
     918:	b305                	j	638 <set_key+0x84>
     91a:	4904                	lw	s1,16(a0)
     91c:	67a5                	lui	a5,0x9
     91e:	a6078793          	addi	a5,a5,-1440 # 8a60 <rcon_tab>
     922:	ce84                	sw	s1,24(a3)
     924:	01452383          	lw	t2,20(a0)
     928:	00478413          	addi	s0,a5,4
     92c:	4985                	li	s3,1
     92e:	0076ae23          	sw	t2,28(a3)
     932:	01852283          	lw	t0,24(a0)
     936:	0256a023          	sw	t0,32(a3)
     93a:	01c52f03          	lw	t5,28(a0)
     93e:	03e6a223          	sw	t5,36(a3)
     942:	a00d                	j	964 <set_key+0x3b0>
     944:	01c72f03          	lw	t5,28(a4)
     948:	00472803          	lw	a6,4(a4)
     94c:	00872883          	lw	a7,8(a4)
     950:	4750                	lw	a2,12(a4)
     952:	4b04                	lw	s1,16(a4)
     954:	01472383          	lw	t2,20(a4)
     958:	01872283          	lw	t0,24(a4)
     95c:	00042983          	lw	s3,0(s0)
     960:	8fae                	mv	t6,a1
     962:	0411                	addi	s0,s0,4
     964:	018f5e93          	srli	t4,t5,0x18
     968:	0fff7593          	andi	a1,t5,255
     96c:	0e8a                	slli	t4,t4,0x2
     96e:	006f5513          	srli	a0,t5,0x6
     972:	00ef5913          	srli	s2,t5,0xe
     976:	9ebe                	add	t4,t4,a5
     978:	058a                	slli	a1,a1,0x2
     97a:	074eaa83          	lw	s5,116(t4)
     97e:	95be                	add	a1,a1,a5
     980:	3fc57513          	andi	a0,a0,1020
     984:	3fc97913          	andi	s2,s2,1020
     988:	0745aa03          	lw	s4,116(a1)
     98c:	953e                	add	a0,a0,a5
     98e:	993e                	add	s2,s2,a5
     990:	07492903          	lw	s2,116(s2)
     994:	5968                	lw	a0,116(a0)
     996:	010a9e93          	slli	t4,s5,0x10
     99a:	010ada93          	srli	s5,s5,0x10
     99e:	008a5593          	srli	a1,s4,0x8
     9a2:	015eeeb3          	or	t4,t4,s5
     9a6:	0a62                	slli	s4,s4,0x18
     9a8:	0145ea33          	or	s4,a1,s4
     9ac:	00aeceb3          	xor	t4,t4,a0
     9b0:	00891593          	slli	a1,s2,0x8
     9b4:	01895913          	srli	s2,s2,0x18
     9b8:	014eceb3          	xor	t4,t4,s4
     9bc:	0125e5b3          	or	a1,a1,s2
     9c0:	00bec5b3          	xor	a1,t4,a1
     9c4:	01f5c5b3          	xor	a1,a1,t6
     9c8:	0135c5b3          	xor	a1,a1,s3
     9cc:	0105c833          	xor	a6,a1,a6
     9d0:	011848b3          	xor	a7,a6,a7
     9d4:	00c8c633          	xor	a2,a7,a2
     9d8:	01865513          	srli	a0,a2,0x18
     9dc:	050a                	slli	a0,a0,0x2
     9de:	00665913          	srli	s2,a2,0x6
     9e2:	953e                	add	a0,a0,a5
     9e4:	0ff67e93          	andi	t4,a2,255
     9e8:	3fc97913          	andi	s2,s2,1020
     9ec:	00e65f93          	srli	t6,a2,0xe
     9f0:	07452983          	lw	s3,116(a0)
     9f4:	0e8a                	slli	t4,t4,0x2
     9f6:	993e                	add	s2,s2,a5
     9f8:	3fcfff93          	andi	t6,t6,1020
     9fc:	07492903          	lw	s2,116(s2)
     a00:	9ebe                	add	t4,t4,a5
     a02:	9fbe                	add	t6,t6,a5
     a04:	074faf83          	lw	t6,116(t6)
     a08:	074eaa03          	lw	s4,116(t4)
     a0c:	0089d513          	srli	a0,s3,0x8
     a10:	09e2                	slli	s3,s3,0x18
     a12:	00891e93          	slli	t4,s2,0x8
     a16:	01356533          	or	a0,a0,s3
     a1a:	01895913          	srli	s2,s2,0x18
     a1e:	012ee933          	or	s2,t4,s2
     a22:	01454533          	xor	a0,a0,s4
     a26:	010f9e93          	slli	t4,t6,0x10
     a2a:	010fdf93          	srli	t6,t6,0x10
     a2e:	01254533          	xor	a0,a0,s2
     a32:	01feefb3          	or	t6,t4,t6
     a36:	01f54533          	xor	a0,a0,t6
     a3a:	8d25                	xor	a0,a0,s1
     a3c:	007543b3          	xor	t2,a0,t2
     a40:	0053c2b3          	xor	t0,t2,t0
     a44:	01e2cf33          	xor	t5,t0,t5
     a48:	d30c                	sw	a1,32(a4)
     a4a:	03072223          	sw	a6,36(a4)
     a4e:	03172423          	sw	a7,40(a4)
     a52:	d750                	sw	a2,44(a4)
     a54:	db08                	sw	a0,48(a4)
     a56:	02772a23          	sw	t2,52(a4)
     a5a:	02572c23          	sw	t0,56(a4)
     a5e:	03e72e23          	sw	t5,60(a4)
     a62:	02070713          	addi	a4,a4,32
     a66:	edc76fe3          	bltu	a4,t3,944 <set_key+0x390>
     a6a:	b6f9                	j	638 <set_key+0x84>
     a6c:	67a5                	lui	a5,0x9
     a6e:	a6078793          	addi	a5,a5,-1440 # 8a60 <rcon_tab>
     a72:	00478393          	addi	t2,a5,4
     a76:	4405                	li	s0,1
     a78:	a811                	j	a8c <set_key+0x4d8>
     a7a:	4750                	lw	a2,12(a4)
     a7c:	00472803          	lw	a6,4(a4)
     a80:	00872883          	lw	a7,8(a4)
     a84:	0003a403          	lw	s0,0(t2)
     a88:	8fae                	mv	t6,a1
     a8a:	0391                	addi	t2,t2,4
     a8c:	01865513          	srli	a0,a2,0x18
     a90:	0ff67293          	andi	t0,a2,255
     a94:	050a                	slli	a0,a0,0x2
     a96:	00665e93          	srli	t4,a2,0x6
     a9a:	00e65f13          	srli	t5,a2,0xe
     a9e:	953e                	add	a0,a0,a5
     aa0:	028a                	slli	t0,t0,0x2
     aa2:	5964                	lw	s1,116(a0)
     aa4:	3fcefe93          	andi	t4,t4,1020
     aa8:	92be                	add	t0,t0,a5
     aaa:	3fcf7f13          	andi	t5,t5,1020
     aae:	0742a283          	lw	t0,116(t0)
     ab2:	9ebe                	add	t4,t4,a5
     ab4:	9f3e                	add	t5,t5,a5
     ab6:	074f2f03          	lw	t5,116(t5)
     aba:	074eae83          	lw	t4,116(t4)
     abe:	01049513          	slli	a0,s1,0x10
     ac2:	80c1                	srli	s1,s1,0x10
     ac4:	0082d593          	srli	a1,t0,0x8
     ac8:	8d45                	or	a0,a0,s1
     aca:	02e2                	slli	t0,t0,0x18
     acc:	0055e2b3          	or	t0,a1,t0
     ad0:	01d54533          	xor	a0,a0,t4
     ad4:	008f1593          	slli	a1,t5,0x8
     ad8:	018f5f13          	srli	t5,t5,0x18
     adc:	00554533          	xor	a0,a0,t0
     ae0:	01e5e5b3          	or	a1,a1,t5
     ae4:	8da9                	xor	a1,a1,a0
     ae6:	01f5c5b3          	xor	a1,a1,t6
     aea:	8da1                	xor	a1,a1,s0
     aec:	0105c833          	xor	a6,a1,a6
     af0:	011848b3          	xor	a7,a6,a7
     af4:	00c8c633          	xor	a2,a7,a2
     af8:	cb0c                	sw	a1,16(a4)
     afa:	01072a23          	sw	a6,20(a4)
     afe:	01172c23          	sw	a7,24(a4)
     b02:	cf50                	sw	a2,28(a4)
     b04:	0741                	addi	a4,a4,16
     b06:	f7c76ae3          	bltu	a4,t3,a7a <set_key+0x4c6>
     b0a:	b63d                	j	638 <set_key+0x84>

00000b0c <encrypt>:
     b0c:	20864783          	lbu	a5,520(a2)
     b10:	8b85                	andi	a5,a5,1
     b12:	e399                	bnez	a5,b18 <encrypt+0xc>
     b14:	0a60106f          	j	1bba <encrypt+0x10ae>
     b18:	00052303          	lw	t1,0(a0)
     b1c:	4618                	lw	a4,8(a2)
     b1e:	00452f03          	lw	t5,4(a0)
     b22:	00852e83          	lw	t4,8(a0)
     b26:	00c52f83          	lw	t6,12(a0)
     b2a:	4654                	lw	a3,12(a2)
     b2c:	4a1c                	lw	a5,16(a2)
     b2e:	4a48                	lw	a0,20(a2)
     b30:	00462803          	lw	a6,4(a2)
     b34:	7179                	addi	sp,sp,-48
     b36:	d622                	sw	s0,44(sp)
     b38:	d426                	sw	s1,40(sp)
     b3a:	d24a                	sw	s2,36(sp)
     b3c:	d04e                	sw	s3,32(sp)
     b3e:	ce52                	sw	s4,28(sp)
     b40:	cc56                	sw	s5,24(sp)
     b42:	ca5a                	sw	s6,20(sp)
     b44:	c85e                	sw	s7,16(sp)
     b46:	c662                	sw	s8,12(sp)
     b48:	c466                	sw	s9,8(sp)
     b4a:	c26a                	sw	s10,4(sp)
     b4c:	c06e                	sw	s11,0(sp)
     b4e:	4e31                	li	t3,12
     b50:	00e34333          	xor	t1,t1,a4
     b54:	00df46b3          	xor	a3,t5,a3
     b58:	00feceb3          	xor	t4,t4,a5
     b5c:	00afc533          	xor	a0,t6,a0
     b60:	01860713          	addi	a4,a2,24
     b64:	01c81463          	bne	a6,t3,b6c <encrypt+0x60>
     b68:	7140106f          	j	227c <encrypt+0x1770>
     b6c:	48b9                	li	a7,14
     b6e:	01181463          	bne	a6,a7,b76 <encrypt+0x6a>
     b72:	04c0106f          	j	1bbe <encrypt+0x10b2>
     b76:	4629                	li	a2,10
     b78:	02c80763          	beq	a6,a2,ba6 <encrypt+0x9a>
     b7c:	5432                	lw	s0,44(sp)
     b7e:	c5c8                	sw	a0,12(a1)
     b80:	0065a023          	sw	t1,0(a1)
     b84:	c1d4                	sw	a3,4(a1)
     b86:	01d5a423          	sw	t4,8(a1)
     b8a:	54a2                	lw	s1,40(sp)
     b8c:	5912                	lw	s2,36(sp)
     b8e:	5982                	lw	s3,32(sp)
     b90:	4a72                	lw	s4,28(sp)
     b92:	4ae2                	lw	s5,24(sp)
     b94:	4b52                	lw	s6,20(sp)
     b96:	4bc2                	lw	s7,16(sp)
     b98:	4c32                	lw	s8,12(sp)
     b9a:	4ca2                	lw	s9,8(sp)
     b9c:	4d12                	lw	s10,4(sp)
     b9e:	4d82                	lw	s11,0(sp)
     ba0:	4505                	li	a0,1
     ba2:	6145                	addi	sp,sp,48
     ba4:	8082                	ret
     ba6:	67a9                	lui	a5,0xa
     ba8:	a6078793          	addi	a5,a5,-1440 # 9a60 <it_tab+0x38c>
     bac:	01855413          	srli	s0,a0,0x18
     bb0:	01835393          	srli	t2,t1,0x18
     bb4:	0186d293          	srli	t0,a3,0x18
     bb8:	018edf13          	srli	t5,t4,0x18
     bbc:	00655993          	srli	s3,a0,0x6
     bc0:	0ff37c93          	andi	s9,t1,255
     bc4:	0066da13          	srli	s4,a3,0x6
     bc8:	0ff6fc13          	andi	s8,a3,255
     bcc:	006edf93          	srli	t6,t4,0x6
     bd0:	0ffefb93          	andi	s7,t4,255
     bd4:	0ff57913          	andi	s2,a0,255
     bd8:	00635e13          	srli	t3,t1,0x6
     bdc:	040a                	slli	s0,s0,0x2
     bde:	038a                	slli	t2,t2,0x2
     be0:	028a                	slli	t0,t0,0x2
     be2:	0f0a                	slli	t5,t5,0x2
     be4:	008784b3          	add	s1,a5,s0
     be8:	93be                	add	t2,t2,a5
     bea:	92be                	add	t0,t0,a5
     bec:	9f3e                	add	t5,t5,a5
     bee:	00eed813          	srli	a6,t4,0xe
     bf2:	00e55893          	srli	a7,a0,0xe
     bf6:	00e35313          	srli	t1,t1,0xe
     bfa:	00291513          	slli	a0,s2,0x2
     bfe:	00e6d613          	srli	a2,a3,0xe
     c02:	3fc9fe93          	andi	t4,s3,1020
     c06:	3fca7693          	andi	a3,s4,1020
     c0a:	0c8a                	slli	s9,s9,0x2
     c0c:	0c0a                	slli	s8,s8,0x2
     c0e:	3fcfff93          	andi	t6,t6,1020
     c12:	0b8a                	slli	s7,s7,0x2
     c14:	3fce7e13          	andi	t3,t3,1020
     c18:	8744aa83          	lw	s5,-1932(s1)
     c1c:	8743aa03          	lw	s4,-1932(t2)
     c20:	8742a983          	lw	s3,-1932(t0)
     c24:	874f2903          	lw	s2,-1932(t5)
     c28:	9cbe                	add	s9,s9,a5
     c2a:	96be                	add	a3,a3,a5
     c2c:	9c3e                	add	s8,s8,a5
     c2e:	9fbe                	add	t6,t6,a5
     c30:	9bbe                	add	s7,s7,a5
     c32:	9ebe                	add	t4,t4,a5
     c34:	00a78433          	add	s0,a5,a0
     c38:	9e3e                	add	t3,t3,a5
     c3a:	3fc37b13          	andi	s6,t1,1020
     c3e:	3fc87813          	andi	a6,a6,1020
     c42:	3fc8f893          	andi	a7,a7,1020
     c46:	3fc67613          	andi	a2,a2,1020
     c4a:	8746af03          	lw	t5,-1932(a3)
     c4e:	874fa483          	lw	s1,-1932(t6)
     c52:	874ea383          	lw	t2,-1932(t4)
     c56:	874e2503          	lw	a0,-1932(t3)
     c5a:	874cae83          	lw	t4,-1932(s9)
     c5e:	874c2303          	lw	t1,-1932(s8)
     c62:	874baf83          	lw	t6,-1932(s7)
     c66:	00c72d83          	lw	s11,12(a4)
     c6a:	00072c83          	lw	s9,0(a4)
     c6e:	00472283          	lw	t0,4(a4)
     c72:	00872b83          	lw	s7,8(a4)
     c76:	983e                	add	a6,a6,a5
     c78:	9b3e                	add	s6,s6,a5
     c7a:	87442403          	lw	s0,-1932(s0)
     c7e:	98be                	add	a7,a7,a5
     c80:	963e                	add	a2,a2,a5
     c82:	87482e03          	lw	t3,-1932(a6)
     c86:	8748a883          	lw	a7,-1932(a7)
     c8a:	874b2803          	lw	a6,-1932(s6)
     c8e:	87462603          	lw	a2,-1932(a2)
     c92:	008add13          	srli	s10,s5,0x8
     c96:	008a5c13          	srli	s8,s4,0x8
     c9a:	0089d693          	srli	a3,s3,0x8
     c9e:	00895b13          	srli	s6,s2,0x8
     ca2:	0ae2                	slli	s5,s5,0x18
     ca4:	0962                	slli	s2,s2,0x18
     ca6:	0a62                	slli	s4,s4,0x18
     ca8:	09e2                	slli	s3,s3,0x18
     caa:	015d6ab3          	or	s5,s10,s5
     cae:	014c6a33          	or	s4,s8,s4
     cb2:	008f1d13          	slli	s10,t5,0x8
     cb6:	00849c13          	slli	s8,s1,0x8
     cba:	0136e9b3          	or	s3,a3,s3
     cbe:	012b6b33          	or	s6,s6,s2
     cc2:	019eccb3          	xor	s9,t4,s9
     cc6:	005342b3          	xor	t0,t1,t0
     cca:	017fcbb3          	xor	s7,t6,s7
     cce:	00839693          	slli	a3,t2,0x8
     cd2:	01b44433          	xor	s0,s0,s11
     cd6:	0183d393          	srli	t2,t2,0x18
     cda:	00851913          	slli	s2,a0,0x8
     cde:	018f5f13          	srli	t5,t5,0x18
     ce2:	8161                	srli	a0,a0,0x18
     ce4:	80e1                	srli	s1,s1,0x18
     ce6:	013bcfb3          	xor	t6,s7,s3
     cea:	015cceb3          	xor	t4,s9,s5
     cee:	01ed6f33          	or	t5,s10,t5
     cf2:	010e1a93          	slli	s5,t3,0x10
     cf6:	0142c333          	xor	t1,t0,s4
     cfa:	009c64b3          	or	s1,s8,s1
     cfe:	01081993          	slli	s3,a6,0x10
     d02:	00a96933          	or	s2,s2,a0
     d06:	01089a13          	slli	s4,a7,0x10
     d0a:	01061513          	slli	a0,a2,0x10
     d0e:	0108d293          	srli	t0,a7,0x10
     d12:	0076e6b3          	or	a3,a3,t2
     d16:	01644433          	xor	s0,s0,s6
     d1a:	010e5e13          	srli	t3,t3,0x10
     d1e:	01085813          	srli	a6,a6,0x10
     d22:	8241                	srli	a2,a2,0x10
     d24:	01caee33          	or	t3,s5,t3
     d28:	00934333          	xor	t1,t1,s1
     d2c:	005a68b3          	or	a7,s4,t0
     d30:	0109e833          	or	a6,s3,a6
     d34:	01244433          	xor	s0,s0,s2
     d38:	01eeceb3          	xor	t4,t4,t5
     d3c:	00dfc6b3          	xor	a3,t6,a3
     d40:	8e49                	or	a2,a2,a0
     d42:	01ceceb3          	xor	t4,t4,t3
     d46:	0106c6b3          	xor	a3,a3,a6
     d4a:	011348b3          	xor	a7,t1,a7
     d4e:	8e21                	xor	a2,a2,s0
     d50:	018ed313          	srli	t1,t4,0x18
     d54:	0ffef993          	andi	s3,t4,255
     d58:	01865a93          	srli	s5,a2,0x18
     d5c:	0068da13          	srli	s4,a7,0x6
     d60:	00e6d293          	srli	t0,a3,0xe
     d64:	0ff8f913          	andi	s2,a7,255
     d68:	0066de13          	srli	t3,a3,0x6
     d6c:	00e65f93          	srli	t6,a2,0xe
     d70:	0ff6f493          	andi	s1,a3,255
     d74:	0188d813          	srli	a6,a7,0x18
     d78:	0186d513          	srli	a0,a3,0x18
     d7c:	006ed393          	srli	t2,t4,0x6
     d80:	00231693          	slli	a3,t1,0x2
     d84:	098a                	slli	s3,s3,0x2
     d86:	00665313          	srli	t1,a2,0x6
     d8a:	0a8a                	slli	s5,s5,0x2
     d8c:	0ff67613          	andi	a2,a2,255
     d90:	3fca7a13          	andi	s4,s4,1020
     d94:	3fc2f293          	andi	t0,t0,1020
     d98:	090a                	slli	s2,s2,0x2
     d9a:	3fce7e13          	andi	t3,t3,1020
     d9e:	3fcfff93          	andi	t6,t6,1020
     da2:	048a                	slli	s1,s1,0x2
     da4:	080a                	slli	a6,a6,0x2
     da6:	050a                	slli	a0,a0,0x2
     da8:	99be                	add	s3,s3,a5
     daa:	9abe                	add	s5,s5,a5
     dac:	9a3e                	add	s4,s4,a5
     dae:	993e                	add	s2,s2,a5
     db0:	94be                	add	s1,s1,a5
     db2:	92be                	add	t0,t0,a5
     db4:	96be                	add	a3,a3,a5
     db6:	9e3e                	add	t3,t3,a5
     db8:	9fbe                	add	t6,t6,a5
     dba:	983e                	add	a6,a6,a5
     dbc:	00eedf13          	srli	t5,t4,0xe
     dc0:	00261413          	slli	s0,a2,0x2
     dc4:	953e                	add	a0,a0,a5
     dc6:	3fc37313          	andi	t1,t1,1020
     dca:	3fc3f393          	andi	t2,t2,1020
     dce:	00e8d893          	srli	a7,a7,0xe
     dd2:	874aa603          	lw	a2,-1932(s5)
     dd6:	874a2e83          	lw	t4,-1932(s4)
     dda:	8749ac03          	lw	s8,-1932(s3)
     dde:	87492b83          	lw	s7,-1932(s2)
     de2:	8744ab03          	lw	s6,-1932(s1)
     de6:	8742a283          	lw	t0,-1932(t0)
     dea:	8746a683          	lw	a3,-1932(a3)
     dee:	874e2e03          	lw	t3,-1932(t3)
     df2:	874faf83          	lw	t6,-1932(t6)
     df6:	01072983          	lw	s3,16(a4)
     dfa:	01472903          	lw	s2,20(a4)
     dfe:	4f04                	lw	s1,24(a4)
     e00:	943e                	add	s0,s0,a5
     e02:	87482803          	lw	a6,-1932(a6)
     e06:	933e                	add	t1,t1,a5
     e08:	87452503          	lw	a0,-1932(a0)
     e0c:	93be                	add	t2,t2,a5
     e0e:	3fcf7f13          	andi	t5,t5,1020
     e12:	3fc8f893          	andi	a7,a7,1020
     e16:	87442a03          	lw	s4,-1932(s0)
     e1a:	87432303          	lw	t1,-1932(t1)
     e1e:	8743a383          	lw	t2,-1932(t2)
     e22:	4f40                	lw	s0,28(a4)
     e24:	9f3e                	add	t5,t5,a5
     e26:	98be                	add	a7,a7,a5
     e28:	874f2f03          	lw	t5,-1932(t5)
     e2c:	8748a883          	lw	a7,-1932(a7)
     e30:	00865d13          	srli	s10,a2,0x8
     e34:	0086dc93          	srli	s9,a3,0x8
     e38:	00885a93          	srli	s5,a6,0x8
     e3c:	00855d93          	srli	s11,a0,0x8
     e40:	0662                	slli	a2,a2,0x18
     e42:	06e2                	slli	a3,a3,0x18
     e44:	0862                	slli	a6,a6,0x18
     e46:	0562                	slli	a0,a0,0x18
     e48:	00cd6633          	or	a2,s10,a2
     e4c:	00dce6b3          	or	a3,s9,a3
     e50:	009b44b3          	xor	s1,s6,s1
     e54:	00831c93          	slli	s9,t1,0x8
     e58:	008a4433          	xor	s0,s4,s0
     e5c:	013c49b3          	xor	s3,s8,s3
     e60:	012bc933          	xor	s2,s7,s2
     e64:	008e9c13          	slli	s8,t4,0x8
     e68:	008e1b93          	slli	s7,t3,0x8
     e6c:	010ae833          	or	a6,s5,a6
     e70:	00ade533          	or	a0,s11,a0
     e74:	00839b13          	slli	s6,t2,0x8
     e78:	018ede93          	srli	t4,t4,0x18
     e7c:	0183d393          	srli	t2,t2,0x18
     e80:	018e5e13          	srli	t3,t3,0x18
     e84:	01835313          	srli	t1,t1,0x18
     e88:	00c9c9b3          	xor	s3,s3,a2
     e8c:	01029a93          	slli	s5,t0,0x10
     e90:	00d94933          	xor	s2,s2,a3
     e94:	010f9613          	slli	a2,t6,0x10
     e98:	006ce333          	or	t1,s9,t1
     e9c:	010f1693          	slli	a3,t5,0x10
     ea0:	007b6b33          	or	s6,s6,t2
     ea4:	01dc6eb3          	or	t4,s8,t4
     ea8:	01089393          	slli	t2,a7,0x10
     eac:	01cbee33          	or	t3,s7,t3
     eb0:	0104c833          	xor	a6,s1,a6
     eb4:	8d21                	xor	a0,a0,s0
     eb6:	0102d293          	srli	t0,t0,0x10
     eba:	010fdf93          	srli	t6,t6,0x10
     ebe:	010f5f13          	srli	t5,t5,0x10
     ec2:	0108d893          	srli	a7,a7,0x10
     ec6:	01d9ceb3          	xor	t4,s3,t4
     eca:	01f66fb3          	or	t6,a2,t6
     ece:	01e6ef33          	or	t5,a3,t5
     ed2:	01654533          	xor	a0,a0,s6
     ed6:	005ae2b3          	or	t0,s5,t0
     eda:	01c94e33          	xor	t3,s2,t3
     ede:	00684833          	xor	a6,a6,t1
     ee2:	0113e8b3          	or	a7,t2,a7
     ee6:	01fe4933          	xor	s2,t3,t6
     eea:	005ec2b3          	xor	t0,t4,t0
     eee:	01e84833          	xor	a6,a6,t5
     ef2:	011548b3          	xor	a7,a0,a7
     ef6:	0188df13          	srli	t5,a7,0x18
     efa:	0182df93          	srli	t6,t0,0x18
     efe:	01895413          	srli	s0,s2,0x18
     f02:	01885393          	srli	t2,a6,0x18
     f06:	0ff87693          	andi	a3,a6,255
     f0a:	0062d613          	srli	a2,t0,0x6
     f0e:	0ff2fb93          	andi	s7,t0,255
     f12:	00695b13          	srli	s6,s2,0x6
     f16:	0ff97a93          	andi	s5,s2,255
     f1a:	0f8a                	slli	t6,t6,0x2
     f1c:	00685e93          	srli	t4,a6,0x6
     f20:	0068de13          	srli	t3,a7,0x6
     f24:	0ff8f993          	andi	s3,a7,255
     f28:	0f0a                	slli	t5,t5,0x2
     f2a:	040a                	slli	s0,s0,0x2
     f2c:	038a                	slli	t2,t2,0x2
     f2e:	01f784b3          	add	s1,a5,t6
     f32:	9f3e                	add	t5,t5,a5
     f34:	943e                	add	s0,s0,a5
     f36:	93be                	add	t2,t2,a5
     f38:	0b8a                	slli	s7,s7,0x2
     f3a:	3fcb7b13          	andi	s6,s6,1020
     f3e:	00e85313          	srli	t1,a6,0xe
     f42:	00e8d513          	srli	a0,a7,0xe
     f46:	00269f93          	slli	t6,a3,0x2
     f4a:	00299893          	slli	a7,s3,0x2
     f4e:	00e2d693          	srli	a3,t0,0xe
     f52:	3fc67813          	andi	a6,a2,1020
     f56:	0a8a                	slli	s5,s5,0x2
     f58:	00e95613          	srli	a2,s2,0xe
     f5c:	3fcefe93          	andi	t4,t4,1020
     f60:	3fce7e13          	andi	t3,t3,1020
     f64:	874f2a03          	lw	s4,-1932(t5)
     f68:	8744a983          	lw	s3,-1932(s1)
     f6c:	87442903          	lw	s2,-1932(s0)
     f70:	8743a483          	lw	s1,-1932(t2)
     f74:	016782b3          	add	t0,a5,s6
     f78:	01778f33          	add	t5,a5,s7
     f7c:	9abe                	add	s5,s5,a5
     f7e:	9ebe                	add	t4,t4,a5
     f80:	9e3e                	add	t3,t3,a5
     f82:	9fbe                	add	t6,t6,a5
     f84:	98be                	add	a7,a7,a5
     f86:	983e                	add	a6,a6,a5
     f88:	3fc37313          	andi	t1,t1,1020
     f8c:	3fc57513          	andi	a0,a0,1020
     f90:	3fc6f693          	andi	a3,a3,1020
     f94:	3fc67613          	andi	a2,a2,1020
     f98:	8742a403          	lw	s0,-1932(t0)
     f9c:	874ea383          	lw	t2,-1932(t4)
     fa0:	874e2283          	lw	t0,-1932(t3)
     fa4:	02c72d83          	lw	s11,44(a4)
     fa8:	874aae03          	lw	t3,-1932(s5)
     fac:	87482803          	lw	a6,-1932(a6)
     fb0:	874f2f03          	lw	t5,-1932(t5)
     fb4:	02072c83          	lw	s9,32(a4)
     fb8:	02472b83          	lw	s7,36(a4)
     fbc:	874faf83          	lw	t6,-1932(t6)
     fc0:	02872b03          	lw	s6,40(a4)
     fc4:	933e                	add	t1,t1,a5
     fc6:	96be                	add	a3,a3,a5
     fc8:	8748a883          	lw	a7,-1932(a7)
     fcc:	953e                	add	a0,a0,a5
     fce:	963e                	add	a2,a2,a5
     fd0:	87432e83          	lw	t4,-1932(t1)
     fd4:	87452503          	lw	a0,-1932(a0)
     fd8:	8746a303          	lw	t1,-1932(a3)
     fdc:	87462603          	lw	a2,-1932(a2)
     fe0:	008a5d13          	srli	s10,s4,0x8
     fe4:	0089dc13          	srli	s8,s3,0x8
     fe8:	00895693          	srli	a3,s2,0x8
     fec:	0084da93          	srli	s5,s1,0x8
     ff0:	0a62                	slli	s4,s4,0x18
     ff2:	04e2                	slli	s1,s1,0x18
     ff4:	09e2                	slli	s3,s3,0x18
     ff6:	0962                	slli	s2,s2,0x18
     ff8:	014d6a33          	or	s4,s10,s4
     ffc:	013c69b3          	or	s3,s8,s3
    1000:	00841d13          	slli	s10,s0,0x8
    1004:	00839c13          	slli	s8,t2,0x8
    1008:	0126e933          	or	s2,a3,s2
    100c:	009aeab3          	or	s5,s5,s1
    1010:	019f4cb3          	xor	s9,t5,s9
    1014:	017e4bb3          	xor	s7,t3,s7
    1018:	016fcb33          	xor	s6,t6,s6
    101c:	00829693          	slli	a3,t0,0x8
    1020:	01b8c8b3          	xor	a7,a7,s11
    1024:	0182d293          	srli	t0,t0,0x18
    1028:	00881493          	slli	s1,a6,0x8
    102c:	8061                	srli	s0,s0,0x18
    102e:	01885813          	srli	a6,a6,0x18
    1032:	0183d393          	srli	t2,t2,0x18
    1036:	012b4fb3          	xor	t6,s6,s2
    103a:	014ccf33          	xor	t5,s9,s4
    103e:	008d6433          	or	s0,s10,s0
    1042:	010e9a13          	slli	s4,t4,0x10
    1046:	013bce33          	xor	t3,s7,s3
    104a:	007c63b3          	or	t2,s8,t2
    104e:	01051993          	slli	s3,a0,0x10
    1052:	01031913          	slli	s2,t1,0x10
    1056:	0104e4b3          	or	s1,s1,a6
    105a:	0056e6b3          	or	a3,a3,t0
    105e:	01061813          	slli	a6,a2,0x10
    1062:	0158c8b3          	xor	a7,a7,s5
    1066:	010ede93          	srli	t4,t4,0x10
    106a:	8141                	srli	a0,a0,0x10
    106c:	01035313          	srli	t1,t1,0x10
    1070:	8241                	srli	a2,a2,0x10
    1072:	008f4f33          	xor	t5,t5,s0
    1076:	01da6eb3          	or	t4,s4,t4
    107a:	007e4e33          	xor	t3,t3,t2
    107e:	00696333          	or	t1,s2,t1
    1082:	0098c8b3          	xor	a7,a7,s1
    1086:	00a9e533          	or	a0,s3,a0
    108a:	00dfc6b3          	xor	a3,t6,a3
    108e:	00c86633          	or	a2,a6,a2
    1092:	01df43b3          	xor	t2,t5,t4
    1096:	00c8c633          	xor	a2,a7,a2
    109a:	00ae4533          	xor	a0,t3,a0
    109e:	0066c6b3          	xor	a3,a3,t1
    10a2:	0ff3f293          	andi	t0,t2,255
    10a6:	01865f93          	srli	t6,a2,0x18
    10aa:	00655f13          	srli	t5,a0,0x6
    10ae:	00e6de93          	srli	t4,a3,0xe
    10b2:	0183de13          	srli	t3,t2,0x18
    10b6:	01855913          	srli	s2,a0,0x18
    10ba:	0186d493          	srli	s1,a3,0x18
    10be:	0ff57893          	andi	a7,a0,255
    10c2:	028a                	slli	t0,t0,0x2
    10c4:	0e0a                	slli	t3,t3,0x2
    10c6:	0066d413          	srli	s0,a3,0x6
    10ca:	0ff67a93          	andi	s5,a2,255
    10ce:	0063d813          	srli	a6,t2,0x6
    10d2:	0f8a                	slli	t6,t6,0x2
    10d4:	3fcf7f13          	andi	t5,t5,1020
    10d8:	3fcefe93          	andi	t4,t4,1020
    10dc:	090a                	slli	s2,s2,0x2
    10de:	048a                	slli	s1,s1,0x2
    10e0:	00578a33          	add	s4,a5,t0
    10e4:	01c789b3          	add	s3,a5,t3
    10e8:	9fbe                	add	t6,t6,a5
    10ea:	9f3e                	add	t5,t5,a5
    10ec:	993e                	add	s2,s2,a5
    10ee:	94be                	add	s1,s1,a5
    10f0:	00665313          	srli	t1,a2,0x6
    10f4:	9ebe                	add	t4,t4,a5
    10f6:	00289293          	slli	t0,a7,0x2
    10fa:	0ff6f693          	andi	a3,a3,255
    10fe:	00e65893          	srli	a7,a2,0xe
    1102:	3fc47413          	andi	s0,s0,1020
    1106:	002a9613          	slli	a2,s5,0x2
    110a:	3fc87813          	andi	a6,a6,1020
    110e:	8139                	srli	a0,a0,0xe
    1110:	874faa83          	lw	s5,-1932(t6)
    1114:	03072c83          	lw	s9,48(a4)
    1118:	00e3de13          	srli	t3,t2,0xe
    111c:	92be                	add	t0,t0,a5
    111e:	874f2383          	lw	t2,-1932(t5)
    1122:	943e                	add	s0,s0,a5
    1124:	874a2f03          	lw	t5,-1932(s4)
    1128:	068a                	slli	a3,a3,0x2
    112a:	874eae83          	lw	t4,-1932(t4)
    112e:	963e                	add	a2,a2,a5
    1130:	8749aa03          	lw	s4,-1932(s3)
    1134:	983e                	add	a6,a6,a5
    1136:	87492983          	lw	s3,-1932(s2)
    113a:	3fc37313          	andi	t1,t1,1020
    113e:	8744a903          	lw	s2,-1932(s1)
    1142:	3fc8f893          	andi	a7,a7,1020
    1146:	3fc57513          	andi	a0,a0,1020
    114a:	87442483          	lw	s1,-1932(s0)
    114e:	03c72d83          	lw	s11,60(a4)
    1152:	87482803          	lw	a6,-1932(a6)
    1156:	00d78fb3          	add	t6,a5,a3
    115a:	933e                	add	t1,t1,a5
    115c:	87462603          	lw	a2,-1932(a2)
    1160:	3fce7693          	andi	a3,t3,1020
    1164:	98be                	add	a7,a7,a5
    1166:	8742ae03          	lw	t3,-1932(t0)
    116a:	953e                	add	a0,a0,a5
    116c:	03472283          	lw	t0,52(a4)
    1170:	87432403          	lw	s0,-1932(t1)
    1174:	8748a883          	lw	a7,-1932(a7)
    1178:	874faf83          	lw	t6,-1932(t6)
    117c:	03872b83          	lw	s7,56(a4)
    1180:	87452503          	lw	a0,-1932(a0)
    1184:	96be                	add	a3,a3,a5
    1186:	8746a303          	lw	t1,-1932(a3)
    118a:	008a5c13          	srli	s8,s4,0x8
    118e:	00895b13          	srli	s6,s2,0x8
    1192:	0a62                	slli	s4,s4,0x18
    1194:	0962                	slli	s2,s2,0x18
    1196:	0089d693          	srli	a3,s3,0x8
    119a:	014c6a33          	or	s4,s8,s4
    119e:	012b6b33          	or	s6,s6,s2
    11a2:	00849c13          	slli	s8,s1,0x8
    11a6:	005e42b3          	xor	t0,t3,t0
    11aa:	01b64633          	xor	a2,a2,s11
    11ae:	00881913          	slli	s2,a6,0x8
    11b2:	09e2                	slli	s3,s3,0x18
    11b4:	01885813          	srli	a6,a6,0x18
    11b8:	80e1                	srli	s1,s1,0x18
    11ba:	0136e9b3          	or	s3,a3,s3
    11be:	0142ce33          	xor	t3,t0,s4
    11c2:	009c64b3          	or	s1,s8,s1
    11c6:	01096933          	or	s2,s2,a6
    11ca:	017fcbb3          	xor	s7,t6,s7
    11ce:	01051813          	slli	a6,a0,0x10
    11d2:	00841693          	slli	a3,s0,0x8
    11d6:	01089a13          	slli	s4,a7,0x10
    11da:	8061                	srli	s0,s0,0x18
    11dc:	0108d293          	srli	t0,a7,0x10
    11e0:	01664633          	xor	a2,a2,s6
    11e4:	8141                	srli	a0,a0,0x10
    11e6:	013bcfb3          	xor	t6,s7,s3
    11ea:	008add13          	srli	s10,s5,0x8
    11ee:	01031993          	slli	s3,t1,0x10
    11f2:	009e4e33          	xor	t3,t3,s1
    11f6:	005a68b3          	or	a7,s4,t0
    11fa:	00a86533          	or	a0,a6,a0
    11fe:	8ec1                	or	a3,a3,s0
    1200:	01264633          	xor	a2,a2,s2
    1204:	0ae2                	slli	s5,s5,0x18
    1206:	01035313          	srli	t1,t1,0x10
    120a:	011e48b3          	xor	a7,t3,a7
    120e:	8e29                	xor	a2,a2,a0
    1210:	015d6ab3          	or	s5,s10,s5
    1214:	0069e333          	or	t1,s3,t1
    1218:	00839d13          	slli	s10,t2,0x8
    121c:	019f4cb3          	xor	s9,t5,s9
    1220:	00dfc6b3          	xor	a3,t6,a3
    1224:	0183d393          	srli	t2,t2,0x18
    1228:	0066c6b3          	xor	a3,a3,t1
    122c:	015ccf33          	xor	t5,s9,s5
    1230:	007d63b3          	or	t2,s10,t2
    1234:	010e9a93          	slli	s5,t4,0x10
    1238:	01865493          	srli	s1,a2,0x18
    123c:	0188d813          	srli	a6,a7,0x18
    1240:	010ede93          	srli	t4,t4,0x10
    1244:	007f4f33          	xor	t5,t5,t2
    1248:	01daeeb3          	or	t4,s5,t4
    124c:	0066de13          	srli	t3,a3,0x6
    1250:	048a                	slli	s1,s1,0x2
    1252:	080a                	slli	a6,a6,0x2
    1254:	01df4eb3          	xor	t4,t5,t4
    1258:	94be                	add	s1,s1,a5
    125a:	983e                	add	a6,a6,a5
    125c:	3fce7e13          	andi	t3,t3,1020
    1260:	8744a483          	lw	s1,-1932(s1)
    1264:	87482803          	lw	a6,-1932(a6)
    1268:	0ffef993          	andi	s3,t4,255
    126c:	00e6d293          	srli	t0,a3,0xe
    1270:	0ff8f913          	andi	s2,a7,255
    1274:	018eda13          	srli	s4,t4,0x18
    1278:	00e65f93          	srli	t6,a2,0xe
    127c:	0ff6f413          	andi	s0,a3,255
    1280:	00665313          	srli	t1,a2,0x6
    1284:	9e3e                	add	t3,t3,a5
    1286:	0ff67613          	andi	a2,a2,255
    128a:	82e1                	srli	a3,a3,0x18
    128c:	874e2e03          	lw	t3,-1932(t3)
    1290:	0068da93          	srli	s5,a7,0x6
    1294:	00eedf13          	srli	t5,t4,0xe
    1298:	068a                	slli	a3,a3,0x2
    129a:	006ede93          	srli	t4,t4,0x6
    129e:	098a                	slli	s3,s3,0x2
    12a0:	090a                	slli	s2,s2,0x2
    12a2:	0a0a                	slli	s4,s4,0x2
    12a4:	040a                	slli	s0,s0,0x2
    12a6:	060a                	slli	a2,a2,0x2
    12a8:	00e8d893          	srli	a7,a7,0xe
    12ac:	99be                	add	s3,s3,a5
    12ae:	993e                	add	s2,s2,a5
    12b0:	9a3e                	add	s4,s4,a5
    12b2:	943e                	add	s0,s0,a5
    12b4:	963e                	add	a2,a2,a5
    12b6:	00d78533          	add	a0,a5,a3
    12ba:	3fcef393          	andi	t2,t4,1020
    12be:	3fcafa93          	andi	s5,s5,1020
    12c2:	3fc2f293          	andi	t0,t0,1020
    12c6:	3fcfff93          	andi	t6,t6,1020
    12ca:	3fc37313          	andi	t1,t1,1020
    12ce:	3fcf7f13          	andi	t5,t5,1020
    12d2:	3fc8f893          	andi	a7,a7,1020
    12d6:	874a2683          	lw	a3,-1932(s4)
    12da:	87452503          	lw	a0,-1932(a0)
    12de:	8749aa03          	lw	s4,-1932(s3)
    12e2:	9abe                	add	s5,s5,a5
    12e4:	87492983          	lw	s3,-1932(s2)
    12e8:	0084db13          	srli	s6,s1,0x8
    12ec:	87442903          	lw	s2,-1932(s0)
    12f0:	92be                	add	t0,t0,a5
    12f2:	87462403          	lw	s0,-1932(a2)
    12f6:	9fbe                	add	t6,t6,a5
    12f8:	933e                	add	t1,t1,a5
    12fa:	9f3e                	add	t5,t5,a5
    12fc:	93be                	add	t2,t2,a5
    12fe:	98be                	add	a7,a7,a5
    1300:	01849613          	slli	a2,s1,0x18
    1304:	00885493          	srli	s1,a6,0x8
    1308:	0862                	slli	a6,a6,0x18
    130a:	874aae83          	lw	t4,-1932(s5)
    130e:	8742a283          	lw	t0,-1932(t0)
    1312:	874faf83          	lw	t6,-1932(t6)
    1316:	87432303          	lw	t1,-1932(t1)
    131a:	874f2f03          	lw	t5,-1932(t5)
    131e:	8743a383          	lw	t2,-1932(t2)
    1322:	8748a883          	lw	a7,-1932(a7)
    1326:	00cb6633          	or	a2,s6,a2
    132a:	04072c03          	lw	s8,64(a4)
    132e:	008e1c93          	slli	s9,t3,0x8
    1332:	04472b03          	lw	s6,68(a4)
    1336:	018e5d13          	srli	s10,t3,0x18
    133a:	0104e833          	or	a6,s1,a6
    133e:	04872e03          	lw	t3,72(a4)
    1342:	4764                	lw	s1,76(a4)
    1344:	0086da93          	srli	s5,a3,0x8
    1348:	00855b93          	srli	s7,a0,0x8
    134c:	06e2                	slli	a3,a3,0x18
    134e:	0562                	slli	a0,a0,0x18
    1350:	00dae6b3          	or	a3,s5,a3
    1354:	01c94933          	xor	s2,s2,t3
    1358:	00831d93          	slli	s11,t1,0x8
    135c:	8c25                	xor	s0,s0,s1
    135e:	00839a93          	slli	s5,t2,0x8
    1362:	018a4a33          	xor	s4,s4,s8
    1366:	0169c9b3          	xor	s3,s3,s6
    136a:	008e9c13          	slli	s8,t4,0x8
    136e:	00abe533          	or	a0,s7,a0
    1372:	018ede93          	srli	t4,t4,0x18
    1376:	01835313          	srli	t1,t1,0x18
    137a:	0183d393          	srli	t2,t2,0x18
    137e:	00ca4a33          	xor	s4,s4,a2
    1382:	01029493          	slli	s1,t0,0x10
    1386:	00d9c9b3          	xor	s3,s3,a3
    138a:	01acee33          	or	t3,s9,s10
    138e:	010f9613          	slli	a2,t6,0x10
    1392:	006de333          	or	t1,s11,t1
    1396:	010f1693          	slli	a3,t5,0x10
    139a:	007ae3b3          	or	t2,s5,t2
    139e:	01dc6eb3          	or	t4,s8,t4
    13a2:	01094833          	xor	a6,s2,a6
    13a6:	01089c13          	slli	s8,a7,0x10
    13aa:	8d21                	xor	a0,a0,s0
    13ac:	0102d293          	srli	t0,t0,0x10
    13b0:	010fdf93          	srli	t6,t6,0x10
    13b4:	010f5f13          	srli	t5,t5,0x10
    13b8:	0108d893          	srli	a7,a7,0x10
    13bc:	01da4eb3          	xor	t4,s4,t4
    13c0:	01c9ce33          	xor	t3,s3,t3
    13c4:	00684833          	xor	a6,a6,t1
    13c8:	00754533          	xor	a0,a0,t2
    13cc:	0054e2b3          	or	t0,s1,t0
    13d0:	01f66fb3          	or	t6,a2,t6
    13d4:	01e6ef33          	or	t5,a3,t5
    13d8:	011c68b3          	or	a7,s8,a7
    13dc:	005ec2b3          	xor	t0,t4,t0
    13e0:	01fe4fb3          	xor	t6,t3,t6
    13e4:	01e84f33          	xor	t5,a6,t5
    13e8:	011548b3          	xor	a7,a0,a7
    13ec:	018f5e93          	srli	t4,t5,0x18
    13f0:	0188dc93          	srli	s9,a7,0x18
    13f4:	0182dc13          	srli	s8,t0,0x18
    13f8:	018fd393          	srli	t2,t6,0x18
    13fc:	0ff2fb13          	andi	s6,t0,255
    1400:	006fd513          	srli	a0,t6,0x6
    1404:	0ffffb93          	andi	s7,t6,255
    1408:	006f5e13          	srli	t3,t5,0x6
    140c:	0fff7413          	andi	s0,t5,255
    1410:	0068d313          	srli	t1,a7,0x6
    1414:	0ff8fa93          	andi	s5,a7,255
    1418:	002e9613          	slli	a2,t4,0x2
    141c:	0062d813          	srli	a6,t0,0x6
    1420:	0c8a                	slli	s9,s9,0x2
    1422:	0c0a                	slli	s8,s8,0x2
    1424:	038a                	slli	t2,t2,0x2
    1426:	00c78eb3          	add	t4,a5,a2
    142a:	9cbe                	add	s9,s9,a5
    142c:	9c3e                	add	s8,s8,a5
    142e:	93be                	add	t2,t2,a5
    1430:	3fc57513          	andi	a0,a0,1020
    1434:	00ef5f13          	srli	t5,t5,0xe
    1438:	0b8a                	slli	s7,s7,0x2
    143a:	040a                	slli	s0,s0,0x2
    143c:	00e2d693          	srli	a3,t0,0xe
    1440:	00efd613          	srli	a2,t6,0xe
    1444:	0b0a                	slli	s6,s6,0x2
    1446:	3fce7e13          	andi	t3,t3,1020
    144a:	00e8d893          	srli	a7,a7,0xe
    144e:	3fc37313          	andi	t1,t1,1020
    1452:	0a8a                	slli	s5,s5,0x2
    1454:	3fc87813          	andi	a6,a6,1020
    1458:	874caa03          	lw	s4,-1932(s9)
    145c:	8743a903          	lw	s2,-1932(t2)
    1460:	874ea483          	lw	s1,-1932(t4)
    1464:	00a782b3          	add	t0,a5,a0
    1468:	874c2983          	lw	s3,-1932(s8)
    146c:	9b3e                	add	s6,s6,a5
    146e:	01778eb3          	add	t4,a5,s7
    1472:	9e3e                	add	t3,t3,a5
    1474:	00878fb3          	add	t6,a5,s0
    1478:	933e                	add	t1,t1,a5
    147a:	9abe                	add	s5,s5,a5
    147c:	3fcf7513          	andi	a0,t5,1020
    1480:	983e                	add	a6,a6,a5
    1482:	3fc8f893          	andi	a7,a7,1020
    1486:	3fc6f693          	andi	a3,a3,1020
    148a:	3fc67613          	andi	a2,a2,1020
    148e:	8742a403          	lw	s0,-1932(t0)
    1492:	874e2383          	lw	t2,-1932(t3)
    1496:	87432283          	lw	t0,-1932(t1)
    149a:	874b2f03          	lw	t5,-1932(s6)
    149e:	05c72d83          	lw	s11,92(a4)
    14a2:	87482803          	lw	a6,-1932(a6)
    14a6:	05072c83          	lw	s9,80(a4)
    14aa:	874eae83          	lw	t4,-1932(t4)
    14ae:	05472b83          	lw	s7,84(a4)
    14b2:	874faf83          	lw	t6,-1932(t6)
    14b6:	05872b03          	lw	s6,88(a4)
    14ba:	874aa303          	lw	t1,-1932(s5)
    14be:	98be                	add	a7,a7,a5
    14c0:	96be                	add	a3,a3,a5
    14c2:	953e                	add	a0,a0,a5
    14c4:	963e                	add	a2,a2,a5
    14c6:	8748ae03          	lw	t3,-1932(a7)
    14ca:	87452503          	lw	a0,-1932(a0)
    14ce:	8746a883          	lw	a7,-1932(a3)
    14d2:	87462603          	lw	a2,-1932(a2)
    14d6:	008a5d13          	srli	s10,s4,0x8
    14da:	0089dc13          	srli	s8,s3,0x8
    14de:	00895693          	srli	a3,s2,0x8
    14e2:	0084da93          	srli	s5,s1,0x8
    14e6:	0a62                	slli	s4,s4,0x18
    14e8:	04e2                	slli	s1,s1,0x18
    14ea:	09e2                	slli	s3,s3,0x18
    14ec:	0962                	slli	s2,s2,0x18
    14ee:	014d6a33          	or	s4,s10,s4
    14f2:	013c69b3          	or	s3,s8,s3
    14f6:	00841d13          	slli	s10,s0,0x8
    14fa:	00839c13          	slli	s8,t2,0x8
    14fe:	0126e933          	or	s2,a3,s2
    1502:	009aeab3          	or	s5,s5,s1
    1506:	019f4cb3          	xor	s9,t5,s9
    150a:	017ecbb3          	xor	s7,t4,s7
    150e:	016fcb33          	xor	s6,t6,s6
    1512:	00829693          	slli	a3,t0,0x8
    1516:	01b34333          	xor	t1,t1,s11
    151a:	0182d293          	srli	t0,t0,0x18
    151e:	00881493          	slli	s1,a6,0x8
    1522:	8061                	srli	s0,s0,0x18
    1524:	01885813          	srli	a6,a6,0x18
    1528:	0183d393          	srli	t2,t2,0x18
    152c:	012b4fb3          	xor	t6,s6,s2
    1530:	014ccf33          	xor	t5,s9,s4
    1534:	008d6433          	or	s0,s10,s0
    1538:	01051a13          	slli	s4,a0,0x10
    153c:	013bceb3          	xor	t4,s7,s3
    1540:	007c63b3          	or	t2,s8,t2
    1544:	010e1993          	slli	s3,t3,0x10
    1548:	01089913          	slli	s2,a7,0x10
    154c:	0104e4b3          	or	s1,s1,a6
    1550:	0056e6b3          	or	a3,a3,t0
    1554:	01061813          	slli	a6,a2,0x10
    1558:	01534333          	xor	t1,t1,s5
    155c:	8141                	srli	a0,a0,0x10
    155e:	010e5e13          	srli	t3,t3,0x10
    1562:	0108d893          	srli	a7,a7,0x10
    1566:	8241                	srli	a2,a2,0x10
    1568:	008f4f33          	xor	t5,t5,s0
    156c:	007eceb3          	xor	t4,t4,t2
    1570:	011968b3          	or	a7,s2,a7
    1574:	00934333          	xor	t1,t1,s1
    1578:	00aa6533          	or	a0,s4,a0
    157c:	01c9ee33          	or	t3,s3,t3
    1580:	00dfc6b3          	xor	a3,t6,a3
    1584:	00c86633          	or	a2,a6,a2
    1588:	01cece33          	xor	t3,t4,t3
    158c:	0116c6b3          	xor	a3,a3,a7
    1590:	00c34633          	xor	a2,t1,a2
    1594:	00af4533          	xor	a0,t5,a0
    1598:	0ff57f13          	andi	t5,a0,255
    159c:	01865993          	srli	s3,a2,0x18
    15a0:	006e5393          	srli	t2,t3,0x6
    15a4:	00e6d813          	srli	a6,a3,0xe
    15a8:	0ffe7493          	andi	s1,t3,255
    15ac:	01855913          	srli	s2,a0,0x18
    15b0:	0066d293          	srli	t0,a3,0x6
    15b4:	018e5413          	srli	s0,t3,0x18
    15b8:	0186da93          	srli	s5,a3,0x18
    15bc:	00665f93          	srli	t6,a2,0x6
    15c0:	0ff6f693          	andi	a3,a3,255
    15c4:	0ff67e93          	andi	t4,a2,255
    15c8:	0a8a                	slli	s5,s5,0x2
    15ca:	00655893          	srli	a7,a0,0x6
    15ce:	0f0a                	slli	t5,t5,0x2
    15d0:	098a                	slli	s3,s3,0x2
    15d2:	3fc3f393          	andi	t2,t2,1020
    15d6:	3fc87813          	andi	a6,a6,1020
    15da:	048a                	slli	s1,s1,0x2
    15dc:	090a                	slli	s2,s2,0x2
    15de:	3fc2f293          	andi	t0,t0,1020
    15e2:	040a                	slli	s0,s0,0x2
    15e4:	94be                	add	s1,s1,a5
    15e6:	943e                	add	s0,s0,a5
    15e8:	9f3e                	add	t5,t5,a5
    15ea:	99be                	add	s3,s3,a5
    15ec:	93be                	add	t2,t2,a5
    15ee:	983e                	add	a6,a6,a5
    15f0:	993e                	add	s2,s2,a5
    15f2:	92be                	add	t0,t0,a5
    15f4:	00e65313          	srli	t1,a2,0xe
    15f8:	00269a13          	slli	s4,a3,0x2
    15fc:	01578633          	add	a2,a5,s5
    1600:	00ee5693          	srli	a3,t3,0xe
    1604:	3fcfff93          	andi	t6,t6,1020
    1608:	8139                	srli	a0,a0,0xe
    160a:	0e8a                	slli	t4,t4,0x2
    160c:	3fc8f893          	andi	a7,a7,1020
    1610:	8744ae03          	lw	t3,-1932(s1)
    1614:	8749a983          	lw	s3,-1932(s3)
    1618:	8743a383          	lw	t2,-1932(t2)
    161c:	87482803          	lw	a6,-1932(a6)
    1620:	87492903          	lw	s2,-1932(s2)
    1624:	874f2f03          	lw	t5,-1932(t5)
    1628:	06072c83          	lw	s9,96(a4)
    162c:	06472b83          	lw	s7,100(a4)
    1630:	9a3e                	add	s4,s4,a5
    1632:	8742a283          	lw	t0,-1932(t0)
    1636:	98be                	add	a7,a7,a5
    1638:	87442483          	lw	s1,-1932(s0)
    163c:	9fbe                	add	t6,t6,a5
    163e:	87462403          	lw	s0,-1932(a2)
    1642:	9ebe                	add	t4,t4,a5
    1644:	3fc37313          	andi	t1,t1,1020
    1648:	3fc57513          	andi	a0,a0,1020
    164c:	3fc6f693          	andi	a3,a3,1020
    1650:	8748a603          	lw	a2,-1932(a7)
    1654:	06c72d83          	lw	s11,108(a4)
    1658:	874a2883          	lw	a7,-1932(s4)
    165c:	874faf83          	lw	t6,-1932(t6)
    1660:	06872a83          	lw	s5,104(a4)
    1664:	874eae83          	lw	t4,-1932(t4)
    1668:	933e                	add	t1,t1,a5
    166a:	953e                	add	a0,a0,a5
    166c:	96be                	add	a3,a3,a5
    166e:	87432303          	lw	t1,-1932(t1)
    1672:	87452503          	lw	a0,-1932(a0)
    1676:	8746a683          	lw	a3,-1932(a3)
    167a:	0089dd13          	srli	s10,s3,0x8
    167e:	00895c13          	srli	s8,s2,0x8
    1682:	0084db13          	srli	s6,s1,0x8
    1686:	00845a13          	srli	s4,s0,0x8
    168a:	09e2                	slli	s3,s3,0x18
    168c:	0462                	slli	s0,s0,0x18
    168e:	0962                	slli	s2,s2,0x18
    1690:	04e2                	slli	s1,s1,0x18
    1692:	013d69b3          	or	s3,s10,s3
    1696:	012c6933          	or	s2,s8,s2
    169a:	00839d13          	slli	s10,t2,0x8
    169e:	00829c13          	slli	s8,t0,0x8
    16a2:	009b64b3          	or	s1,s6,s1
    16a6:	008a6a33          	or	s4,s4,s0
    16aa:	008f9b13          	slli	s6,t6,0x8
    16ae:	019f4cb3          	xor	s9,t5,s9
    16b2:	017e4bb3          	xor	s7,t3,s7
    16b6:	0158cab3          	xor	s5,a7,s5
    16ba:	01beceb3          	xor	t4,t4,s11
    16be:	00861413          	slli	s0,a2,0x8
    16c2:	0183d393          	srli	t2,t2,0x18
    16c6:	8261                	srli	a2,a2,0x18
    16c8:	0182d293          	srli	t0,t0,0x18
    16cc:	018fdf93          	srli	t6,t6,0x18
    16d0:	013ccf33          	xor	t5,s9,s3
    16d4:	007d63b3          	or	t2,s10,t2
    16d8:	01081993          	slli	s3,a6,0x10
    16dc:	012bce33          	xor	t3,s7,s2
    16e0:	005c62b3          	or	t0,s8,t0
    16e4:	01031913          	slli	s2,t1,0x10
    16e8:	009ac8b3          	xor	a7,s5,s1
    16ec:	01fb6fb3          	or	t6,s6,t6
    16f0:	01051493          	slli	s1,a0,0x10
    16f4:	8c51                	or	s0,s0,a2
    16f6:	014eceb3          	xor	t4,t4,s4
    16fa:	01069613          	slli	a2,a3,0x10
    16fe:	01085813          	srli	a6,a6,0x10
    1702:	01035313          	srli	t1,t1,0x10
    1706:	8141                	srli	a0,a0,0x10
    1708:	82c1                	srli	a3,a3,0x10
    170a:	007f4f33          	xor	t5,t5,t2
    170e:	005e4e33          	xor	t3,t3,t0
    1712:	00696333          	or	t1,s2,t1
    1716:	01f8c8b3          	xor	a7,a7,t6
    171a:	008eceb3          	xor	t4,t4,s0
    171e:	0109e833          	or	a6,s3,a6
    1722:	8d45                	or	a0,a0,s1
    1724:	8ed1                	or	a3,a3,a2
    1726:	006e43b3          	xor	t2,t3,t1
    172a:	010f4833          	xor	a6,t5,a6
    172e:	00a8c533          	xor	a0,a7,a0
    1732:	00dec6b3          	xor	a3,t4,a3
    1736:	0183df13          	srli	t5,t2,0x18
    173a:	01855e13          	srli	t3,a0,0x18
    173e:	0186d293          	srli	t0,a3,0x18
    1742:	01885f93          	srli	t6,a6,0x18
    1746:	0ff87c13          	andi	s8,a6,255
    174a:	0063db93          	srli	s7,t2,0x6
    174e:	0ff3fb13          	andi	s6,t2,255
    1752:	00655313          	srli	t1,a0,0x6
    1756:	0ff57a93          	andi	s5,a0,255
    175a:	002f1493          	slli	s1,t5,0x2
    175e:	0066d893          	srli	a7,a3,0x6
    1762:	0ff6fa13          	andi	s4,a3,255
    1766:	002e1413          	slli	s0,t3,0x2
    176a:	00685613          	srli	a2,a6,0x6
    176e:	028a                	slli	t0,t0,0x2
    1770:	0f8a                	slli	t6,t6,0x2
    1772:	92be                	add	t0,t0,a5
    1774:	9fbe                	add	t6,t6,a5
    1776:	00978f33          	add	t5,a5,s1
    177a:	00878e33          	add	t3,a5,s0
    177e:	0c0a                	slli	s8,s8,0x2
    1780:	3fcbfb93          	andi	s7,s7,1020
    1784:	0b0a                	slli	s6,s6,0x2
    1786:	00e6de93          	srli	t4,a3,0xe
    178a:	8139                	srli	a0,a0,0xe
    178c:	00e3d693          	srli	a3,t2,0xe
    1790:	3fc37313          	andi	t1,t1,1020
    1794:	0a8a                	slli	s5,s5,0x2
    1796:	3fc8f893          	andi	a7,a7,1020
    179a:	00e85813          	srli	a6,a6,0xe
    179e:	0a0a                	slli	s4,s4,0x2
    17a0:	3fc67613          	andi	a2,a2,1020
    17a4:	8742a983          	lw	s3,-1932(t0)
    17a8:	874fa903          	lw	s2,-1932(t6)
    17ac:	874f2483          	lw	s1,-1932(t5)
    17b0:	874e2403          	lw	s0,-1932(t3)
    17b4:	01878fb3          	add	t6,a5,s8
    17b8:	01778e33          	add	t3,a5,s7
    17bc:	01678f33          	add	t5,a5,s6
    17c0:	933e                	add	t1,t1,a5
    17c2:	9abe                	add	s5,s5,a5
    17c4:	98be                	add	a7,a7,a5
    17c6:	9a3e                	add	s4,s4,a5
    17c8:	963e                	add	a2,a2,a5
    17ca:	3fc57513          	andi	a0,a0,1020
    17ce:	3fcefe93          	andi	t4,t4,1020
    17d2:	3fc87813          	andi	a6,a6,1020
    17d6:	3fc6f693          	andi	a3,a3,1020
    17da:	874e2383          	lw	t2,-1932(t3)
    17de:	87432283          	lw	t0,-1932(t1)
    17e2:	8748ae03          	lw	t3,-1932(a7)
    17e6:	07c72d83          	lw	s11,124(a4)
    17ea:	874aa883          	lw	a7,-1932(s5)
    17ee:	87462603          	lw	a2,-1932(a2)
    17f2:	874faf83          	lw	t6,-1932(t6)
    17f6:	07072c83          	lw	s9,112(a4)
    17fa:	874f2f03          	lw	t5,-1932(t5)
    17fe:	07472b83          	lw	s7,116(a4)
    1802:	07872a83          	lw	s5,120(a4)
    1806:	874a2303          	lw	t1,-1932(s4)
    180a:	953e                	add	a0,a0,a5
    180c:	9ebe                	add	t4,t4,a5
    180e:	983e                	add	a6,a6,a5
    1810:	96be                	add	a3,a3,a5
    1812:	87452503          	lw	a0,-1932(a0)
    1816:	874eae83          	lw	t4,-1932(t4)
    181a:	87482803          	lw	a6,-1932(a6)
    181e:	8746a683          	lw	a3,-1932(a3)
    1822:	0089dd13          	srli	s10,s3,0x8
    1826:	00895c13          	srli	s8,s2,0x8
    182a:	0084db13          	srli	s6,s1,0x8
    182e:	00845a13          	srli	s4,s0,0x8
    1832:	09e2                	slli	s3,s3,0x18
    1834:	0462                	slli	s0,s0,0x18
    1836:	0962                	slli	s2,s2,0x18
    1838:	04e2                	slli	s1,s1,0x18
    183a:	013d69b3          	or	s3,s10,s3
    183e:	012c6933          	or	s2,s8,s2
    1842:	00839d13          	slli	s10,t2,0x8
    1846:	00829c13          	slli	s8,t0,0x8
    184a:	009b64b3          	or	s1,s6,s1
    184e:	008a6a33          	or	s4,s4,s0
    1852:	008e1b13          	slli	s6,t3,0x8
    1856:	019fccb3          	xor	s9,t6,s9
    185a:	017f4bb3          	xor	s7,t5,s7
    185e:	0158cab3          	xor	s5,a7,s5
    1862:	01b34333          	xor	t1,t1,s11
    1866:	00861413          	slli	s0,a2,0x8
    186a:	0183d393          	srli	t2,t2,0x18
    186e:	8261                	srli	a2,a2,0x18
    1870:	0182d293          	srli	t0,t0,0x18
    1874:	018e5e13          	srli	t3,t3,0x18
    1878:	013ccfb3          	xor	t6,s9,s3
    187c:	007d63b3          	or	t2,s10,t2
    1880:	01051993          	slli	s3,a0,0x10
    1884:	012bcf33          	xor	t5,s7,s2
    1888:	005c62b3          	or	t0,s8,t0
    188c:	010e9913          	slli	s2,t4,0x10
    1890:	009ac8b3          	xor	a7,s5,s1
    1894:	01cb6e33          	or	t3,s6,t3
    1898:	01081493          	slli	s1,a6,0x10
    189c:	8c51                	or	s0,s0,a2
    189e:	01434333          	xor	t1,t1,s4
    18a2:	01069613          	slli	a2,a3,0x10
    18a6:	8141                	srli	a0,a0,0x10
    18a8:	010ede93          	srli	t4,t4,0x10
    18ac:	01085813          	srli	a6,a6,0x10
    18b0:	82c1                	srli	a3,a3,0x10
    18b2:	007fcfb3          	xor	t6,t6,t2
    18b6:	005f4f33          	xor	t5,t5,t0
    18ba:	01d96eb3          	or	t4,s2,t4
    18be:	01c8c8b3          	xor	a7,a7,t3
    18c2:	00834333          	xor	t1,t1,s0
    18c6:	00a9e533          	or	a0,s3,a0
    18ca:	0104e833          	or	a6,s1,a6
    18ce:	8ed1                	or	a3,a3,a2
    18d0:	01df43b3          	xor	t2,t5,t4
    18d4:	0108c833          	xor	a6,a7,a6
    18d8:	00afc533          	xor	a0,t6,a0
    18dc:	00d346b3          	xor	a3,t1,a3
    18e0:	0ff57293          	andi	t0,a0,255
    18e4:	0186df13          	srli	t5,a3,0x18
    18e8:	01855893          	srli	a7,a0,0x18
    18ec:	0183d493          	srli	s1,t2,0x18
    18f0:	01885f93          	srli	t6,a6,0x18
    18f4:	0ff87a93          	andi	s5,a6,255
    18f8:	0066d913          	srli	s2,a3,0x6
    18fc:	0063d413          	srli	s0,t2,0x6
    1900:	0ff3fa13          	andi	s4,t2,255
    1904:	00685e93          	srli	t4,a6,0x6
    1908:	0ff6f993          	andi	s3,a3,255
    190c:	00655613          	srli	a2,a0,0x6
    1910:	028a                	slli	t0,t0,0x2
    1912:	0f0a                	slli	t5,t5,0x2
    1914:	088a                	slli	a7,a7,0x2
    1916:	048a                	slli	s1,s1,0x2
    1918:	0f8a                	slli	t6,t6,0x2
    191a:	92be                	add	t0,t0,a5
    191c:	98be                	add	a7,a7,a5
    191e:	94be                	add	s1,s1,a5
    1920:	9fbe                	add	t6,t6,a5
    1922:	9f3e                	add	t5,t5,a5
    1924:	00e85e13          	srli	t3,a6,0xe
    1928:	00e6d313          	srli	t1,a3,0xe
    192c:	3fc97813          	andi	a6,s2,1020
    1930:	002a9693          	slli	a3,s5,0x2
    1934:	00e3d393          	srli	t2,t2,0xe
    1938:	3fc47413          	andi	s0,s0,1020
    193c:	0a0a                	slli	s4,s4,0x2
    193e:	3fcefe93          	andi	t4,t4,1020
    1942:	8139                	srli	a0,a0,0xe
    1944:	098a                	slli	s3,s3,0x2
    1946:	3fc67613          	andi	a2,a2,1020
    194a:	8742ad03          	lw	s10,-1932(t0)
    194e:	943e                	add	s0,s0,a5
    1950:	8748a283          	lw	t0,-1932(a7)
    1954:	874fa903          	lw	s2,-1932(t6)
    1958:	8744a883          	lw	a7,-1932(s1)
    195c:	874f2f03          	lw	t5,-1932(t5)
    1960:	9a3e                	add	s4,s4,a5
    1962:	9ebe                	add	t4,t4,a5
    1964:	96be                	add	a3,a3,a5
    1966:	983e                	add	a6,a6,a5
    1968:	99be                	add	s3,s3,a5
    196a:	963e                	add	a2,a2,a5
    196c:	3fc3ff93          	andi	t6,t2,1020
    1970:	3fce7e13          	andi	t3,t3,1020
    1974:	3fc37313          	andi	t1,t1,1020
    1978:	3fc57513          	andi	a0,a0,1020
    197c:	87442483          	lw	s1,-1932(s0)
    1980:	87482383          	lw	t2,-1932(a6)
    1984:	874ea403          	lw	s0,-1932(t4)
    1988:	08472803          	lw	a6,132(a4)
    198c:	87462e83          	lw	t4,-1932(a2)
    1990:	8746ac03          	lw	s8,-1932(a3)
    1994:	8749ab03          	lw	s6,-1932(s3)
    1998:	08072a83          	lw	s5,128(a4)
    199c:	874a2c83          	lw	s9,-1932(s4)
    19a0:	08872683          	lw	a3,136(a4)
    19a4:	08c72603          	lw	a2,140(a4)
    19a8:	9e3e                	add	t3,t3,a5
    19aa:	953e                	add	a0,a0,a5
    19ac:	933e                	add	t1,t1,a5
    19ae:	97fe                	add	a5,a5,t6
    19b0:	874e2a03          	lw	s4,-1932(t3)
    19b4:	87432303          	lw	t1,-1932(t1)
    19b8:	87452983          	lw	s3,-1932(a0)
    19bc:	8747a503          	lw	a0,-1932(a5)
    19c0:	008f5e13          	srli	t3,t5,0x8
    19c4:	0088db93          	srli	s7,a7,0x8
    19c8:	00895793          	srli	a5,s2,0x8
    19cc:	0082dd93          	srli	s11,t0,0x8
    19d0:	0f62                	slli	t5,t5,0x18
    19d2:	02e2                	slli	t0,t0,0x18
    19d4:	08e2                	slli	a7,a7,0x18
    19d6:	0962                	slli	s2,s2,0x18
    19d8:	015d4ab3          	xor	s5,s10,s5
    19dc:	00dc46b3          	xor	a3,s8,a3
    19e0:	011be8b3          	or	a7,s7,a7
    19e4:	0127e933          	or	s2,a5,s2
    19e8:	00839b93          	slli	s7,t2,0x8
    19ec:	01ee6f33          	or	t5,t3,t5
    19f0:	00849d13          	slli	s10,s1,0x8
    19f4:	010cccb3          	xor	s9,s9,a6
    19f8:	005de2b3          	or	t0,s11,t0
    19fc:	00841813          	slli	a6,s0,0x8
    1a00:	0183d393          	srli	t2,t2,0x18
    1a04:	00cb4633          	xor	a2,s6,a2
    1a08:	80e1                	srli	s1,s1,0x18
    1a0a:	008e9b13          	slli	s6,t4,0x8
    1a0e:	8061                	srli	s0,s0,0x18
    1a10:	018ede93          	srli	t4,t4,0x18
    1a14:	0116cfb3          	xor	t6,a3,a7
    1a18:	005cccb3          	xor	s9,s9,t0
    1a1c:	00886433          	or	s0,a6,s0
    1a20:	01035293          	srli	t0,t1,0x10
    1a24:	007be6b3          	or	a3,s7,t2
    1a28:	01db6b33          	or	s6,s6,t4
    1a2c:	01051893          	slli	a7,a0,0x10
    1a30:	01eacf33          	xor	t5,s5,t5
    1a34:	009d64b3          	or	s1,s10,s1
    1a38:	010a1a93          	slli	s5,s4,0x10
    1a3c:	01031793          	slli	a5,t1,0x10
    1a40:	010a5a13          	srli	s4,s4,0x10
    1a44:	01099313          	slli	t1,s3,0x10
    1a48:	01264633          	xor	a2,a2,s2
    1a4c:	0109d993          	srli	s3,s3,0x10
    1a50:	8141                	srli	a0,a0,0x10
    1a52:	008cce33          	xor	t3,s9,s0
    1a56:	009f4f33          	xor	t5,t5,s1
    1a5a:	014aeeb3          	or	t4,s5,s4
    1a5e:	0057e7b3          	or	a5,a5,t0
    1a62:	01336333          	or	t1,t1,s3
    1a66:	01664633          	xor	a2,a2,s6
    1a6a:	00dfc6b3          	xor	a3,t6,a3
    1a6e:	00a8e533          	or	a0,a7,a0
    1a72:	00fe4833          	xor	a6,t3,a5
    1a76:	01df4eb3          	xor	t4,t5,t4
    1a7a:	0066c6b3          	xor	a3,a3,t1
    1a7e:	8d31                	xor	a0,a0,a2
    1a80:	0ff87993          	andi	s3,a6,255
    1a84:	0ff57e13          	andi	t3,a0,255
    1a88:	0ffef913          	andi	s2,t4,255
    1a8c:	01855493          	srli	s1,a0,0x18
    1a90:	00685f93          	srli	t6,a6,0x6
    1a94:	00e6d313          	srli	t1,a3,0xe
    1a98:	018ed413          	srli	s0,t4,0x18
    1a9c:	0066df13          	srli	t5,a3,0x6
    1aa0:	00e55893          	srli	a7,a0,0xe
    1aa4:	0ff6f393          	andi	t2,a3,255
    1aa8:	01885613          	srli	a2,a6,0x18
    1aac:	0186d293          	srli	t0,a3,0x18
    1ab0:	67a5                	lui	a5,0x9
    1ab2:	a6078a13          	addi	s4,a5,-1440 # 8a60 <rcon_tab>
    1ab6:	00299693          	slli	a3,s3,0x2
    1aba:	002e1793          	slli	a5,t3,0x2
    1abe:	8119                	srli	a0,a0,0x6
    1ac0:	006ede13          	srli	t3,t4,0x6
    1ac4:	090a                	slli	s2,s2,0x2
    1ac6:	048a                	slli	s1,s1,0x2
    1ac8:	3fcfff93          	andi	t6,t6,1020
    1acc:	3fc37313          	andi	t1,t1,1020
    1ad0:	040a                	slli	s0,s0,0x2
    1ad2:	3fcf7f13          	andi	t5,t5,1020
    1ad6:	3fc8f893          	andi	a7,a7,1020
    1ada:	038a                	slli	t2,t2,0x2
    1adc:	060a                	slli	a2,a2,0x2
    1ade:	028a                	slli	t0,t0,0x2
    1ae0:	9952                	add	s2,s2,s4
    1ae2:	93d2                	add	t2,t2,s4
    1ae4:	9652                	add	a2,a2,s4
    1ae6:	3fc57c93          	andi	s9,a0,1020
    1aea:	00eede93          	srli	t4,t4,0xe
    1aee:	00fa0533          	add	a0,s4,a5
    1af2:	94d2                	add	s1,s1,s4
    1af4:	00e85793          	srli	a5,a6,0xe
    1af8:	9fd2                	add	t6,t6,s4
    1afa:	9352                	add	t1,t1,s4
    1afc:	96d2                	add	a3,a3,s4
    1afe:	9452                	add	s0,s0,s4
    1b00:	9f52                	add	t5,t5,s4
    1b02:	98d2                	add	a7,a7,s4
    1b04:	92d2                	add	t0,t0,s4
    1b06:	3fce7e13          	andi	t3,t3,1020
    1b0a:	07492a83          	lw	s5,116(s2)
    1b0e:	09472b83          	lw	s7,148(a4)
    1b12:	09872b03          	lw	s6,152(a4)
    1b16:	09072c03          	lw	s8,144(a4)
    1b1a:	58e4                	lw	s1,116(s1)
    1b1c:	074faf83          	lw	t6,116(t6)
    1b20:	07432303          	lw	t1,116(t1)
    1b24:	5af4                	lw	a3,116(a3)
    1b26:	5860                	lw	s0,116(s0)
    1b28:	074f2f03          	lw	t5,116(t5)
    1b2c:	0748a883          	lw	a7,116(a7)
    1b30:	0743a983          	lw	s3,116(t2)
    1b34:	3fc7f813          	andi	a6,a5,1020
    1b38:	07462383          	lw	t2,116(a2)
    1b3c:	9cd2                	add	s9,s9,s4
    1b3e:	07452903          	lw	s2,116(a0)
    1b42:	3fcef613          	andi	a2,t4,1020
    1b46:	09c72503          	lw	a0,156(a4)
    1b4a:	0742a283          	lw	t0,116(t0)
    1b4e:	9e52                	add	t3,t3,s4
    1b50:	010a07b3          	add	a5,s4,a6
    1b54:	9652                	add	a2,a2,s4
    1b56:	074cae83          	lw	t4,116(s9)
    1b5a:	074e2e03          	lw	t3,116(t3)
    1b5e:	07462803          	lw	a6,116(a2)
    1b62:	5bf0                	lw	a2,116(a5)
    1b64:	018ac733          	xor	a4,s5,s8
    1b68:	04e2                	slli	s1,s1,0x18
    1b6a:	0176c6b3          	xor	a3,a3,s7
    1b6e:	0462                	slli	s0,s0,0x18
    1b70:	0169c7b3          	xor	a5,s3,s6
    1b74:	03e2                	slli	t2,t2,0x18
    1b76:	00a94533          	xor	a0,s2,a0
    1b7a:	02e2                	slli	t0,t0,0x18
    1b7c:	0ea2                	slli	t4,t4,0x8
    1b7e:	8f25                	xor	a4,a4,s1
    1b80:	0fa2                	slli	t6,t6,0x8
    1b82:	8ea1                	xor	a3,a3,s0
    1b84:	0f22                	slli	t5,t5,0x8
    1b86:	0077c7b3          	xor	a5,a5,t2
    1b8a:	00554533          	xor	a0,a0,t0
    1b8e:	0e22                	slli	t3,t3,0x8
    1b90:	01f74733          	xor	a4,a4,t6
    1b94:	0342                	slli	t1,t1,0x10
    1b96:	01e6c6b3          	xor	a3,a3,t5
    1b9a:	08c2                	slli	a7,a7,0x10
    1b9c:	01d7c7b3          	xor	a5,a5,t4
    1ba0:	0842                	slli	a6,a6,0x10
    1ba2:	01c54533          	xor	a0,a0,t3
    1ba6:	0642                	slli	a2,a2,0x10
    1ba8:	00674333          	xor	t1,a4,t1
    1bac:	0116c6b3          	xor	a3,a3,a7
    1bb0:	0107ceb3          	xor	t4,a5,a6
    1bb4:	8d31                	xor	a0,a0,a2
    1bb6:	fc7fe06f          	j	b7c <encrypt+0x70>
    1bba:	4501                	li	a0,0
    1bbc:	8082                	ret
    1bbe:	01855813          	srli	a6,a0,0x18
    1bc2:	01835993          	srli	s3,t1,0x18
    1bc6:	0186da93          	srli	s5,a3,0x18
    1bca:	018ed493          	srli	s1,t4,0x18
    1bce:	67a9                	lui	a5,0xa
    1bd0:	a6078793          	addi	a5,a5,-1440 # 9a60 <it_tab+0x38c>
    1bd4:	00635713          	srli	a4,t1,0x6
    1bd8:	0ff37f13          	andi	t5,t1,255
    1bdc:	0066dc93          	srli	s9,a3,0x6
    1be0:	0ff6fe13          	andi	t3,a3,255
    1be4:	006ed393          	srli	t2,t4,0x6
    1be8:	0ffefb93          	andi	s7,t4,255
    1bec:	00655c13          	srli	s8,a0,0x6
    1bf0:	0ff57893          	andi	a7,a0,255
    1bf4:	080a                	slli	a6,a6,0x2
    1bf6:	098a                	slli	s3,s3,0x2
    1bf8:	0a8a                	slli	s5,s5,0x2
    1bfa:	048a                	slli	s1,s1,0x2
    1bfc:	82b9                	srli	a3,a3,0xe
    1bfe:	983e                	add	a6,a6,a5
    1c00:	3fc77f93          	andi	t6,a4,1020
    1c04:	00eede93          	srli	t4,t4,0xe
    1c08:	8139                	srli	a0,a0,0xe
    1c0a:	00e35313          	srli	t1,t1,0xe
    1c0e:	0f0a                	slli	t5,t5,0x2
    1c10:	3fccfc93          	andi	s9,s9,1020
    1c14:	0e0a                	slli	t3,t3,0x2
    1c16:	99be                	add	s3,s3,a5
    1c18:	3fc3f393          	andi	t2,t2,1020
    1c1c:	0b8a                	slli	s7,s7,0x2
    1c1e:	9abe                	add	s5,s5,a5
    1c20:	3fcc7c13          	andi	s8,s8,1020
    1c24:	088a                	slli	a7,a7,0x2
    1c26:	94be                	add	s1,s1,a5
    1c28:	87482a03          	lw	s4,-1932(a6)
    1c2c:	874aaa83          	lw	s5,-1932(s5)
    1c30:	8749a983          	lw	s3,-1932(s3)
    1c34:	8744a483          	lw	s1,-1932(s1)
    1c38:	9cbe                	add	s9,s9,a5
    1c3a:	9bbe                	add	s7,s7,a5
    1c3c:	9c3e                	add	s8,s8,a5
    1c3e:	3fc37313          	andi	t1,t1,1020
    1c42:	98be                	add	a7,a7,a5
    1c44:	01f78733          	add	a4,a5,t6
    1c48:	3fc6f813          	andi	a6,a3,1020
    1c4c:	9f3e                	add	t5,t5,a5
    1c4e:	3fcefe93          	andi	t4,t4,1020
    1c52:	9e3e                	add	t3,t3,a5
    1c54:	93be                	add	t2,t2,a5
    1c56:	3fc57513          	andi	a0,a0,1020
    1c5a:	874ca403          	lw	s0,-1932(s9)
    1c5e:	874c2283          	lw	t0,-1932(s8)
    1c62:	87472f83          	lw	t6,-1932(a4)
    1c66:	8748a683          	lw	a3,-1932(a7)
    1c6a:	874ba703          	lw	a4,-1932(s7)
    1c6e:	8743a383          	lw	t2,-1932(t2)
    1c72:	874f2f03          	lw	t5,-1932(t5)
    1c76:	874e2e03          	lw	t3,-1932(t3)
    1c7a:	01862d83          	lw	s11,24(a2)
    1c7e:	01c62c83          	lw	s9,28(a2)
    1c82:	02062b83          	lw	s7,32(a2)
    1c86:	02462b03          	lw	s6,36(a2)
    1c8a:	953e                	add	a0,a0,a5
    1c8c:	006788b3          	add	a7,a5,t1
    1c90:	983e                	add	a6,a6,a5
    1c92:	9ebe                	add	t4,t4,a5
    1c94:	87452303          	lw	t1,-1932(a0)
    1c98:	874eae83          	lw	t4,-1932(t4)
    1c9c:	87482503          	lw	a0,-1932(a6)
    1ca0:	8748a883          	lw	a7,-1932(a7)
    1ca4:	008a5d13          	srli	s10,s4,0x8
    1ca8:	0089d813          	srli	a6,s3,0x8
    1cac:	008adc13          	srli	s8,s5,0x8
    1cb0:	018a9913          	slli	s2,s5,0x18
    1cb4:	0a62                	slli	s4,s4,0x18
    1cb6:	0084da93          	srli	s5,s1,0x8
    1cba:	09e2                	slli	s3,s3,0x18
    1cbc:	04e2                	slli	s1,s1,0x18
    1cbe:	014d6a33          	or	s4,s10,s4
    1cc2:	013869b3          	or	s3,a6,s3
    1cc6:	00841d13          	slli	s10,s0,0x8
    1cca:	00839813          	slli	a6,t2,0x8
    1cce:	012c6933          	or	s2,s8,s2
    1cd2:	0166cb33          	xor	s6,a3,s6
    1cd6:	00829c13          	slli	s8,t0,0x8
    1cda:	009ae6b3          	or	a3,s5,s1
    1cde:	01bf4db3          	xor	s11,t5,s11
    1ce2:	008f9a93          	slli	s5,t6,0x8
    1ce6:	019e4cb3          	xor	s9,t3,s9
    1cea:	01774bb3          	xor	s7,a4,s7
    1cee:	8061                	srli	s0,s0,0x18
    1cf0:	0183d393          	srli	t2,t2,0x18
    1cf4:	0182d293          	srli	t0,t0,0x18
    1cf8:	018fdf93          	srli	t6,t6,0x18
    1cfc:	014dcf33          	xor	t5,s11,s4
    1d00:	008d6433          	or	s0,s10,s0
    1d04:	013cce33          	xor	t3,s9,s3
    1d08:	010e9d13          	slli	s10,t4,0x10
    1d0c:	007863b3          	or	t2,a6,t2
    1d10:	01031993          	slli	s3,t1,0x10
    1d14:	012bc733          	xor	a4,s7,s2
    1d18:	005c62b3          	or	t0,s8,t0
    1d1c:	01089493          	slli	s1,a7,0x10
    1d20:	01faefb3          	or	t6,s5,t6
    1d24:	01051813          	slli	a6,a0,0x10
    1d28:	00db46b3          	xor	a3,s6,a3
    1d2c:	010ede93          	srli	t4,t4,0x10
    1d30:	01035313          	srli	t1,t1,0x10
    1d34:	0108d893          	srli	a7,a7,0x10
    1d38:	8141                	srli	a0,a0,0x10
    1d3a:	008f4f33          	xor	t5,t5,s0
    1d3e:	007e4e33          	xor	t3,t3,t2
    1d42:	0069e333          	or	t1,s3,t1
    1d46:	0114e8b3          	or	a7,s1,a7
    1d4a:	00a86533          	or	a0,a6,a0
    1d4e:	01dd6eb3          	or	t4,s10,t4
    1d52:	00574733          	xor	a4,a4,t0
    1d56:	01f6c6b3          	xor	a3,a3,t6
    1d5a:	01df4d33          	xor	s10,t5,t4
    1d5e:	006e4833          	xor	a6,t3,t1
    1d62:	01174733          	xor	a4,a4,a7
    1d66:	8ea9                	xor	a3,a3,a0
    1d68:	0ffd7313          	andi	t1,s10,255
    1d6c:	0186d513          	srli	a0,a3,0x18
    1d70:	00685413          	srli	s0,a6,0x6
    1d74:	00e75993          	srli	s3,a4,0xe
    1d78:	0ff87f13          	andi	t5,a6,255
    1d7c:	018d5893          	srli	a7,s10,0x18
    1d80:	00675393          	srli	t2,a4,0x6
    1d84:	00e6d293          	srli	t0,a3,0xe
    1d88:	0ff77e93          	andi	t4,a4,255
    1d8c:	01885e13          	srli	t3,a6,0x18
    1d90:	8361                	srli	a4,a4,0x18
    1d92:	0066d913          	srli	s2,a3,0x6
    1d96:	006d5493          	srli	s1,s10,0x6
    1d9a:	030a                	slli	t1,t1,0x2
    1d9c:	050a                	slli	a0,a0,0x2
    1d9e:	3fc47413          	andi	s0,s0,1020
    1da2:	3fc9f993          	andi	s3,s3,1020
    1da6:	0f0a                	slli	t5,t5,0x2
    1da8:	088a                	slli	a7,a7,0x2
    1daa:	3fc3f393          	andi	t2,t2,1020
    1dae:	3fc2f293          	andi	t0,t0,1020
    1db2:	0e8a                	slli	t4,t4,0x2
    1db4:	0e0a                	slli	t3,t3,0x2
    1db6:	0ff6f693          	andi	a3,a3,255
    1dba:	070a                	slli	a4,a4,0x2
    1dbc:	00e85f93          	srli	t6,a6,0xe
    1dc0:	933e                	add	t1,t1,a5
    1dc2:	99be                	add	s3,s3,a5
    1dc4:	9f3e                	add	t5,t5,a5
    1dc6:	92be                	add	t0,t0,a5
    1dc8:	9ebe                	add	t4,t4,a5
    1dca:	9e3e                	add	t3,t3,a5
    1dcc:	068a                	slli	a3,a3,0x2
    1dce:	973e                	add	a4,a4,a5
    1dd0:	953e                	add	a0,a0,a5
    1dd2:	943e                	add	s0,s0,a5
    1dd4:	98be                	add	a7,a7,a5
    1dd6:	93be                	add	t2,t2,a5
    1dd8:	3fc97913          	andi	s2,s2,1020
    1ddc:	00ed5d13          	srli	s10,s10,0xe
    1de0:	3fc4f493          	andi	s1,s1,1020
    1de4:	8749aa03          	lw	s4,-1932(s3)
    1de8:	87452503          	lw	a0,-1932(a0)
    1dec:	8742a983          	lw	s3,-1932(t0)
    1df0:	87442403          	lw	s0,-1932(s0)
    1df4:	87432283          	lw	t0,-1932(t1)
    1df8:	8748a883          	lw	a7,-1932(a7)
    1dfc:	8743a383          	lw	t2,-1932(t2)
    1e00:	874f2c03          	lw	s8,-1932(t5)
    1e04:	874eab83          	lw	s7,-1932(t4)
    1e08:	02862303          	lw	t1,40(a2)
    1e0c:	03062e83          	lw	t4,48(a2)
    1e10:	02c62b03          	lw	s6,44(a2)
    1e14:	993e                	add	s2,s2,a5
    1e16:	874e2f03          	lw	t5,-1932(t3)
    1e1a:	3fcd7d13          	andi	s10,s10,1020
    1e1e:	87472803          	lw	a6,-1932(a4)
    1e22:	00d78e33          	add	t3,a5,a3
    1e26:	94be                	add	s1,s1,a5
    1e28:	3fcff713          	andi	a4,t6,1020
    1e2c:	874e2c83          	lw	s9,-1932(t3)
    1e30:	87492f83          	lw	t6,-1932(s2)
    1e34:	01a786b3          	add	a3,a5,s10
    1e38:	8744a903          	lw	s2,-1932(s1)
    1e3c:	973e                	add	a4,a4,a5
    1e3e:	03462a83          	lw	s5,52(a2)
    1e42:	8746a483          	lw	s1,-1932(a3)
    1e46:	87472e03          	lw	t3,-1932(a4)
    1e4a:	00855d13          	srli	s10,a0,0x8
    1e4e:	0088d693          	srli	a3,a7,0x8
    1e52:	008f5d93          	srli	s11,t5,0x8
    1e56:	01851713          	slli	a4,a0,0x18
    1e5a:	08e2                	slli	a7,a7,0x18
    1e5c:	00885513          	srli	a0,a6,0x8
    1e60:	0f62                	slli	t5,t5,0x18
    1e62:	0862                	slli	a6,a6,0x18
    1e64:	00ed6733          	or	a4,s10,a4
    1e68:	01edef33          	or	t5,s11,t5
    1e6c:	0062c333          	xor	t1,t0,t1
    1e70:	016c4b33          	xor	s6,s8,s6
    1e74:	00841293          	slli	t0,s0,0x8
    1e78:	00839c13          	slli	s8,t2,0x8
    1e7c:	0116e8b3          	or	a7,a3,a7
    1e80:	01dbcbb3          	xor	s7,s7,t4
    1e84:	008f9d13          	slli	s10,t6,0x8
    1e88:	015ccab3          	xor	s5,s9,s5
    1e8c:	01056533          	or	a0,a0,a6
    1e90:	8061                	srli	s0,s0,0x18
    1e92:	00891813          	slli	a6,s2,0x8
    1e96:	0183d393          	srli	t2,t2,0x18
    1e9a:	018fdf93          	srli	t6,t6,0x18
    1e9e:	01895913          	srli	s2,s2,0x18
    1ea2:	01ebceb3          	xor	t4,s7,t5
    1ea6:	00e34333          	xor	t1,t1,a4
    1eaa:	010a1c93          	slli	s9,s4,0x10
    1eae:	010a5d93          	srli	s11,s4,0x10
    1eb2:	007c63b3          	or	t2,s8,t2
    1eb6:	01049b93          	slli	s7,s1,0x10
    1eba:	01099c13          	slli	s8,s3,0x10
    1ebe:	010e1f13          	slli	t5,t3,0x10
    1ec2:	0082e433          	or	s0,t0,s0
    1ec6:	011b48b3          	xor	a7,s6,a7
    1eca:	0109d993          	srli	s3,s3,0x10
    1ece:	01fd6fb3          	or	t6,s10,t6
    1ed2:	80c1                	srli	s1,s1,0x10
    1ed4:	00aac533          	xor	a0,s5,a0
    1ed8:	01286933          	or	s2,a6,s2
    1edc:	010e5e13          	srli	t3,t3,0x10
    1ee0:	03862a03          	lw	s4,56(a2)
    1ee4:	00834333          	xor	t1,t1,s0
    1ee8:	01bcecb3          	or	s9,s9,s11
    1eec:	0078c3b3          	xor	t2,a7,t2
    1ef0:	013c69b3          	or	s3,s8,s3
    1ef4:	01feceb3          	xor	t4,t4,t6
    1ef8:	009be4b3          	or	s1,s7,s1
    1efc:	01254533          	xor	a0,a0,s2
    1f00:	01cf6e33          	or	t3,t5,t3
    1f04:	01934333          	xor	t1,t1,s9
    1f08:	0133c6b3          	xor	a3,t2,s3
    1f0c:	009eceb3          	xor	t4,t4,s1
    1f10:	01c54533          	xor	a0,a0,t3
    1f14:	03860713          	addi	a4,a2,56
    1f18:	0186df93          	srli	t6,a3,0x18
    1f1c:	01855393          	srli	t2,a0,0x18
    1f20:	01835a93          	srli	s5,t1,0x18
    1f24:	018ed493          	srli	s1,t4,0x18
    1f28:	0ff6fb93          	andi	s7,a3,255
    1f2c:	0ffeff13          	andi	t5,t4,255
    1f30:	0ff57813          	andi	a6,a0,255
    1f34:	0ff37c93          	andi	s9,t1,255
    1f38:	0066dc13          	srli	s8,a3,0x6
    1f3c:	006ed293          	srli	t0,t4,0x6
    1f40:	00655413          	srli	s0,a0,0x6
    1f44:	00635e13          	srli	t3,t1,0x6
    1f48:	038a                	slli	t2,t2,0x2
    1f4a:	002f9993          	slli	s3,t6,0x2
    1f4e:	048a                	slli	s1,s1,0x2
    1f50:	0a8a                	slli	s5,s5,0x2
    1f52:	00778b33          	add	s6,a5,t2
    1f56:	01378fb3          	add	t6,a5,s3
    1f5a:	00e55893          	srli	a7,a0,0xe
    1f5e:	00e35913          	srli	s2,t1,0xe
    1f62:	00e6d613          	srli	a2,a3,0xe
    1f66:	002f1313          	slli	t1,t5,0x2
    1f6a:	002b9393          	slli	t2,s7,0x2
    1f6e:	9abe                	add	s5,s5,a5
    1f70:	3fc2f293          	andi	t0,t0,1020
    1f74:	3fc47513          	andi	a0,s0,1020
    1f78:	00281693          	slli	a3,a6,0x2
    1f7c:	00978f33          	add	t5,a5,s1
    1f80:	00eede93          	srli	t4,t4,0xe
    1f84:	0c8a                	slli	s9,s9,0x2
    1f86:	3fcc7c13          	andi	s8,s8,1020
    1f8a:	3fce7e13          	andi	t3,t3,1020
    1f8e:	874b2d03          	lw	s10,-1932(s6)
    1f92:	874aa983          	lw	s3,-1932(s5)
    1f96:	874f2483          	lw	s1,-1932(t5)
    1f9a:	874faa83          	lw	s5,-1932(t6)
    1f9e:	9cbe                	add	s9,s9,a5
    1fa0:	9c3e                	add	s8,s8,a5
    1fa2:	00578fb3          	add	t6,a5,t0
    1fa6:	00678f33          	add	t5,a5,t1
    1faa:	953e                	add	a0,a0,a5
    1fac:	00d78833          	add	a6,a5,a3
    1fb0:	9e3e                	add	t3,t3,a5
    1fb2:	3fcefe93          	andi	t4,t4,1020
    1fb6:	93be                	add	t2,t2,a5
    1fb8:	3fc8f893          	andi	a7,a7,1020
    1fbc:	3fc97913          	andi	s2,s2,1020
    1fc0:	3fc67613          	andi	a2,a2,1020
    1fc4:	874c2403          	lw	s0,-1932(s8)
    1fc8:	874fa283          	lw	t0,-1932(t6)
    1fcc:	874cad83          	lw	s11,-1932(s9)
    1fd0:	87452f83          	lw	t6,-1932(a0)
    1fd4:	00472c03          	lw	s8,4(a4)
    1fd8:	874e2503          	lw	a0,-1932(t3)
    1fdc:	00872b83          	lw	s7,8(a4)
    1fe0:	00c72b03          	lw	s6,12(a4)
    1fe4:	8743a383          	lw	t2,-1932(t2)
    1fe8:	874f2f03          	lw	t5,-1932(t5)
    1fec:	87482803          	lw	a6,-1932(a6)
    1ff0:	9ebe                	add	t4,t4,a5
    1ff2:	98be                	add	a7,a7,a5
    1ff4:	993e                	add	s2,s2,a5
    1ff6:	963e                	add	a2,a2,a5
    1ff8:	874eae03          	lw	t3,-1932(t4)
    1ffc:	8748a303          	lw	t1,-1932(a7)
    2000:	87462603          	lw	a2,-1932(a2)
    2004:	87492883          	lw	a7,-1932(s2)
    2008:	008d5e93          	srli	t4,s10,0x8
    200c:	0089dc93          	srli	s9,s3,0x8
    2010:	008ad693          	srli	a3,s5,0x8
    2014:	018a9913          	slli	s2,s5,0x18
    2018:	0d62                	slli	s10,s10,0x18
    201a:	0084da93          	srli	s5,s1,0x8
    201e:	09e2                	slli	s3,s3,0x18
    2020:	04e2                	slli	s1,s1,0x18
    2022:	01ba4a33          	xor	s4,s4,s11
    2026:	013ce9b3          	or	s3,s9,s3
    202a:	00841d93          	slli	s11,s0,0x8
    202e:	00829c93          	slli	s9,t0,0x8
    2032:	0126e933          	or	s2,a3,s2
    2036:	01684b33          	xor	s6,a6,s6
    203a:	01aeed33          	or	s10,t4,s10
    203e:	009ae833          	or	a6,s5,s1
    2042:	0183cc33          	xor	s8,t2,s8
    2046:	017f4bb3          	xor	s7,t5,s7
    204a:	008f9693          	slli	a3,t6,0x8
    204e:	00851a93          	slli	s5,a0,0x8
    2052:	018fdf93          	srli	t6,t6,0x18
    2056:	8161                	srli	a0,a0,0x18
    2058:	8061                	srli	s0,s0,0x18
    205a:	0182d293          	srli	t0,t0,0x18
    205e:	012bcf33          	xor	t5,s7,s2
    2062:	014d4eb3          	xor	t4,s10,s4
    2066:	008de433          	or	s0,s11,s0
    206a:	010e1a13          	slli	s4,t3,0x10
    206e:	013c43b3          	xor	t2,s8,s3
    2072:	005ce2b3          	or	t0,s9,t0
    2076:	01031993          	slli	s3,t1,0x10
    207a:	01089493          	slli	s1,a7,0x10
    207e:	00aaeab3          	or	s5,s5,a0
    2082:	01f6e6b3          	or	a3,a3,t6
    2086:	01061513          	slli	a0,a2,0x10
    208a:	010b4833          	xor	a6,s6,a6
    208e:	010e5e13          	srli	t3,t3,0x10
    2092:	01035313          	srli	t1,t1,0x10
    2096:	0108d893          	srli	a7,a7,0x10
    209a:	8241                	srli	a2,a2,0x10
    209c:	01ca6e33          	or	t3,s4,t3
    20a0:	0069e333          	or	t1,s3,t1
    20a4:	0114e8b3          	or	a7,s1,a7
    20a8:	8e49                	or	a2,a2,a0
    20aa:	008eceb3          	xor	t4,t4,s0
    20ae:	0053c3b3          	xor	t2,t2,t0
    20b2:	00df46b3          	xor	a3,t5,a3
    20b6:	01584833          	xor	a6,a6,s5
    20ba:	0116c6b3          	xor	a3,a3,a7
    20be:	01ceceb3          	xor	t4,t4,t3
    20c2:	0063c3b3          	xor	t2,t2,t1
    20c6:	00c84833          	xor	a6,a6,a2
    20ca:	0ff3f513          	andi	a0,t2,255
    20ce:	0ffef313          	andi	t1,t4,255
    20d2:	01885893          	srli	a7,a6,0x18
    20d6:	0063d293          	srli	t0,t2,0x6
    20da:	00e6d913          	srli	s2,a3,0xe
    20de:	018eda13          	srli	s4,t4,0x18
    20e2:	0066df93          	srli	t6,a3,0x6
    20e6:	00e85493          	srli	s1,a6,0xe
    20ea:	0ff6f993          	andi	s3,a3,255
    20ee:	0183da93          	srli	s5,t2,0x18
    20f2:	00685f13          	srli	t5,a6,0x6
    20f6:	0186d613          	srli	a2,a3,0x18
    20fa:	0ff87813          	andi	a6,a6,255
    20fe:	00251693          	slli	a3,a0,0x2
    2102:	006ed413          	srli	s0,t4,0x6
    2106:	030a                	slli	t1,t1,0x2
    2108:	088a                	slli	a7,a7,0x2
    210a:	3fc2f293          	andi	t0,t0,1020
    210e:	3fc97913          	andi	s2,s2,1020
    2112:	0a0a                	slli	s4,s4,0x2
    2114:	3fcfff93          	andi	t6,t6,1020
    2118:	3fc4f493          	andi	s1,s1,1020
    211c:	098a                	slli	s3,s3,0x2
    211e:	0a8a                	slli	s5,s5,0x2
    2120:	3fcf7f13          	andi	t5,t5,1020
    2124:	060a                	slli	a2,a2,0x2
    2126:	00eede13          	srli	t3,t4,0xe
    212a:	99be                	add	s3,s3,a5
    212c:	9abe                	add	s5,s5,a5
    212e:	00281513          	slli	a0,a6,0x2
    2132:	963e                	add	a2,a2,a5
    2134:	933e                	add	t1,t1,a5
    2136:	98be                	add	a7,a7,a5
    2138:	92be                	add	t0,t0,a5
    213a:	993e                	add	s2,s2,a5
    213c:	96be                	add	a3,a3,a5
    213e:	9a3e                	add	s4,s4,a5
    2140:	9fbe                	add	t6,t6,a5
    2142:	94be                	add	s1,s1,a5
    2144:	9f3e                	add	t5,t5,a5
    2146:	3fc47413          	andi	s0,s0,1020
    214a:	00e3d393          	srli	t2,t2,0xe
    214e:	01072d03          	lw	s10,16(a4)
    2152:	874a2a03          	lw	s4,-1932(s4)
    2156:	01872b83          	lw	s7,24(a4)
    215a:	874aae83          	lw	t4,-1932(s5)
    215e:	8748a883          	lw	a7,-1932(a7)
    2162:	8742a283          	lw	t0,-1932(t0)
    2166:	87492903          	lw	s2,-1932(s2)
    216a:	01472c83          	lw	s9,20(a4)
    216e:	874faf83          	lw	t6,-1932(t6)
    2172:	8744a483          	lw	s1,-1932(s1)
    2176:	8746a683          	lw	a3,-1932(a3)
    217a:	8749a803          	lw	a6,-1932(s3)
    217e:	3fce7b13          	andi	s6,t3,1020
    2182:	87432303          	lw	t1,-1932(t1)
    2186:	943e                	add	s0,s0,a5
    2188:	874f2f03          	lw	t5,-1932(t5)
    218c:	953e                	add	a0,a0,a5
    218e:	87462e03          	lw	t3,-1932(a2)
    2192:	3fc3f393          	andi	t2,t2,1020
    2196:	87442983          	lw	s3,-1932(s0)
    219a:	01678633          	add	a2,a5,s6
    219e:	01c72a83          	lw	s5,28(a4)
    21a2:	87452503          	lw	a0,-1932(a0)
    21a6:	93be                	add	t2,t2,a5
    21a8:	87462403          	lw	s0,-1932(a2)
    21ac:	8743a383          	lw	t2,-1932(t2)
    21b0:	0088dd93          	srli	s11,a7,0x8
    21b4:	018a1613          	slli	a2,s4,0x18
    21b8:	008a5c13          	srli	s8,s4,0x8
    21bc:	008edb13          	srli	s6,t4,0x8
    21c0:	008e5a13          	srli	s4,t3,0x8
    21c4:	0ee2                	slli	t4,t4,0x18
    21c6:	08e2                	slli	a7,a7,0x18
    21c8:	0e62                	slli	t3,t3,0x18
    21ca:	011de8b3          	or	a7,s11,a7
    21ce:	01784833          	xor	a6,a6,s7
    21d2:	00829d93          	slli	s11,t0,0x8
    21d6:	01a34333          	xor	t1,t1,s10
    21da:	0196ccb3          	xor	s9,a3,s9
    21de:	00cc6c33          	or	s8,s8,a2
    21e2:	008f9d13          	slli	s10,t6,0x8
    21e6:	00899613          	slli	a2,s3,0x8
    21ea:	01db6b33          	or	s6,s6,t4
    21ee:	008f1b93          	slli	s7,t5,0x8
    21f2:	0182d293          	srli	t0,t0,0x18
    21f6:	018fdf93          	srli	t6,t6,0x18
    21fa:	018f5f13          	srli	t5,t5,0x18
    21fe:	01554ab3          	xor	s5,a0,s5
    2202:	01ca6e33          	or	t3,s4,t3
    2206:	0189d993          	srli	s3,s3,0x18
    220a:	01134333          	xor	t1,t1,a7
    220e:	01049693          	slli	a3,s1,0x10
    2212:	005de2b3          	or	t0,s11,t0
    2216:	01091893          	slli	a7,s2,0x10
    221a:	01684b33          	xor	s6,a6,s6
    221e:	013669b3          	or	s3,a2,s3
    2222:	01041813          	slli	a6,s0,0x10
    2226:	01039d93          	slli	s11,t2,0x10
    222a:	01095913          	srli	s2,s2,0x10
    222e:	018cccb3          	xor	s9,s9,s8
    2232:	01fd6fb3          	or	t6,s10,t6
    2236:	80c1                	srli	s1,s1,0x10
    2238:	01ebef33          	or	t5,s7,t5
    223c:	8041                	srli	s0,s0,0x10
    223e:	01cac533          	xor	a0,s5,t3
    2242:	0103d393          	srli	t2,t2,0x10
    2246:	005342b3          	xor	t0,t1,t0
    224a:	0128e933          	or	s2,a7,s2
    224e:	01fcc633          	xor	a2,s9,t6
    2252:	8cd5                	or	s1,s1,a3
    2254:	01eb4eb3          	xor	t4,s6,t5
    2258:	00886433          	or	s0,a6,s0
    225c:	01354533          	xor	a0,a0,s3
    2260:	007de3b3          	or	t2,s11,t2
    2264:	0122c333          	xor	t1,t0,s2
    2268:	009646b3          	xor	a3,a2,s1
    226c:	008eceb3          	xor	t4,t4,s0
    2270:	00754533          	xor	a0,a0,t2
    2274:	02070713          	addi	a4,a4,32
    2278:	935fe06f          	j	bac <encrypt+0xa0>
    227c:	67a9                	lui	a5,0xa
    227e:	01862a03          	lw	s4,24(a2)
    2282:	a6078793          	addi	a5,a5,-1440 # 9a60 <it_tab+0x38c>
    2286:	b949                	j	1f18 <encrypt+0x140c>

00002288 <decrypt>:
    2288:	20864783          	lbu	a5,520(a2)
    228c:	8b89                	andi	a5,a5,2
    228e:	e399                	bnez	a5,2294 <decrypt+0xc>
    2290:	0820106f          	j	3312 <decrypt+0x108a>
    2294:	7179                	addi	sp,sp,-48
    2296:	00052303          	lw	t1,0(a0)
    229a:	10862703          	lw	a4,264(a2)
    229e:	00452e83          	lw	t4,4(a0)
    22a2:	00c52f83          	lw	t6,12(a0)
    22a6:	10c62683          	lw	a3,268(a2)
    22aa:	11062783          	lw	a5,272(a2)
    22ae:	d622                	sw	s0,44(sp)
    22b0:	00462803          	lw	a6,4(a2)
    22b4:	4500                	lw	s0,8(a0)
    22b6:	11462503          	lw	a0,276(a2)
    22ba:	d426                	sw	s1,40(sp)
    22bc:	d24a                	sw	s2,36(sp)
    22be:	d04e                	sw	s3,32(sp)
    22c0:	ce52                	sw	s4,28(sp)
    22c2:	cc56                	sw	s5,24(sp)
    22c4:	ca5a                	sw	s6,20(sp)
    22c6:	c85e                	sw	s7,16(sp)
    22c8:	c662                	sw	s8,12(sp)
    22ca:	c466                	sw	s9,8(sp)
    22cc:	c26a                	sw	s10,4(sp)
    22ce:	c06e                	sw	s11,0(sp)
    22d0:	4e31                	li	t3,12
    22d2:	00e34333          	xor	t1,t1,a4
    22d6:	00dec6b3          	xor	a3,t4,a3
    22da:	8c3d                	xor	s0,s0,a5
    22dc:	00afc533          	xor	a0,t6,a0
    22e0:	11860713          	addi	a4,a2,280
    22e4:	01c81463          	bne	a6,t3,22ec <decrypt+0x64>
    22e8:	6dc0106f          	j	39c4 <decrypt+0x173c>
    22ec:	4e39                	li	t3,14
    22ee:	01c81463          	bne	a6,t3,22f6 <decrypt+0x6e>
    22f2:	0240106f          	j	3316 <decrypt+0x108e>
    22f6:	4629                	li	a2,10
    22f8:	02c80663          	beq	a6,a2,2324 <decrypt+0x9c>
    22fc:	c580                	sw	s0,8(a1)
    22fe:	5432                	lw	s0,44(sp)
    2300:	c5c8                	sw	a0,12(a1)
    2302:	0065a023          	sw	t1,0(a1)
    2306:	c1d4                	sw	a3,4(a1)
    2308:	54a2                	lw	s1,40(sp)
    230a:	5912                	lw	s2,36(sp)
    230c:	5982                	lw	s3,32(sp)
    230e:	4a72                	lw	s4,28(sp)
    2310:	4ae2                	lw	s5,24(sp)
    2312:	4b52                	lw	s6,20(sp)
    2314:	4bc2                	lw	s7,16(sp)
    2316:	4c32                	lw	s8,12(sp)
    2318:	4ca2                	lw	s9,8(sp)
    231a:	4d12                	lw	s10,4(sp)
    231c:	4d82                	lw	s11,0(sp)
    231e:	4505                	li	a0,1
    2320:	6145                	addi	sp,sp,48
    2322:	8082                	ret
    2324:	67a9                	lui	a5,0xa
    2326:	a6078793          	addi	a5,a5,-1440 # 9a60 <it_tab+0x38c>
    232a:	01845293          	srli	t0,s0,0x18
    232e:	01855f93          	srli	t6,a0,0x18
    2332:	01835f13          	srli	t5,t1,0x18
    2336:	0186d393          	srli	t2,a3,0x18
    233a:	0ff37b13          	andi	s6,t1,255
    233e:	00655c13          	srli	s8,a0,0x6
    2342:	0ff6fa93          	andi	s5,a3,255
    2346:	00635e93          	srli	t4,t1,0x6
    234a:	0ff47813          	andi	a6,s0,255
    234e:	0066de13          	srli	t3,a3,0x6
    2352:	0ff57b93          	andi	s7,a0,255
    2356:	00645613          	srli	a2,s0,0x6
    235a:	00229493          	slli	s1,t0,0x2
    235e:	002f9913          	slli	s2,t6,0x2
    2362:	002f1893          	slli	a7,t5,0x2
    2366:	038a                	slli	t2,t2,0x2
    2368:	009782b3          	add	t0,a5,s1
    236c:	01178f33          	add	t5,a5,a7
    2370:	93be                	add	t2,t2,a5
    2372:	01278fb3          	add	t6,a5,s2
    2376:	8039                	srli	s0,s0,0xe
    2378:	00e35313          	srli	t1,t1,0xe
    237c:	3fcc7c13          	andi	s8,s8,1020
    2380:	0a8a                	slli	s5,s5,0x2
    2382:	0b8a                	slli	s7,s7,0x2
    2384:	8139                	srli	a0,a0,0xe
    2386:	82b9                	srli	a3,a3,0xe
    2388:	0b0a                	slli	s6,s6,0x2
    238a:	3fcefe93          	andi	t4,t4,1020
    238e:	080a                	slli	a6,a6,0x2
    2390:	3fce7e13          	andi	t3,t3,1020
    2394:	3fc67613          	andi	a2,a2,1020
    2398:	c743aa03          	lw	s4,-908(t2)
    239c:	c742a983          	lw	s3,-908(t0)
    23a0:	c74fa903          	lw	s2,-908(t6)
    23a4:	c74f2483          	lw	s1,-908(t5)
    23a8:	01578fb3          	add	t6,a5,s5
    23ac:	9b3e                	add	s6,s6,a5
    23ae:	01878f33          	add	t5,a5,s8
    23b2:	9ebe                	add	t4,t4,a5
    23b4:	9e3e                	add	t3,t3,a5
    23b6:	3fc47893          	andi	a7,s0,1020
    23ba:	983e                	add	a6,a6,a5
    23bc:	01778433          	add	s0,a5,s7
    23c0:	3fc37a93          	andi	s5,t1,1020
    23c4:	963e                	add	a2,a2,a5
    23c6:	3fc57513          	andi	a0,a0,1020
    23ca:	3fc6f693          	andi	a3,a3,1020
    23ce:	c74ea383          	lw	t2,-908(t4)
    23d2:	c74e2283          	lw	t0,-908(t3)
    23d6:	c74b2e83          	lw	t4,-908(s6)
    23da:	c74fa303          	lw	t1,-908(t6)
    23de:	00c72d83          	lw	s11,12(a4)
    23e2:	c74f2f03          	lw	t5,-908(t5)
    23e6:	c7462603          	lw	a2,-908(a2)
    23ea:	00072c83          	lw	s9,0(a4)
    23ee:	00472f83          	lw	t6,4(a4)
    23f2:	c7482803          	lw	a6,-908(a6)
    23f6:	00872b03          	lw	s6,8(a4)
    23fa:	98be                	add	a7,a7,a5
    23fc:	953e                	add	a0,a0,a5
    23fe:	9abe                	add	s5,s5,a5
    2400:	c7442403          	lw	s0,-908(s0)
    2404:	96be                	add	a3,a3,a5
    2406:	c748ae03          	lw	t3,-908(a7)
    240a:	c746a683          	lw	a3,-908(a3)
    240e:	c7452883          	lw	a7,-908(a0)
    2412:	c74aa503          	lw	a0,-908(s5)
    2416:	008a5d13          	srli	s10,s4,0x8
    241a:	0089dc13          	srli	s8,s3,0x8
    241e:	00895b93          	srli	s7,s2,0x8
    2422:	0084da93          	srli	s5,s1,0x8
    2426:	0a62                	slli	s4,s4,0x18
    2428:	04e2                	slli	s1,s1,0x18
    242a:	09e2                	slli	s3,s3,0x18
    242c:	0962                	slli	s2,s2,0x18
    242e:	014d6a33          	or	s4,s10,s4
    2432:	013c69b3          	or	s3,s8,s3
    2436:	008f1d13          	slli	s10,t5,0x8
    243a:	00839c13          	slli	s8,t2,0x8
    243e:	012be933          	or	s2,s7,s2
    2442:	009aeab3          	or	s5,s5,s1
    2446:	00829b93          	slli	s7,t0,0x8
    244a:	019eccb3          	xor	s9,t4,s9
    244e:	01f34fb3          	xor	t6,t1,t6
    2452:	01684b33          	xor	s6,a6,s6
    2456:	01b44433          	xor	s0,s0,s11
    245a:	00861493          	slli	s1,a2,0x8
    245e:	018f5f13          	srli	t5,t5,0x18
    2462:	8261                	srli	a2,a2,0x18
    2464:	0183d393          	srli	t2,t2,0x18
    2468:	0182d293          	srli	t0,t0,0x18
    246c:	014cceb3          	xor	t4,s9,s4
    2470:	01ed6f33          	or	t5,s10,t5
    2474:	010e1a13          	slli	s4,t3,0x10
    2478:	013fc333          	xor	t1,t6,s3
    247c:	007c63b3          	or	t2,s8,t2
    2480:	012b4833          	xor	a6,s6,s2
    2484:	005be2b3          	or	t0,s7,t0
    2488:	01051913          	slli	s2,a0,0x10
    248c:	8cd1                	or	s1,s1,a2
    248e:	01089993          	slli	s3,a7,0x10
    2492:	01069613          	slli	a2,a3,0x10
    2496:	0108df93          	srli	t6,a7,0x10
    249a:	01544433          	xor	s0,s0,s5
    249e:	010e5e13          	srli	t3,t3,0x10
    24a2:	8141                	srli	a0,a0,0x10
    24a4:	82c1                	srli	a3,a3,0x10
    24a6:	01ca6e33          	or	t3,s4,t3
    24aa:	00734333          	xor	t1,t1,t2
    24ae:	01f9e8b3          	or	a7,s3,t6
    24b2:	00584833          	xor	a6,a6,t0
    24b6:	8c25                	xor	s0,s0,s1
    24b8:	01eeceb3          	xor	t4,t4,t5
    24bc:	00a96533          	or	a0,s2,a0
    24c0:	8ed1                	or	a3,a3,a2
    24c2:	01ceceb3          	xor	t4,t4,t3
    24c6:	00a84533          	xor	a0,a6,a0
    24ca:	8ea1                	xor	a3,a3,s0
    24cc:	011348b3          	xor	a7,t1,a7
    24d0:	0ffef993          	andi	s3,t4,255
    24d4:	0188d613          	srli	a2,a7,0x18
    24d8:	0066db13          	srli	s6,a3,0x6
    24dc:	00e55293          	srli	t0,a0,0xe
    24e0:	0ff8f913          	andi	s2,a7,255
    24e4:	01855a93          	srli	s5,a0,0x18
    24e8:	006ede13          	srli	t3,t4,0x6
    24ec:	00e6df93          	srli	t6,a3,0xe
    24f0:	0ff57493          	andi	s1,a0,255
    24f4:	0186d813          	srli	a6,a3,0x18
    24f8:	018eda13          	srli	s4,t4,0x18
    24fc:	0068d313          	srli	t1,a7,0x6
    2500:	0ff6f693          	andi	a3,a3,255
    2504:	8119                	srli	a0,a0,0x6
    2506:	098a                	slli	s3,s3,0x2
    2508:	060a                	slli	a2,a2,0x2
    250a:	3fcb7b13          	andi	s6,s6,1020
    250e:	3fc2f293          	andi	t0,t0,1020
    2512:	090a                	slli	s2,s2,0x2
    2514:	0a8a                	slli	s5,s5,0x2
    2516:	3fce7e13          	andi	t3,t3,1020
    251a:	3fcfff93          	andi	t6,t6,1020
    251e:	048a                	slli	s1,s1,0x2
    2520:	080a                	slli	a6,a6,0x2
    2522:	0a0a                	slli	s4,s4,0x2
    2524:	99be                	add	s3,s3,a5
    2526:	9b3e                	add	s6,s6,a5
    2528:	993e                	add	s2,s2,a5
    252a:	9abe                	add	s5,s5,a5
    252c:	94be                	add	s1,s1,a5
    252e:	9a3e                	add	s4,s4,a5
    2530:	963e                	add	a2,a2,a5
    2532:	92be                	add	t0,t0,a5
    2534:	9e3e                	add	t3,t3,a5
    2536:	9fbe                	add	t6,t6,a5
    2538:	983e                	add	a6,a6,a5
    253a:	00eedf13          	srli	t5,t4,0xe
    253e:	00269413          	slli	s0,a3,0x2
    2542:	3fc57393          	andi	t2,a0,1020
    2546:	3fc37313          	andi	t1,t1,1020
    254a:	00e8d893          	srli	a7,a7,0xe
    254e:	c74b2e83          	lw	t4,-908(s6)
    2552:	c74aa683          	lw	a3,-908(s5)
    2556:	c749ac03          	lw	s8,-908(s3)
    255a:	c7492b83          	lw	s7,-908(s2)
    255e:	c744ab03          	lw	s6,-908(s1)
    2562:	c7462603          	lw	a2,-908(a2)
    2566:	c742a283          	lw	t0,-908(t0)
    256a:	c74e2e03          	lw	t3,-908(t3)
    256e:	c74faf83          	lw	t6,-908(t6)
    2572:	01072983          	lw	s3,16(a4)
    2576:	01472903          	lw	s2,20(a4)
    257a:	4f04                	lw	s1,24(a4)
    257c:	943e                	add	s0,s0,a5
    257e:	c7482803          	lw	a6,-908(a6)
    2582:	933e                	add	t1,t1,a5
    2584:	c74a2503          	lw	a0,-908(s4)
    2588:	93be                	add	t2,t2,a5
    258a:	3fcf7f13          	andi	t5,t5,1020
    258e:	3fc8f893          	andi	a7,a7,1020
    2592:	c7442a03          	lw	s4,-908(s0)
    2596:	c7432303          	lw	t1,-908(t1)
    259a:	c743a383          	lw	t2,-908(t2)
    259e:	4f40                	lw	s0,28(a4)
    25a0:	9f3e                	add	t5,t5,a5
    25a2:	98be                	add	a7,a7,a5
    25a4:	c74f2f03          	lw	t5,-908(t5)
    25a8:	c748a883          	lw	a7,-908(a7)
    25ac:	00865d13          	srli	s10,a2,0x8
    25b0:	00885a93          	srli	s5,a6,0x8
    25b4:	00855d93          	srli	s11,a0,0x8
    25b8:	0086dc93          	srli	s9,a3,0x8
    25bc:	0662                	slli	a2,a2,0x18
    25be:	06e2                	slli	a3,a3,0x18
    25c0:	0862                	slli	a6,a6,0x18
    25c2:	0562                	slli	a0,a0,0x18
    25c4:	00cd6633          	or	a2,s10,a2
    25c8:	00dcecb3          	or	s9,s9,a3
    25cc:	009b44b3          	xor	s1,s6,s1
    25d0:	00831d13          	slli	s10,t1,0x8
    25d4:	008a4433          	xor	s0,s4,s0
    25d8:	013c49b3          	xor	s3,s8,s3
    25dc:	012bc933          	xor	s2,s7,s2
    25e0:	008e9c13          	slli	s8,t4,0x8
    25e4:	008e1b93          	slli	s7,t3,0x8
    25e8:	010ae833          	or	a6,s5,a6
    25ec:	00ade533          	or	a0,s11,a0
    25f0:	00839b13          	slli	s6,t2,0x8
    25f4:	018ede93          	srli	t4,t4,0x18
    25f8:	0183d393          	srli	t2,t2,0x18
    25fc:	018e5e13          	srli	t3,t3,0x18
    2600:	01835313          	srli	t1,t1,0x18
    2604:	00c9c9b3          	xor	s3,s3,a2
    2608:	01029a93          	slli	s5,t0,0x10
    260c:	01994933          	xor	s2,s2,s9
    2610:	01cbee33          	or	t3,s7,t3
    2614:	010f9613          	slli	a2,t6,0x10
    2618:	006d6333          	or	t1,s10,t1
    261c:	010f1b93          	slli	s7,t5,0x10
    2620:	007b6b33          	or	s6,s6,t2
    2624:	01dc6eb3          	or	t4,s8,t4
    2628:	01089393          	slli	t2,a7,0x10
    262c:	0104c833          	xor	a6,s1,a6
    2630:	8d21                	xor	a0,a0,s0
    2632:	0102d293          	srli	t0,t0,0x10
    2636:	010fdf93          	srli	t6,t6,0x10
    263a:	010f5f13          	srli	t5,t5,0x10
    263e:	0108d893          	srli	a7,a7,0x10
    2642:	01d9ceb3          	xor	t4,s3,t4
    2646:	01c946b3          	xor	a3,s2,t3
    264a:	01f66fb3          	or	t6,a2,t6
    264e:	01ebef33          	or	t5,s7,t5
    2652:	01654533          	xor	a0,a0,s6
    2656:	005ae2b3          	or	t0,s5,t0
    265a:	00684833          	xor	a6,a6,t1
    265e:	0113e8b3          	or	a7,t2,a7
    2662:	01e84833          	xor	a6,a6,t5
    2666:	005ec2b3          	xor	t0,t4,t0
    266a:	01f6c6b3          	xor	a3,a3,t6
    266e:	011548b3          	xor	a7,a0,a7
    2672:	0186df13          	srli	t5,a3,0x18
    2676:	01885f93          	srli	t6,a6,0x18
    267a:	0188d413          	srli	s0,a7,0x18
    267e:	0182d393          	srli	t2,t0,0x18
    2682:	0ff2fb93          	andi	s7,t0,255
    2686:	0068db13          	srli	s6,a7,0x6
    268a:	0ff6fa93          	andi	s5,a3,255
    268e:	0062de93          	srli	t4,t0,0x6
    2692:	0ff87a13          	andi	s4,a6,255
    2696:	0066de13          	srli	t3,a3,0x6
    269a:	0ff8f913          	andi	s2,a7,255
    269e:	00685493          	srli	s1,a6,0x6
    26a2:	0f0a                	slli	t5,t5,0x2
    26a4:	0f8a                	slli	t6,t6,0x2
    26a6:	040a                	slli	s0,s0,0x2
    26a8:	038a                	slli	t2,t2,0x2
    26aa:	9f3e                	add	t5,t5,a5
    26ac:	9fbe                	add	t6,t6,a5
    26ae:	943e                	add	s0,s0,a5
    26b0:	93be                	add	t2,t2,a5
    26b2:	0b8a                	slli	s7,s7,0x2
    26b4:	3fcb7b13          	andi	s6,s6,1020
    26b8:	00e85313          	srli	t1,a6,0xe
    26bc:	00e8d513          	srli	a0,a7,0xe
    26c0:	00e2d613          	srli	a2,t0,0xe
    26c4:	00291893          	slli	a7,s2,0x2
    26c8:	3fc4f813          	andi	a6,s1,1020
    26cc:	0a8a                	slli	s5,s5,0x2
    26ce:	3fcefe93          	andi	t4,t4,1020
    26d2:	0a0a                	slli	s4,s4,0x2
    26d4:	3fce7e13          	andi	t3,t3,1020
    26d8:	82b9                	srli	a3,a3,0xe
    26da:	c74f2983          	lw	s3,-908(t5)
    26de:	c74fa903          	lw	s2,-908(t6)
    26e2:	c7442483          	lw	s1,-908(s0)
    26e6:	01678fb3          	add	t6,a5,s6
    26ea:	c743a403          	lw	s0,-908(t2)
    26ee:	01778f33          	add	t5,a5,s7
    26f2:	9abe                	add	s5,s5,a5
    26f4:	9ebe                	add	t4,t4,a5
    26f6:	9a3e                	add	s4,s4,a5
    26f8:	9e3e                	add	t3,t3,a5
    26fa:	98be                	add	a7,a7,a5
    26fc:	983e                	add	a6,a6,a5
    26fe:	3fc37313          	andi	t1,t1,1020
    2702:	3fc57513          	andi	a0,a0,1020
    2706:	3fc67613          	andi	a2,a2,1020
    270a:	3fc6f693          	andi	a3,a3,1020
    270e:	c74fa383          	lw	t2,-908(t6)
    2712:	c74ea283          	lw	t0,-908(t4)
    2716:	c74e2f83          	lw	t6,-908(t3)
    271a:	c74aae83          	lw	t4,-908(s5)
    271e:	c74a2e03          	lw	t3,-908(s4)
    2722:	02c72d83          	lw	s11,44(a4)
    2726:	c7482803          	lw	a6,-908(a6)
    272a:	c74f2f03          	lw	t5,-908(t5)
    272e:	02072c83          	lw	s9,32(a4)
    2732:	02472b83          	lw	s7,36(a4)
    2736:	02872a83          	lw	s5,40(a4)
    273a:	c748a883          	lw	a7,-908(a7)
    273e:	933e                	add	t1,t1,a5
    2740:	953e                	add	a0,a0,a5
    2742:	963e                	add	a2,a2,a5
    2744:	96be                	add	a3,a3,a5
    2746:	c7432303          	lw	t1,-908(t1)
    274a:	c7452503          	lw	a0,-908(a0)
    274e:	c7462603          	lw	a2,-908(a2)
    2752:	c746a683          	lw	a3,-908(a3)
    2756:	0089dd13          	srli	s10,s3,0x8
    275a:	00895c13          	srli	s8,s2,0x8
    275e:	0084db13          	srli	s6,s1,0x8
    2762:	00845a13          	srli	s4,s0,0x8
    2766:	09e2                	slli	s3,s3,0x18
    2768:	0462                	slli	s0,s0,0x18
    276a:	0962                	slli	s2,s2,0x18
    276c:	04e2                	slli	s1,s1,0x18
    276e:	013d69b3          	or	s3,s10,s3
    2772:	012c6933          	or	s2,s8,s2
    2776:	00839d13          	slli	s10,t2,0x8
    277a:	00829c13          	slli	s8,t0,0x8
    277e:	009b64b3          	or	s1,s6,s1
    2782:	008a6a33          	or	s4,s4,s0
    2786:	008f9b13          	slli	s6,t6,0x8
    278a:	019f4cb3          	xor	s9,t5,s9
    278e:	017ecbb3          	xor	s7,t4,s7
    2792:	015e4ab3          	xor	s5,t3,s5
    2796:	01b8c8b3          	xor	a7,a7,s11
    279a:	00881413          	slli	s0,a6,0x8
    279e:	0183d393          	srli	t2,t2,0x18
    27a2:	01885813          	srli	a6,a6,0x18
    27a6:	0182d293          	srli	t0,t0,0x18
    27aa:	018fdf93          	srli	t6,t6,0x18
    27ae:	013ccf33          	xor	t5,s9,s3
    27b2:	007d63b3          	or	t2,s10,t2
    27b6:	01031993          	slli	s3,t1,0x10
    27ba:	012bceb3          	xor	t4,s7,s2
    27be:	005c62b3          	or	t0,s8,t0
    27c2:	01051913          	slli	s2,a0,0x10
    27c6:	009ace33          	xor	t3,s5,s1
    27ca:	01fb6fb3          	or	t6,s6,t6
    27ce:	01061493          	slli	s1,a2,0x10
    27d2:	01046433          	or	s0,s0,a6
    27d6:	0148c8b3          	xor	a7,a7,s4
    27da:	01069813          	slli	a6,a3,0x10
    27de:	01035313          	srli	t1,t1,0x10
    27e2:	8141                	srli	a0,a0,0x10
    27e4:	8241                	srli	a2,a2,0x10
    27e6:	82c1                	srli	a3,a3,0x10
    27e8:	007f4f33          	xor	t5,t5,t2
    27ec:	005eceb3          	xor	t4,t4,t0
    27f0:	01fe4e33          	xor	t3,t3,t6
    27f4:	0088c8b3          	xor	a7,a7,s0
    27f8:	0069e333          	or	t1,s3,t1
    27fc:	00a96533          	or	a0,s2,a0
    2800:	8e45                	or	a2,a2,s1
    2802:	00d866b3          	or	a3,a6,a3
    2806:	00d8c6b3          	xor	a3,a7,a3
    280a:	006f4333          	xor	t1,t5,t1
    280e:	00aec533          	xor	a0,t4,a0
    2812:	00ce4633          	xor	a2,t3,a2
    2816:	0ff37293          	andi	t0,t1,255
    281a:	01855f93          	srli	t6,a0,0x18
    281e:	0066df13          	srli	t5,a3,0x6
    2822:	00e65e93          	srli	t4,a2,0xe
    2826:	01865e13          	srli	t3,a2,0x18
    282a:	0186d493          	srli	s1,a3,0x18
    282e:	00635893          	srli	a7,t1,0x6
    2832:	0ff67413          	andi	s0,a2,255
    2836:	01835393          	srli	t2,t1,0x18
    283a:	028a                	slli	t0,t0,0x2
    283c:	0ff57b13          	andi	s6,a0,255
    2840:	0e0a                	slli	t3,t3,0x2
    2842:	00655813          	srli	a6,a0,0x6
    2846:	0f8a                	slli	t6,t6,0x2
    2848:	3fcf7f13          	andi	t5,t5,1020
    284c:	3fcefe93          	andi	t4,t4,1020
    2850:	048a                	slli	s1,s1,0x2
    2852:	005789b3          	add	s3,a5,t0
    2856:	01c78933          	add	s2,a5,t3
    285a:	9fbe                	add	t6,t6,a5
    285c:	9f3e                	add	t5,t5,a5
    285e:	9ebe                	add	t4,t4,a5
    2860:	94be                	add	s1,s1,a5
    2862:	3fc8f293          	andi	t0,a7,1020
    2866:	00241e13          	slli	t3,s0,0x2
    286a:	038a                	slli	t2,t2,0x2
    286c:	0b0a                	slli	s6,s6,0x2
    286e:	3fc87813          	andi	a6,a6,1020
    2872:	00e35313          	srli	t1,t1,0xe
    2876:	c74f2403          	lw	s0,-908(t5)
    287a:	c74faa03          	lw	s4,-908(t6)
    287e:	03072c83          	lw	s9,48(a4)
    2882:	93be                	add	t2,t2,a5
    2884:	9b3e                	add	s6,s6,a5
    2886:	92be                	add	t0,t0,a5
    2888:	983e                	add	a6,a6,a5
    288a:	0ff6fa93          	andi	s5,a3,255
    288e:	00e6d893          	srli	a7,a3,0xe
    2892:	9e3e                	add	t3,t3,a5
    2894:	c749a683          	lw	a3,-908(s3)
    2898:	3fc37313          	andi	t1,t1,1020
    289c:	c74eaf83          	lw	t6,-908(t4)
    28a0:	c7492983          	lw	s3,-908(s2)
    28a4:	c744a903          	lw	s2,-908(s1)
    28a8:	c74b2e83          	lw	t4,-908(s6)
    28ac:	c743a483          	lw	s1,-908(t2)
    28b0:	c74e2e03          	lw	t3,-908(t3)
    28b4:	c742a383          	lw	t2,-908(t0)
    28b8:	03872b03          	lw	s6,56(a4)
    28bc:	c7482283          	lw	t0,-908(a6)
    28c0:	933e                	add	t1,t1,a5
    28c2:	8219                	srli	a2,a2,0x6
    28c4:	c7432303          	lw	t1,-908(t1)
    28c8:	0a8a                	slli	s5,s5,0x2
    28ca:	3fc67613          	andi	a2,a2,1020
    28ce:	9abe                	add	s5,s5,a5
    28d0:	963e                	add	a2,a2,a5
    28d2:	00895b93          	srli	s7,s2,0x8
    28d6:	8139                	srli	a0,a0,0xe
    28d8:	3fc8f893          	andi	a7,a7,1020
    28dc:	0962                	slli	s2,s2,0x18
    28de:	c7462803          	lw	a6,-908(a2)
    28e2:	03c72d83          	lw	s11,60(a4)
    28e6:	03472f03          	lw	t5,52(a4)
    28ea:	c74aa603          	lw	a2,-908(s5)
    28ee:	008a5d13          	srli	s10,s4,0x8
    28f2:	012be933          	or	s2,s7,s2
    28f6:	98be                	add	a7,a7,a5
    28f8:	00829b93          	slli	s7,t0,0x8
    28fc:	016e4b33          	xor	s6,t3,s6
    2900:	3fc57513          	andi	a0,a0,1020
    2904:	0a62                	slli	s4,s4,0x18
    2906:	0182d293          	srli	t0,t0,0x18
    290a:	c748a883          	lw	a7,-908(a7)
    290e:	014d6a33          	or	s4,s10,s4
    2912:	012b4e33          	xor	t3,s6,s2
    2916:	00841d13          	slli	s10,s0,0x8
    291a:	005be2b3          	or	t0,s7,t0
    291e:	01031913          	slli	s2,t1,0x10
    2922:	953e                	add	a0,a0,a5
    2924:	0196ccb3          	xor	s9,a3,s9
    2928:	8061                	srli	s0,s0,0x18
    292a:	01035313          	srli	t1,t1,0x10
    292e:	c7452503          	lw	a0,-908(a0)
    2932:	0089dc13          	srli	s8,s3,0x8
    2936:	014cc6b3          	xor	a3,s9,s4
    293a:	008d6433          	or	s0,s10,s0
    293e:	010f9a13          	slli	s4,t6,0x10
    2942:	005e4e33          	xor	t3,t3,t0
    2946:	0084da93          	srli	s5,s1,0x8
    294a:	00696333          	or	t1,s2,t1
    294e:	04e2                	slli	s1,s1,0x18
    2950:	09e2                	slli	s3,s3,0x18
    2952:	010fdf93          	srli	t6,t6,0x10
    2956:	006e4333          	xor	t1,t3,t1
    295a:	013c69b3          	or	s3,s8,s3
    295e:	009aeab3          	or	s5,s5,s1
    2962:	00839c13          	slli	s8,t2,0x8
    2966:	01fa6fb3          	or	t6,s4,t6
    296a:	01eecf33          	xor	t5,t4,t5
    296e:	01b64633          	xor	a2,a2,s11
    2972:	8ea1                	xor	a3,a3,s0
    2974:	0183d393          	srli	t2,t2,0x18
    2978:	01f6c6b3          	xor	a3,a3,t6
    297c:	013f4eb3          	xor	t4,t5,s3
    2980:	007c63b3          	or	t2,s8,t2
    2984:	00881493          	slli	s1,a6,0x8
    2988:	01089993          	slli	s3,a7,0x10
    298c:	01885813          	srli	a6,a6,0x18
    2990:	0108df13          	srli	t5,a7,0x10
    2994:	01564633          	xor	a2,a2,s5
    2998:	01835a93          	srli	s5,t1,0x18
    299c:	0104e4b3          	or	s1,s1,a6
    29a0:	007eceb3          	xor	t4,t4,t2
    29a4:	01051813          	slli	a6,a0,0x10
    29a8:	01e9e8b3          	or	a7,s3,t5
    29ac:	0066de13          	srli	t3,a3,0x6
    29b0:	0ff6f993          	andi	s3,a3,255
    29b4:	00e6df13          	srli	t5,a3,0xe
    29b8:	8141                	srli	a0,a0,0x10
    29ba:	82e1                	srli	a3,a3,0x18
    29bc:	0a8a                	slli	s5,s5,0x2
    29be:	011ec8b3          	xor	a7,t4,a7
    29c2:	00a86533          	or	a0,a6,a0
    29c6:	9abe                	add	s5,s5,a5
    29c8:	8e25                	xor	a2,a2,s1
    29ca:	068a                	slli	a3,a3,0x2
    29cc:	8e29                	xor	a2,a2,a0
    29ce:	0188d493          	srli	s1,a7,0x18
    29d2:	00d78533          	add	a0,a5,a3
    29d6:	c74aa683          	lw	a3,-908(s5)
    29da:	00665e93          	srli	t4,a2,0x6
    29de:	00e35293          	srli	t0,t1,0xe
    29e2:	0ff8f913          	andi	s2,a7,255
    29e6:	00e65f93          	srli	t6,a2,0xe
    29ea:	0ff37413          	andi	s0,t1,255
    29ee:	01865813          	srli	a6,a2,0x18
    29f2:	0068da13          	srli	s4,a7,0x6
    29f6:	00635313          	srli	t1,t1,0x6
    29fa:	0ff67613          	andi	a2,a2,255
    29fe:	048a                	slli	s1,s1,0x2
    2a00:	00e8d893          	srli	a7,a7,0xe
    2a04:	94be                	add	s1,s1,a5
    2a06:	3fc37393          	andi	t2,t1,1020
    2a0a:	098a                	slli	s3,s3,0x2
    2a0c:	3fcefe93          	andi	t4,t4,1020
    2a10:	3fc2f293          	andi	t0,t0,1020
    2a14:	090a                	slli	s2,s2,0x2
    2a16:	3fce7e13          	andi	t3,t3,1020
    2a1a:	3fcfff93          	andi	t6,t6,1020
    2a1e:	040a                	slli	s0,s0,0x2
    2a20:	080a                	slli	a6,a6,0x2
    2a22:	3fca7a13          	andi	s4,s4,1020
    2a26:	3fcf7f13          	andi	t5,t5,1020
    2a2a:	060a                	slli	a2,a2,0x2
    2a2c:	3fc8f893          	andi	a7,a7,1020
    2a30:	c744a483          	lw	s1,-908(s1)
    2a34:	99be                	add	s3,s3,a5
    2a36:	993e                	add	s2,s2,a5
    2a38:	943e                	add	s0,s0,a5
    2a3a:	9a3e                	add	s4,s4,a5
    2a3c:	963e                	add	a2,a2,a5
    2a3e:	9ebe                	add	t4,t4,a5
    2a40:	92be                	add	t0,t0,a5
    2a42:	9e3e                	add	t3,t3,a5
    2a44:	9fbe                	add	t6,t6,a5
    2a46:	983e                	add	a6,a6,a5
    2a48:	9f3e                	add	t5,t5,a5
    2a4a:	93be                	add	t2,t2,a5
    2a4c:	98be                	add	a7,a7,a5
    2a4e:	0086da93          	srli	s5,a3,0x8
    2a52:	06e2                	slli	a3,a3,0x18
    2a54:	c74a2303          	lw	t1,-908(s4)
    2a58:	c74eae83          	lw	t4,-908(t4)
    2a5c:	c742a283          	lw	t0,-908(t0)
    2a60:	c74e2e03          	lw	t3,-908(t3)
    2a64:	c74faf83          	lw	t6,-908(t6)
    2a68:	c7482803          	lw	a6,-908(a6)
    2a6c:	c74f2f03          	lw	t5,-908(t5)
    2a70:	c749aa03          	lw	s4,-908(s3)
    2a74:	c7452503          	lw	a0,-908(a0)
    2a78:	c7492983          	lw	s3,-908(s2)
    2a7c:	c743a383          	lw	t2,-908(t2)
    2a80:	c7442903          	lw	s2,-908(s0)
    2a84:	c748a883          	lw	a7,-908(a7)
    2a88:	c7462403          	lw	s0,-908(a2)
    2a8c:	00daeab3          	or	s5,s5,a3
    2a90:	04072c03          	lw	s8,64(a4)
    2a94:	4734                	lw	a3,72(a4)
    2a96:	0084db13          	srli	s6,s1,0x8
    2a9a:	01849613          	slli	a2,s1,0x18
    2a9e:	00cb6633          	or	a2,s6,a2
    2aa2:	00d94933          	xor	s2,s2,a3
    2aa6:	04472b03          	lw	s6,68(a4)
    2aaa:	4774                	lw	a3,76(a4)
    2aac:	00885493          	srli	s1,a6,0x8
    2ab0:	00855b93          	srli	s7,a0,0x8
    2ab4:	0862                	slli	a6,a6,0x18
    2ab6:	0562                	slli	a0,a0,0x18
    2ab8:	008e1c93          	slli	s9,t3,0x8
    2abc:	00831d13          	slli	s10,t1,0x8
    2ac0:	8c35                	xor	s0,s0,a3
    2ac2:	018a4a33          	xor	s4,s4,s8
    2ac6:	0169c9b3          	xor	s3,s3,s6
    2aca:	008e9c13          	slli	s8,t4,0x8
    2ace:	0104e833          	or	a6,s1,a6
    2ad2:	00abe533          	or	a0,s7,a0
    2ad6:	00839493          	slli	s1,t2,0x8
    2ada:	018ede93          	srli	t4,t4,0x18
    2ade:	018e5e13          	srli	t3,t3,0x18
    2ae2:	01835313          	srli	t1,t1,0x18
    2ae6:	0183d393          	srli	t2,t2,0x18
    2aea:	00ca4a33          	xor	s4,s4,a2
    2aee:	01029d93          	slli	s11,t0,0x10
    2af2:	0159c9b3          	xor	s3,s3,s5
    2af6:	01ccee33          	or	t3,s9,t3
    2afa:	010f9613          	slli	a2,t6,0x10
    2afe:	006d6333          	or	t1,s10,t1
    2b02:	010f1a93          	slli	s5,t5,0x10
    2b06:	0074e3b3          	or	t2,s1,t2
    2b0a:	01dc6eb3          	or	t4,s8,t4
    2b0e:	01094833          	xor	a6,s2,a6
    2b12:	01089c13          	slli	s8,a7,0x10
    2b16:	8d21                	xor	a0,a0,s0
    2b18:	0102d293          	srli	t0,t0,0x10
    2b1c:	010fdf93          	srli	t6,t6,0x10
    2b20:	010f5f13          	srli	t5,t5,0x10
    2b24:	0108d893          	srli	a7,a7,0x10
    2b28:	01da4eb3          	xor	t4,s4,t4
    2b2c:	01c9c6b3          	xor	a3,s3,t3
    2b30:	01f66fb3          	or	t6,a2,t6
    2b34:	00684833          	xor	a6,a6,t1
    2b38:	00754533          	xor	a0,a0,t2
    2b3c:	005de2b3          	or	t0,s11,t0
    2b40:	01eaef33          	or	t5,s5,t5
    2b44:	011c68b3          	or	a7,s8,a7
    2b48:	005ec2b3          	xor	t0,t4,t0
    2b4c:	01f6c6b3          	xor	a3,a3,t6
    2b50:	01e84f33          	xor	t5,a6,t5
    2b54:	011548b3          	xor	a7,a0,a7
    2b58:	0186dc93          	srli	s9,a3,0x18
    2b5c:	018f5c13          	srli	s8,t5,0x18
    2b60:	0188d413          	srli	s0,a7,0x18
    2b64:	0182d393          	srli	t2,t0,0x18
    2b68:	0ff2f313          	andi	t1,t0,255
    2b6c:	0068df93          	srli	t6,a7,0x6
    2b70:	0ff6fa93          	andi	s5,a3,255
    2b74:	0062de93          	srli	t4,t0,0x6
    2b78:	0fff7b13          	andi	s6,t5,255
    2b7c:	0066de13          	srli	t3,a3,0x6
    2b80:	0ff8fa13          	andi	s4,a7,255
    2b84:	006f5513          	srli	a0,t5,0x6
    2b88:	0c8a                	slli	s9,s9,0x2
    2b8a:	0c0a                	slli	s8,s8,0x2
    2b8c:	040a                	slli	s0,s0,0x2
    2b8e:	038a                	slli	t2,t2,0x2
    2b90:	9cbe                	add	s9,s9,a5
    2b92:	9c3e                	add	s8,s8,a5
    2b94:	943e                	add	s0,s0,a5
    2b96:	93be                	add	t2,t2,a5
    2b98:	030a                	slli	t1,t1,0x2
    2b9a:	00ef5813          	srli	a6,t5,0xe
    2b9e:	00e8d893          	srli	a7,a7,0xe
    2ba2:	0b0a                	slli	s6,s6,0x2
    2ba4:	00e2d613          	srli	a2,t0,0xe
    2ba8:	3fcfff93          	andi	t6,t6,1020
    2bac:	0a8a                	slli	s5,s5,0x2
    2bae:	3fcefe93          	andi	t4,t4,1020
    2bb2:	3fce7e13          	andi	t3,t3,1020
    2bb6:	0a0a                	slli	s4,s4,0x2
    2bb8:	3fc57513          	andi	a0,a0,1020
    2bbc:	82b9                	srli	a3,a3,0xe
    2bbe:	c74ca983          	lw	s3,-908(s9)
    2bc2:	c7442483          	lw	s1,-908(s0)
    2bc6:	c74c2903          	lw	s2,-908(s8)
    2bca:	c743a403          	lw	s0,-908(t2)
    2bce:	00678f33          	add	t5,a5,t1
    2bd2:	9fbe                	add	t6,t6,a5
    2bd4:	9abe                	add	s5,s5,a5
    2bd6:	9ebe                	add	t4,t4,a5
    2bd8:	9e3e                	add	t3,t3,a5
    2bda:	9a3e                	add	s4,s4,a5
    2bdc:	3fc8f313          	andi	t1,a7,1020
    2be0:	953e                	add	a0,a0,a5
    2be2:	016788b3          	add	a7,a5,s6
    2be6:	3fc87813          	andi	a6,a6,1020
    2bea:	3fc67613          	andi	a2,a2,1020
    2bee:	3fc6f693          	andi	a3,a3,1020
    2bf2:	c74fa383          	lw	t2,-908(t6)
    2bf6:	c74ea283          	lw	t0,-908(t4)
    2bfa:	c74e2f83          	lw	t6,-908(t3)
    2bfe:	c74aae83          	lw	t4,-908(s5)
    2c02:	05c72d83          	lw	s11,92(a4)
    2c06:	c7452503          	lw	a0,-908(a0)
    2c0a:	c74f2f03          	lw	t5,-908(t5)
    2c0e:	05072c83          	lw	s9,80(a4)
    2c12:	05472b83          	lw	s7,84(a4)
    2c16:	c748a883          	lw	a7,-908(a7)
    2c1a:	05872a83          	lw	s5,88(a4)
    2c1e:	c74a2e03          	lw	t3,-908(s4)
    2c22:	983e                	add	a6,a6,a5
    2c24:	933e                	add	t1,t1,a5
    2c26:	963e                	add	a2,a2,a5
    2c28:	96be                	add	a3,a3,a5
    2c2a:	c7482803          	lw	a6,-908(a6)
    2c2e:	c7432303          	lw	t1,-908(t1)
    2c32:	c7462603          	lw	a2,-908(a2)
    2c36:	c746a683          	lw	a3,-908(a3)
    2c3a:	0089dd13          	srli	s10,s3,0x8
    2c3e:	00895c13          	srli	s8,s2,0x8
    2c42:	0084db13          	srli	s6,s1,0x8
    2c46:	00845a13          	srli	s4,s0,0x8
    2c4a:	09e2                	slli	s3,s3,0x18
    2c4c:	0462                	slli	s0,s0,0x18
    2c4e:	0962                	slli	s2,s2,0x18
    2c50:	04e2                	slli	s1,s1,0x18
    2c52:	013d69b3          	or	s3,s10,s3
    2c56:	012c6933          	or	s2,s8,s2
    2c5a:	00839d13          	slli	s10,t2,0x8
    2c5e:	00829c13          	slli	s8,t0,0x8
    2c62:	009b64b3          	or	s1,s6,s1
    2c66:	008a6a33          	or	s4,s4,s0
    2c6a:	008f9b13          	slli	s6,t6,0x8
    2c6e:	019f4cb3          	xor	s9,t5,s9
    2c72:	017ecbb3          	xor	s7,t4,s7
    2c76:	0158cab3          	xor	s5,a7,s5
    2c7a:	01be4e33          	xor	t3,t3,s11
    2c7e:	00851413          	slli	s0,a0,0x8
    2c82:	0183d393          	srli	t2,t2,0x18
    2c86:	8161                	srli	a0,a0,0x18
    2c88:	0182d293          	srli	t0,t0,0x18
    2c8c:	018fdf93          	srli	t6,t6,0x18
    2c90:	013ccf33          	xor	t5,s9,s3
    2c94:	007d63b3          	or	t2,s10,t2
    2c98:	01081993          	slli	s3,a6,0x10
    2c9c:	012bceb3          	xor	t4,s7,s2
    2ca0:	005c62b3          	or	t0,s8,t0
    2ca4:	01031913          	slli	s2,t1,0x10
    2ca8:	009ac8b3          	xor	a7,s5,s1
    2cac:	01fb6fb3          	or	t6,s6,t6
    2cb0:	01061493          	slli	s1,a2,0x10
    2cb4:	8c49                	or	s0,s0,a0
    2cb6:	014e4e33          	xor	t3,t3,s4
    2cba:	01069513          	slli	a0,a3,0x10
    2cbe:	01085813          	srli	a6,a6,0x10
    2cc2:	01035313          	srli	t1,t1,0x10
    2cc6:	8241                	srli	a2,a2,0x10
    2cc8:	82c1                	srli	a3,a3,0x10
    2cca:	007f4f33          	xor	t5,t5,t2
    2cce:	005eceb3          	xor	t4,t4,t0
    2cd2:	01f8c8b3          	xor	a7,a7,t6
    2cd6:	008e4e33          	xor	t3,t3,s0
    2cda:	0109e833          	or	a6,s3,a6
    2cde:	00696333          	or	t1,s2,t1
    2ce2:	8e45                	or	a2,a2,s1
    2ce4:	8ec9                	or	a3,a3,a0
    2ce6:	006ec333          	xor	t1,t4,t1
    2cea:	00c8c633          	xor	a2,a7,a2
    2cee:	00de46b3          	xor	a3,t3,a3
    2cf2:	010f4833          	xor	a6,t5,a6
    2cf6:	0ff87f13          	andi	t5,a6,255
    2cfa:	01835993          	srli	s3,t1,0x18
    2cfe:	0066d393          	srli	t2,a3,0x6
    2d02:	00e65913          	srli	s2,a2,0xe
    2d06:	0ff37e93          	andi	t4,t1,255
    2d0a:	01865493          	srli	s1,a2,0x18
    2d0e:	00685293          	srli	t0,a6,0x6
    2d12:	0186d413          	srli	s0,a3,0x18
    2d16:	01885f93          	srli	t6,a6,0x18
    2d1a:	0ff67a13          	andi	s4,a2,255
    2d1e:	00635893          	srli	a7,t1,0x6
    2d22:	0ff6f513          	andi	a0,a3,255
    2d26:	0f8a                	slli	t6,t6,0x2
    2d28:	0f0a                	slli	t5,t5,0x2
    2d2a:	098a                	slli	s3,s3,0x2
    2d2c:	3fc3f393          	andi	t2,t2,1020
    2d30:	3fc97913          	andi	s2,s2,1020
    2d34:	0e8a                	slli	t4,t4,0x2
    2d36:	048a                	slli	s1,s1,0x2
    2d38:	3fc2f293          	andi	t0,t0,1020
    2d3c:	040a                	slli	s0,s0,0x2
    2d3e:	8219                	srli	a2,a2,0x6
    2d40:	993e                	add	s2,s2,a5
    2d42:	94be                	add	s1,s1,a5
    2d44:	943e                	add	s0,s0,a5
    2d46:	9f3e                	add	t5,t5,a5
    2d48:	99be                	add	s3,s3,a5
    2d4a:	93be                	add	t2,t2,a5
    2d4c:	9ebe                	add	t4,t4,a5
    2d4e:	92be                	add	t0,t0,a5
    2d50:	00e6de13          	srli	t3,a3,0xe
    2d54:	0a0a                	slli	s4,s4,0x2
    2d56:	01f786b3          	add	a3,a5,t6
    2d5a:	3fc8f893          	andi	a7,a7,1020
    2d5e:	00e35f93          	srli	t6,t1,0xe
    2d62:	00e85813          	srli	a6,a6,0xe
    2d66:	050a                	slli	a0,a0,0x2
    2d68:	3fc67613          	andi	a2,a2,1020
    2d6c:	c7492303          	lw	t1,-908(s2)
    2d70:	c749a983          	lw	s3,-908(s3)
    2d74:	c744a903          	lw	s2,-908(s1)
    2d78:	c743a383          	lw	t2,-908(t2)
    2d7c:	c74f2f03          	lw	t5,-908(t5)
    2d80:	06072c83          	lw	s9,96(a4)
    2d84:	c74eae83          	lw	t4,-908(t4)
    2d88:	06472b83          	lw	s7,100(a4)
    2d8c:	9a3e                	add	s4,s4,a5
    2d8e:	c742a283          	lw	t0,-908(t0)
    2d92:	98be                	add	a7,a7,a5
    2d94:	c7442483          	lw	s1,-908(s0)
    2d98:	953e                	add	a0,a0,a5
    2d9a:	c746a403          	lw	s0,-908(a3)
    2d9e:	963e                	add	a2,a2,a5
    2da0:	3fcff693          	andi	a3,t6,1020
    2da4:	3fce7e13          	andi	t3,t3,1020
    2da8:	3fc87813          	andi	a6,a6,1020
    2dac:	c748af83          	lw	t6,-908(a7)
    2db0:	06c72d83          	lw	s11,108(a4)
    2db4:	c74a2883          	lw	a7,-908(s4)
    2db8:	c7462603          	lw	a2,-908(a2)
    2dbc:	06872a83          	lw	s5,104(a4)
    2dc0:	c7452503          	lw	a0,-908(a0)
    2dc4:	9e3e                	add	t3,t3,a5
    2dc6:	983e                	add	a6,a6,a5
    2dc8:	96be                	add	a3,a3,a5
    2dca:	c74e2e03          	lw	t3,-908(t3)
    2dce:	c7482803          	lw	a6,-908(a6)
    2dd2:	c746a683          	lw	a3,-908(a3)
    2dd6:	0089dd13          	srli	s10,s3,0x8
    2dda:	00895c13          	srli	s8,s2,0x8
    2dde:	0084db13          	srli	s6,s1,0x8
    2de2:	00845a13          	srli	s4,s0,0x8
    2de6:	09e2                	slli	s3,s3,0x18
    2de8:	0462                	slli	s0,s0,0x18
    2dea:	0962                	slli	s2,s2,0x18
    2dec:	04e2                	slli	s1,s1,0x18
    2dee:	013d69b3          	or	s3,s10,s3
    2df2:	012c6933          	or	s2,s8,s2
    2df6:	00839d13          	slli	s10,t2,0x8
    2dfa:	00829c13          	slli	s8,t0,0x8
    2dfe:	009b64b3          	or	s1,s6,s1
    2e02:	008a6a33          	or	s4,s4,s0
    2e06:	008f9b13          	slli	s6,t6,0x8
    2e0a:	019f4cb3          	xor	s9,t5,s9
    2e0e:	017ecbb3          	xor	s7,t4,s7
    2e12:	0158cab3          	xor	s5,a7,s5
    2e16:	01b54533          	xor	a0,a0,s11
    2e1a:	00861413          	slli	s0,a2,0x8
    2e1e:	0183d393          	srli	t2,t2,0x18
    2e22:	8261                	srli	a2,a2,0x18
    2e24:	0182d293          	srli	t0,t0,0x18
    2e28:	018fdf93          	srli	t6,t6,0x18
    2e2c:	013ccf33          	xor	t5,s9,s3
    2e30:	007d63b3          	or	t2,s10,t2
    2e34:	01031993          	slli	s3,t1,0x10
    2e38:	012bceb3          	xor	t4,s7,s2
    2e3c:	005c62b3          	or	t0,s8,t0
    2e40:	010e1913          	slli	s2,t3,0x10
    2e44:	009ac8b3          	xor	a7,s5,s1
    2e48:	01fb6fb3          	or	t6,s6,t6
    2e4c:	01081493          	slli	s1,a6,0x10
    2e50:	8c51                	or	s0,s0,a2
    2e52:	01454533          	xor	a0,a0,s4
    2e56:	01069613          	slli	a2,a3,0x10
    2e5a:	01035313          	srli	t1,t1,0x10
    2e5e:	010e5e13          	srli	t3,t3,0x10
    2e62:	01085813          	srli	a6,a6,0x10
    2e66:	82c1                	srli	a3,a3,0x10
    2e68:	007f4f33          	xor	t5,t5,t2
    2e6c:	005eceb3          	xor	t4,t4,t0
    2e70:	01c96e33          	or	t3,s2,t3
    2e74:	0104e833          	or	a6,s1,a6
    2e78:	8d21                	xor	a0,a0,s0
    2e7a:	0069e333          	or	t1,s3,t1
    2e7e:	01f8c8b3          	xor	a7,a7,t6
    2e82:	8ed1                	or	a3,a3,a2
    2e84:	01cec3b3          	xor	t2,t4,t3
    2e88:	8ea9                	xor	a3,a3,a0
    2e8a:	006f4333          	xor	t1,t5,t1
    2e8e:	0108c8b3          	xor	a7,a7,a6
    2e92:	0186df13          	srli	t5,a3,0x18
    2e96:	01835e93          	srli	t4,t1,0x18
    2e9a:	0183d293          	srli	t0,t2,0x18
    2e9e:	0188df93          	srli	t6,a7,0x18
    2ea2:	0ff37c13          	andi	s8,t1,255
    2ea6:	0066db93          	srli	s7,a3,0x6
    2eaa:	0ff3fb13          	andi	s6,t2,255
    2eae:	00635e13          	srli	t3,t1,0x6
    2eb2:	0ff8fa93          	andi	s5,a7,255
    2eb6:	002f1493          	slli	s1,t5,0x2
    2eba:	0063d813          	srli	a6,t2,0x6
    2ebe:	0ff6fa13          	andi	s4,a3,255
    2ec2:	002e9413          	slli	s0,t4,0x2
    2ec6:	0068d513          	srli	a0,a7,0x6
    2eca:	028a                	slli	t0,t0,0x2
    2ecc:	0f8a                	slli	t6,t6,0x2
    2ece:	92be                	add	t0,t0,a5
    2ed0:	9fbe                	add	t6,t6,a5
    2ed2:	00978f33          	add	t5,a5,s1
    2ed6:	00878eb3          	add	t4,a5,s0
    2eda:	0c0a                	slli	s8,s8,0x2
    2edc:	3fcbfb93          	andi	s7,s7,1020
    2ee0:	0b0a                	slli	s6,s6,0x2
    2ee2:	00e6d613          	srli	a2,a3,0xe
    2ee6:	00e8d893          	srli	a7,a7,0xe
    2eea:	00e3d693          	srli	a3,t2,0xe
    2eee:	3fce7e13          	andi	t3,t3,1020
    2ef2:	0a8a                	slli	s5,s5,0x2
    2ef4:	3fc87813          	andi	a6,a6,1020
    2ef8:	00e35313          	srli	t1,t1,0xe
    2efc:	0a0a                	slli	s4,s4,0x2
    2efe:	3fc57513          	andi	a0,a0,1020
    2f02:	c742a983          	lw	s3,-908(t0)
    2f06:	c74fa903          	lw	s2,-908(t6)
    2f0a:	c74f2483          	lw	s1,-908(t5)
    2f0e:	c74ea403          	lw	s0,-908(t4)
    2f12:	01778f33          	add	t5,a5,s7
    2f16:	01878fb3          	add	t6,a5,s8
    2f1a:	01678eb3          	add	t4,a5,s6
    2f1e:	9e3e                	add	t3,t3,a5
    2f20:	9abe                	add	s5,s5,a5
    2f22:	983e                	add	a6,a6,a5
    2f24:	9a3e                	add	s4,s4,a5
    2f26:	953e                	add	a0,a0,a5
    2f28:	3fc8f893          	andi	a7,a7,1020
    2f2c:	3fc67613          	andi	a2,a2,1020
    2f30:	3fc37313          	andi	t1,t1,1020
    2f34:	3fc6f693          	andi	a3,a3,1020
    2f38:	c74f2383          	lw	t2,-908(t5)
    2f3c:	c74e2283          	lw	t0,-908(t3)
    2f40:	c7482f03          	lw	t5,-908(a6)
    2f44:	c74aae03          	lw	t3,-908(s5)
    2f48:	07c72d83          	lw	s11,124(a4)
    2f4c:	c7452503          	lw	a0,-908(a0)
    2f50:	c74faf83          	lw	t6,-908(t6)
    2f54:	07072c83          	lw	s9,112(a4)
    2f58:	c74eae83          	lw	t4,-908(t4)
    2f5c:	07472b83          	lw	s7,116(a4)
    2f60:	07872a83          	lw	s5,120(a4)
    2f64:	c74a2803          	lw	a6,-908(s4)
    2f68:	98be                	add	a7,a7,a5
    2f6a:	963e                	add	a2,a2,a5
    2f6c:	933e                	add	t1,t1,a5
    2f6e:	96be                	add	a3,a3,a5
    2f70:	c748a883          	lw	a7,-908(a7)
    2f74:	c7462603          	lw	a2,-908(a2)
    2f78:	c7432303          	lw	t1,-908(t1)
    2f7c:	c746a683          	lw	a3,-908(a3)
    2f80:	0089dd13          	srli	s10,s3,0x8
    2f84:	00895c13          	srli	s8,s2,0x8
    2f88:	0084db13          	srli	s6,s1,0x8
    2f8c:	00845a13          	srli	s4,s0,0x8
    2f90:	09e2                	slli	s3,s3,0x18
    2f92:	0462                	slli	s0,s0,0x18
    2f94:	0962                	slli	s2,s2,0x18
    2f96:	04e2                	slli	s1,s1,0x18
    2f98:	013d69b3          	or	s3,s10,s3
    2f9c:	012c6933          	or	s2,s8,s2
    2fa0:	00839d13          	slli	s10,t2,0x8
    2fa4:	00829c13          	slli	s8,t0,0x8
    2fa8:	009b64b3          	or	s1,s6,s1
    2fac:	008a6a33          	or	s4,s4,s0
    2fb0:	008f1b13          	slli	s6,t5,0x8
    2fb4:	019fccb3          	xor	s9,t6,s9
    2fb8:	017ecbb3          	xor	s7,t4,s7
    2fbc:	015e4ab3          	xor	s5,t3,s5
    2fc0:	01b84833          	xor	a6,a6,s11
    2fc4:	00851413          	slli	s0,a0,0x8
    2fc8:	0183d393          	srli	t2,t2,0x18
    2fcc:	8161                	srli	a0,a0,0x18
    2fce:	0182d293          	srli	t0,t0,0x18
    2fd2:	018f5f13          	srli	t5,t5,0x18
    2fd6:	013ccfb3          	xor	t6,s9,s3
    2fda:	007d63b3          	or	t2,s10,t2
    2fde:	01089993          	slli	s3,a7,0x10
    2fe2:	012bceb3          	xor	t4,s7,s2
    2fe6:	005c62b3          	or	t0,s8,t0
    2fea:	01061913          	slli	s2,a2,0x10
    2fee:	009ace33          	xor	t3,s5,s1
    2ff2:	01eb6f33          	or	t5,s6,t5
    2ff6:	01031493          	slli	s1,t1,0x10
    2ffa:	8c49                	or	s0,s0,a0
    2ffc:	01484833          	xor	a6,a6,s4
    3000:	01069513          	slli	a0,a3,0x10
    3004:	0108d893          	srli	a7,a7,0x10
    3008:	8241                	srli	a2,a2,0x10
    300a:	01035313          	srli	t1,t1,0x10
    300e:	82c1                	srli	a3,a3,0x10
    3010:	007fcfb3          	xor	t6,t6,t2
    3014:	005eceb3          	xor	t4,t4,t0
    3018:	01ee4e33          	xor	t3,t3,t5
    301c:	00884833          	xor	a6,a6,s0
    3020:	0119e8b3          	or	a7,s3,a7
    3024:	00c96633          	or	a2,s2,a2
    3028:	0064e333          	or	t1,s1,t1
    302c:	8ec9                	or	a3,a3,a0
    302e:	006e4333          	xor	t1,t3,t1
    3032:	011fc8b3          	xor	a7,t6,a7
    3036:	00cec633          	xor	a2,t4,a2
    303a:	00d846b3          	xor	a3,a6,a3
    303e:	0188de93          	srli	t4,a7,0x18
    3042:	0ff8f393          	andi	t2,a7,255
    3046:	01865293          	srli	t0,a2,0x18
    304a:	01835f93          	srli	t6,t1,0x18
    304e:	0186d493          	srli	s1,a3,0x18
    3052:	0066d813          	srli	a6,a3,0x6
    3056:	00665b93          	srli	s7,a2,0x6
    305a:	038a                	slli	t2,t2,0x2
    305c:	0ff67b13          	andi	s6,a2,255
    3060:	0f8a                	slli	t6,t6,0x2
    3062:	0068de13          	srli	t3,a7,0x6
    3066:	0ff37a93          	andi	s5,t1,255
    306a:	0ff6fa13          	andi	s4,a3,255
    306e:	002e9413          	slli	s0,t4,0x2
    3072:	00635513          	srli	a0,t1,0x6
    3076:	028a                	slli	t0,t0,0x2
    3078:	048a                	slli	s1,s1,0x2
    307a:	007789b3          	add	s3,a5,t2
    307e:	01f78933          	add	s2,a5,t6
    3082:	00878eb3          	add	t4,a5,s0
    3086:	92be                	add	t0,t0,a5
    3088:	94be                	add	s1,s1,a5
    308a:	3fc87393          	andi	t2,a6,1020
    308e:	00e35f13          	srli	t5,t1,0xe
    3092:	0b0a                	slli	s6,s6,0x2
    3094:	00e6d813          	srli	a6,a3,0xe
    3098:	3fcbf313          	andi	t1,s7,1020
    309c:	002a1693          	slli	a3,s4,0x2
    30a0:	3fce7e13          	andi	t3,t3,1020
    30a4:	0a8a                	slli	s5,s5,0x2
    30a6:	00e8d893          	srli	a7,a7,0xe
    30aa:	3fc57513          	andi	a0,a0,1020
    30ae:	8239                	srli	a2,a2,0xe
    30b0:	c749af83          	lw	t6,-908(s3)
    30b4:	93be                	add	t2,t2,a5
    30b6:	c742aa03          	lw	s4,-908(t0)
    30ba:	c7492983          	lw	s3,-908(s2)
    30be:	9e3e                	add	t3,t3,a5
    30c0:	c744a903          	lw	s2,-908(s1)
    30c4:	9abe                	add	s5,s5,a5
    30c6:	c74ea483          	lw	s1,-908(t4)
    30ca:	933e                	add	t1,t1,a5
    30cc:	01678eb3          	add	t4,a5,s6
    30d0:	96be                	add	a3,a3,a5
    30d2:	953e                	add	a0,a0,a5
    30d4:	3fcf7f13          	andi	t5,t5,1020
    30d8:	3fc87813          	andi	a6,a6,1020
    30dc:	3fc8f893          	andi	a7,a7,1020
    30e0:	3fc67613          	andi	a2,a2,1020
    30e4:	c743a403          	lw	s0,-908(t2)
    30e8:	c7452503          	lw	a0,-908(a0)
    30ec:	c74e2383          	lw	t2,-908(t3)
    30f0:	08072c83          	lw	s9,128(a4)
    30f4:	c7432e03          	lw	t3,-908(t1)
    30f8:	c74eae83          	lw	t4,-908(t4)
    30fc:	c74aa303          	lw	t1,-908(s5)
    3100:	08472283          	lw	t0,132(a4)
    3104:	08872b03          	lw	s6,136(a4)
    3108:	08c72d83          	lw	s11,140(a4)
    310c:	c746a683          	lw	a3,-908(a3)
    3110:	9f3e                	add	t5,t5,a5
    3112:	983e                	add	a6,a6,a5
    3114:	98be                	add	a7,a7,a5
    3116:	963e                	add	a2,a2,a5
    3118:	c7482803          	lw	a6,-908(a6)
    311c:	c74f2f03          	lw	t5,-908(t5)
    3120:	c748a883          	lw	a7,-908(a7)
    3124:	c7462603          	lw	a2,-908(a2)
    3128:	008a5d13          	srli	s10,s4,0x8
    312c:	0089dc13          	srli	s8,s3,0x8
    3130:	00895b93          	srli	s7,s2,0x8
    3134:	0084da93          	srli	s5,s1,0x8
    3138:	0a62                	slli	s4,s4,0x18
    313a:	04e2                	slli	s1,s1,0x18
    313c:	09e2                	slli	s3,s3,0x18
    313e:	0962                	slli	s2,s2,0x18
    3140:	014d6a33          	or	s4,s10,s4
    3144:	013c69b3          	or	s3,s8,s3
    3148:	012be933          	or	s2,s7,s2
    314c:	009aeab3          	or	s5,s5,s1
    3150:	008e1b93          	slli	s7,t3,0x8
    3154:	00841d13          	slli	s10,s0,0x8
    3158:	005ec2b3          	xor	t0,t4,t0
    315c:	00839c13          	slli	s8,t2,0x8
    3160:	01634b33          	xor	s6,t1,s6
    3164:	00851493          	slli	s1,a0,0x8
    3168:	019fccb3          	xor	s9,t6,s9
    316c:	8161                	srli	a0,a0,0x18
    316e:	8061                	srli	s0,s0,0x18
    3170:	0183d393          	srli	t2,t2,0x18
    3174:	018e5e13          	srli	t3,t3,0x18
    3178:	01b6c6b3          	xor	a3,a3,s11
    317c:	0132ceb3          	xor	t4,t0,s3
    3180:	012b4333          	xor	t1,s6,s2
    3184:	01cbee33          	or	t3,s7,t3
    3188:	01089913          	slli	s2,a7,0x10
    318c:	8cc9                	or	s1,s1,a0
    318e:	014ccfb3          	xor	t6,s9,s4
    3192:	01061513          	slli	a0,a2,0x10
    3196:	010f1a13          	slli	s4,t5,0x10
    319a:	008d6433          	or	s0,s10,s0
    319e:	007c63b3          	or	t2,s8,t2
    31a2:	01081993          	slli	s3,a6,0x10
    31a6:	01085293          	srli	t0,a6,0x10
    31aa:	0156c6b3          	xor	a3,a3,s5
    31ae:	010f5f13          	srli	t5,t5,0x10
    31b2:	0108d893          	srli	a7,a7,0x10
    31b6:	8241                	srli	a2,a2,0x10
    31b8:	008fcfb3          	xor	t6,t6,s0
    31bc:	007eceb3          	xor	t4,t4,t2
    31c0:	0059e833          	or	a6,s3,t0
    31c4:	01c34333          	xor	t1,t1,t3
    31c8:	8e49                	or	a2,a2,a0
    31ca:	01ea6f33          	or	t5,s4,t5
    31ce:	011968b3          	or	a7,s2,a7
    31d2:	8ea5                	xor	a3,a3,s1
    31d4:	01efcf33          	xor	t5,t6,t5
    31d8:	8eb1                	xor	a3,a3,a2
    31da:	010ec833          	xor	a6,t4,a6
    31de:	011348b3          	xor	a7,t1,a7
    31e2:	0ff87613          	andi	a2,a6,255
    31e6:	0fff7a13          	andi	s4,t5,255
    31ea:	01885493          	srli	s1,a6,0x18
    31ee:	0066df93          	srli	t6,a3,0x6
    31f2:	00e8d313          	srli	t1,a7,0xe
    31f6:	0188d413          	srli	s0,a7,0x18
    31fa:	006f5a93          	srli	s5,t5,0x6
    31fe:	00e6d993          	srli	s3,a3,0xe
    3202:	0ff8f913          	andi	s2,a7,255
    3206:	0186d393          	srli	t2,a3,0x18
    320a:	0ff6f513          	andi	a0,a3,255
    320e:	018f5293          	srli	t0,t5,0x18
    3212:	00261693          	slli	a3,a2,0x2
    3216:	00685e93          	srli	t4,a6,0x6
    321a:	0068d893          	srli	a7,a7,0x6
    321e:	0a0a                	slli	s4,s4,0x2
    3220:	048a                	slli	s1,s1,0x2
    3222:	3fcfff93          	andi	t6,t6,1020
    3226:	3fc37313          	andi	t1,t1,1020
    322a:	040a                	slli	s0,s0,0x2
    322c:	3fcafa93          	andi	s5,s5,1020
    3230:	3fc9f993          	andi	s3,s3,1020
    3234:	090a                	slli	s2,s2,0x2
    3236:	038a                	slli	t2,t2,0x2
    3238:	050a                	slli	a0,a0,0x2
    323a:	028a                	slli	t0,t0,0x2
    323c:	9abe                	add	s5,s5,a5
    323e:	99be                	add	s3,s3,a5
    3240:	993e                	add	s2,s2,a5
    3242:	953e                	add	a0,a0,a5
    3244:	9a3e                	add	s4,s4,a5
    3246:	94be                	add	s1,s1,a5
    3248:	9fbe                	add	t6,t6,a5
    324a:	933e                	add	t1,t1,a5
    324c:	96be                	add	a3,a3,a5
    324e:	943e                	add	s0,s0,a5
    3250:	93be                	add	t2,t2,a5
    3252:	00ef5613          	srli	a2,t5,0xe
    3256:	92be                	add	t0,t0,a5
    3258:	3fc8fe13          	andi	t3,a7,1020
    325c:	3fcefe93          	andi	t4,t4,1020
    3260:	00e85813          	srli	a6,a6,0xe
    3264:	09472b03          	lw	s6,148(a4)
    3268:	074aaf03          	lw	t5,116(s5)
    326c:	0749a883          	lw	a7,116(s3)
    3270:	09872a83          	lw	s5,152(a4)
    3274:	07492983          	lw	s3,116(s2)
    3278:	074a2a03          	lw	s4,116(s4)
    327c:	09072b83          	lw	s7,144(a4)
    3280:	58e4                	lw	s1,116(s1)
    3282:	074faf83          	lw	t6,116(t6)
    3286:	07432303          	lw	t1,116(t1)
    328a:	5af4                	lw	a3,116(a3)
    328c:	5860                	lw	s0,116(s0)
    328e:	9ebe                	add	t4,t4,a5
    3290:	0743a383          	lw	t2,116(t2)
    3294:	9e3e                	add	t3,t3,a5
    3296:	07452903          	lw	s2,116(a0)
    329a:	3fc87813          	andi	a6,a6,1020
    329e:	09c72503          	lw	a0,156(a4)
    32a2:	0742a283          	lw	t0,116(t0)
    32a6:	3fc67613          	andi	a2,a2,1020
    32aa:	963e                	add	a2,a2,a5
    32ac:	074eae83          	lw	t4,116(t4)
    32b0:	97c2                	add	a5,a5,a6
    32b2:	074e2e03          	lw	t3,116(t3)
    32b6:	07462803          	lw	a6,116(a2)
    32ba:	5bf0                	lw	a2,116(a5)
    32bc:	0462                	slli	s0,s0,0x18
    32be:	017a4733          	xor	a4,s4,s7
    32c2:	04e2                	slli	s1,s1,0x18
    32c4:	0166c6b3          	xor	a3,a3,s6
    32c8:	0159c7b3          	xor	a5,s3,s5
    32cc:	03e2                	slli	t2,t2,0x18
    32ce:	00a94533          	xor	a0,s2,a0
    32d2:	02e2                	slli	t0,t0,0x18
    32d4:	8ea1                	xor	a3,a3,s0
    32d6:	8f25                	xor	a4,a4,s1
    32d8:	0fa2                	slli	t6,t6,0x8
    32da:	0f22                	slli	t5,t5,0x8
    32dc:	0077c7b3          	xor	a5,a5,t2
    32e0:	0ea2                	slli	t4,t4,0x8
    32e2:	00554533          	xor	a0,a0,t0
    32e6:	0e22                	slli	t3,t3,0x8
    32e8:	01f74733          	xor	a4,a4,t6
    32ec:	0342                	slli	t1,t1,0x10
    32ee:	01e6c6b3          	xor	a3,a3,t5
    32f2:	08c2                	slli	a7,a7,0x10
    32f4:	01d7c7b3          	xor	a5,a5,t4
    32f8:	0842                	slli	a6,a6,0x10
    32fa:	01c54533          	xor	a0,a0,t3
    32fe:	0642                	slli	a2,a2,0x10
    3300:	00674333          	xor	t1,a4,t1
    3304:	0116c6b3          	xor	a3,a3,a7
    3308:	0107c433          	xor	s0,a5,a6
    330c:	8d31                	xor	a0,a0,a2
    330e:	feffe06f          	j	22fc <decrypt+0x74>
    3312:	4501                	li	a0,0
    3314:	8082                	ret
    3316:	0186d813          	srli	a6,a3,0x18
    331a:	01845a13          	srli	s4,s0,0x18
    331e:	01855993          	srli	s3,a0,0x18
    3322:	01835c93          	srli	s9,t1,0x18
    3326:	67a9                	lui	a5,0xa
    3328:	a6078793          	addi	a5,a5,-1440 # 9a60 <it_tab+0x38c>
    332c:	0066de93          	srli	t4,a3,0x6
    3330:	0ff57893          	andi	a7,a0,255
    3334:	0ff37f93          	andi	t6,t1,255
    3338:	00655c13          	srli	s8,a0,0x6
    333c:	0ff6ff13          	andi	t5,a3,255
    3340:	00635b93          	srli	s7,t1,0x6
    3344:	0ff47e13          	andi	t3,s0,255
    3348:	00645393          	srli	t2,s0,0x6
    334c:	080a                	slli	a6,a6,0x2
    334e:	0a0a                	slli	s4,s4,0x2
    3350:	098a                	slli	s3,s3,0x2
    3352:	0c8a                	slli	s9,s9,0x2
    3354:	00e35293          	srli	t0,t1,0xe
    3358:	8039                	srli	s0,s0,0xe
    335a:	82b9                	srli	a3,a3,0xe
    335c:	983e                	add	a6,a6,a5
    335e:	3fcbfb93          	andi	s7,s7,1020
    3362:	3fcef493          	andi	s1,t4,1020
    3366:	00289713          	slli	a4,a7,0x2
    336a:	9cbe                	add	s9,s9,a5
    336c:	3fc3f393          	andi	t2,t2,1020
    3370:	8139                	srli	a0,a0,0xe
    3372:	0f8a                	slli	t6,t6,0x2
    3374:	3fcc7c13          	andi	s8,s8,1020
    3378:	0f0a                	slli	t5,t5,0x2
    337a:	9a3e                	add	s4,s4,a5
    337c:	0e0a                	slli	t3,t3,0x2
    337e:	99be                	add	s3,s3,a5
    3380:	c7482a83          	lw	s5,-908(a6)
    3384:	c74ca903          	lw	s2,-908(s9)
    3388:	c74a2a03          	lw	s4,-908(s4)
    338c:	c749a983          	lw	s3,-908(s3)
    3390:	3fc47b13          	andi	s6,s0,1020
    3394:	00978eb3          	add	t4,a5,s1
    3398:	00e788b3          	add	a7,a5,a4
    339c:	00778333          	add	t1,a5,t2
    33a0:	9c3e                	add	s8,s8,a5
    33a2:	9f3e                	add	t5,t5,a5
    33a4:	01778433          	add	s0,a5,s7
    33a8:	9e3e                	add	t3,t3,a5
    33aa:	3fc2f813          	andi	a6,t0,1020
    33ae:	3fc6f713          	andi	a4,a3,1020
    33b2:	9fbe                	add	t6,t6,a5
    33b4:	3fc57513          	andi	a0,a0,1020
    33b8:	c74c2483          	lw	s1,-908(s8)
    33bc:	c74ea383          	lw	t2,-908(t4)
    33c0:	c7432283          	lw	t0,-908(t1)
    33c4:	c74f2e83          	lw	t4,-908(t5)
    33c8:	c74e2303          	lw	t1,-908(t3)
    33cc:	c748a683          	lw	a3,-908(a7)
    33d0:	c7442403          	lw	s0,-908(s0)
    33d4:	c74faf83          	lw	t6,-908(t6)
    33d8:	016788b3          	add	a7,a5,s6
    33dc:	11862d83          	lw	s11,280(a2)
    33e0:	11c62d03          	lw	s10,284(a2)
    33e4:	12062c83          	lw	s9,288(a2)
    33e8:	12462b83          	lw	s7,292(a2)
    33ec:	953e                	add	a0,a0,a5
    33ee:	983e                	add	a6,a6,a5
    33f0:	973e                	add	a4,a4,a5
    33f2:	c748af03          	lw	t5,-908(a7)
    33f6:	c7452e03          	lw	t3,-908(a0)
    33fa:	c7482883          	lw	a7,-908(a6)
    33fe:	c7472503          	lw	a0,-908(a4)
    3402:	008adc13          	srli	s8,s5,0x8
    3406:	008a5813          	srli	a6,s4,0x8
    340a:	0089d713          	srli	a4,s3,0x8
    340e:	00895b13          	srli	s6,s2,0x8
    3412:	0ae2                	slli	s5,s5,0x18
    3414:	0962                	slli	s2,s2,0x18
    3416:	0a62                	slli	s4,s4,0x18
    3418:	09e2                	slli	s3,s3,0x18
    341a:	015c6ab3          	or	s5,s8,s5
    341e:	01486a33          	or	s4,a6,s4
    3422:	00849c13          	slli	s8,s1,0x8
    3426:	00841813          	slli	a6,s0,0x8
    342a:	013769b3          	or	s3,a4,s3
    342e:	0176cbb3          	xor	s7,a3,s7
    3432:	00839713          	slli	a4,t2,0x8
    3436:	012b66b3          	or	a3,s6,s2
    343a:	01bfcdb3          	xor	s11,t6,s11
    343e:	00829b13          	slli	s6,t0,0x8
    3442:	01aecd33          	xor	s10,t4,s10
    3446:	01934cb3          	xor	s9,t1,s9
    344a:	80e1                	srli	s1,s1,0x18
    344c:	8061                	srli	s0,s0,0x18
    344e:	0183d393          	srli	t2,t2,0x18
    3452:	0182d293          	srli	t0,t0,0x18
    3456:	015dcfb3          	xor	t6,s11,s5
    345a:	009c64b3          	or	s1,s8,s1
    345e:	014d4eb3          	xor	t4,s10,s4
    3462:	010f1c13          	slli	s8,t5,0x10
    3466:	00886433          	or	s0,a6,s0
    346a:	010e1913          	slli	s2,t3,0x10
    346e:	013cc333          	xor	t1,s9,s3
    3472:	007763b3          	or	t2,a4,t2
    3476:	005b62b3          	or	t0,s6,t0
    347a:	01089713          	slli	a4,a7,0x10
    347e:	01051813          	slli	a6,a0,0x10
    3482:	00dbc6b3          	xor	a3,s7,a3
    3486:	010f5f13          	srli	t5,t5,0x10
    348a:	010e5e13          	srli	t3,t3,0x10
    348e:	0108d893          	srli	a7,a7,0x10
    3492:	8141                	srli	a0,a0,0x10
    3494:	009fcfb3          	xor	t6,t6,s1
    3498:	008eceb3          	xor	t4,t4,s0
    349c:	01c96e33          	or	t3,s2,t3
    34a0:	00734333          	xor	t1,t1,t2
    34a4:	00a86533          	or	a0,a6,a0
    34a8:	01ec6f33          	or	t5,s8,t5
    34ac:	011768b3          	or	a7,a4,a7
    34b0:	0056c6b3          	xor	a3,a3,t0
    34b4:	01efcc33          	xor	s8,t6,t5
    34b8:	01cec833          	xor	a6,t4,t3
    34bc:	01134733          	xor	a4,t1,a7
    34c0:	8ea9                	xor	a3,a3,a0
    34c2:	0ffc7293          	andi	t0,s8,255
    34c6:	01885e13          	srli	t3,a6,0x18
    34ca:	0066df93          	srli	t6,a3,0x6
    34ce:	00e75313          	srli	t1,a4,0xe
    34d2:	0ff87913          	andi	s2,a6,255
    34d6:	01875513          	srli	a0,a4,0x18
    34da:	006c5a93          	srli	s5,s8,0x6
    34de:	00e6d993          	srli	s3,a3,0xe
    34e2:	0ff77413          	andi	s0,a4,255
    34e6:	0186d893          	srli	a7,a3,0x18
    34ea:	018c5f13          	srli	t5,s8,0x18
    34ee:	00685e93          	srli	t4,a6,0x6
    34f2:	8319                	srli	a4,a4,0x6
    34f4:	028a                	slli	t0,t0,0x2
    34f6:	0e0a                	slli	t3,t3,0x2
    34f8:	3fcfff93          	andi	t6,t6,1020
    34fc:	3fc37313          	andi	t1,t1,1020
    3500:	090a                	slli	s2,s2,0x2
    3502:	050a                	slli	a0,a0,0x2
    3504:	3fcafa93          	andi	s5,s5,1020
    3508:	3fc9f993          	andi	s3,s3,1020
    350c:	040a                	slli	s0,s0,0x2
    350e:	088a                	slli	a7,a7,0x2
    3510:	0ff6f693          	andi	a3,a3,255
    3514:	0f0a                	slli	t5,t5,0x2
    3516:	9fbe                	add	t6,t6,a5
    3518:	933e                	add	t1,t1,a5
    351a:	993e                	add	s2,s2,a5
    351c:	9abe                	add	s5,s5,a5
    351e:	943e                	add	s0,s0,a5
    3520:	068a                	slli	a3,a3,0x2
    3522:	9f3e                	add	t5,t5,a5
    3524:	3fc77493          	andi	s1,a4,1020
    3528:	92be                	add	t0,t0,a5
    352a:	00e85713          	srli	a4,a6,0xe
    352e:	9e3e                	add	t3,t3,a5
    3530:	953e                	add	a0,a0,a5
    3532:	99be                	add	s3,s3,a5
    3534:	98be                	add	a7,a7,a5
    3536:	3fcefe93          	andi	t4,t4,1020
    353a:	00ec5c13          	srli	s8,s8,0xe
    353e:	c74fa383          	lw	t2,-908(t6)
    3542:	c7432a03          	lw	s4,-908(t1)
    3546:	c7452503          	lw	a0,-908(a0)
    354a:	c74aaf83          	lw	t6,-908(s5)
    354e:	c7492d03          	lw	s10,-908(s2)
    3552:	c74e2e03          	lw	t3,-908(t3)
    3556:	c749a983          	lw	s3,-908(s3)
    355a:	c742a283          	lw	t0,-908(t0)
    355e:	c7442c83          	lw	s9,-908(s0)
    3562:	12862303          	lw	t1,296(a2)
    3566:	13062403          	lw	s0,304(a2)
    356a:	12c62b03          	lw	s6,300(a2)
    356e:	3fcc7c13          	andi	s8,s8,1020
    3572:	c748a883          	lw	a7,-908(a7)
    3576:	94be                	add	s1,s1,a5
    3578:	c74f2803          	lw	a6,-908(t5)
    357c:	9ebe                	add	t4,t4,a5
    357e:	00d78f33          	add	t5,a5,a3
    3582:	3fc77713          	andi	a4,a4,1020
    3586:	c744a903          	lw	s2,-908(s1)
    358a:	c74f2b83          	lw	s7,-908(t5)
    358e:	018786b3          	add	a3,a5,s8
    3592:	c74eae83          	lw	t4,-908(t4)
    3596:	973e                	add	a4,a4,a5
    3598:	13462a83          	lw	s5,308(a2)
    359c:	c746a483          	lw	s1,-908(a3)
    35a0:	c7472f03          	lw	t5,-908(a4)
    35a4:	008e5d93          	srli	s11,t3,0x8
    35a8:	01851713          	slli	a4,a0,0x18
    35ac:	0088dc13          	srli	s8,a7,0x8
    35b0:	00855693          	srli	a3,a0,0x8
    35b4:	0e62                	slli	t3,t3,0x18
    35b6:	00885513          	srli	a0,a6,0x8
    35ba:	08e2                	slli	a7,a7,0x18
    35bc:	0862                	slli	a6,a6,0x18
    35be:	01cdee33          	or	t3,s11,t3
    35c2:	016d4b33          	xor	s6,s10,s6
    35c6:	0062c333          	xor	t1,t0,t1
    35ca:	008f9d13          	slli	s10,t6,0x8
    35ce:	00839293          	slli	t0,t2,0x8
    35d2:	8ed9                	or	a3,a3,a4
    35d4:	018fdf93          	srli	t6,t6,0x18
    35d8:	011c68b3          	or	a7,s8,a7
    35dc:	008e9d93          	slli	s11,t4,0x8
    35e0:	015bcab3          	xor	s5,s7,s5
    35e4:	01056533          	or	a0,a0,a6
    35e8:	0183d393          	srli	t2,t2,0x18
    35ec:	00891813          	slli	a6,s2,0x8
    35f0:	008cccb3          	xor	s9,s9,s0
    35f4:	018ede93          	srli	t4,t4,0x18
    35f8:	01895913          	srli	s2,s2,0x18
    35fc:	01c34333          	xor	t1,t1,t3
    3600:	010a1b93          	slli	s7,s4,0x10
    3604:	01fd6e33          	or	t3,s10,t6
    3608:	00db46b3          	xor	a3,s6,a3
    360c:	01099d13          	slli	s10,s3,0x10
    3610:	01049b13          	slli	s6,s1,0x10
    3614:	010f1f93          	slli	t6,t5,0x10
    3618:	0072e3b3          	or	t2,t0,t2
    361c:	010a5a13          	srli	s4,s4,0x10
    3620:	0109d993          	srli	s3,s3,0x10
    3624:	011cc433          	xor	s0,s9,a7
    3628:	01ddeeb3          	or	t4,s11,t4
    362c:	80c1                	srli	s1,s1,0x10
    362e:	00aac533          	xor	a0,s5,a0
    3632:	01286933          	or	s2,a6,s2
    3636:	010f5f13          	srli	t5,t5,0x10
    363a:	13862c03          	lw	s8,312(a2)
    363e:	00734333          	xor	t1,t1,t2
    3642:	014bea33          	or	s4,s7,s4
    3646:	01c6c6b3          	xor	a3,a3,t3
    364a:	013d69b3          	or	s3,s10,s3
    364e:	01d44433          	xor	s0,s0,t4
    3652:	009b64b3          	or	s1,s6,s1
    3656:	01254533          	xor	a0,a0,s2
    365a:	01efef33          	or	t5,t6,t5
    365e:	01434333          	xor	t1,t1,s4
    3662:	0136c6b3          	xor	a3,a3,s3
    3666:	8c25                	xor	s0,s0,s1
    3668:	01e54533          	xor	a0,a0,t5
    366c:	13860713          	addi	a4,a2,312
    3670:	01835e13          	srli	t3,t1,0x18
    3674:	0186df93          	srli	t6,a3,0x18
    3678:	01845b13          	srli	s6,s0,0x18
    367c:	01855f13          	srli	t5,a0,0x18
    3680:	00635a13          	srli	s4,t1,0x6
    3684:	0ff37393          	andi	t2,t1,255
    3688:	00655993          	srli	s3,a0,0x6
    368c:	0ff6fe93          	andi	t4,a3,255
    3690:	0ff47893          	andi	a7,s0,255
    3694:	0066d913          	srli	s2,a3,0x6
    3698:	0ff57293          	andi	t0,a0,255
    369c:	00645613          	srli	a2,s0,0x6
    36a0:	0f8a                	slli	t6,t6,0x2
    36a2:	002e1493          	slli	s1,t3,0x2
    36a6:	0b0a                	slli	s6,s6,0x2
    36a8:	0f0a                	slli	t5,t5,0x2
    36aa:	00978e33          	add	t3,a5,s1
    36ae:	00e45813          	srli	a6,s0,0xe
    36b2:	00e55c93          	srli	s9,a0,0xe
    36b6:	00e35313          	srli	t1,t1,0xe
    36ba:	01f78533          	add	a0,a5,t6
    36be:	088a                	slli	a7,a7,0x2
    36c0:	3fca7f93          	andi	t6,s4,1020
    36c4:	9f3e                	add	t5,t5,a5
    36c6:	3fc97913          	andi	s2,s2,1020
    36ca:	028a                	slli	t0,t0,0x2
    36cc:	82b9                	srli	a3,a3,0xe
    36ce:	038a                	slli	t2,t2,0x2
    36d0:	3fc9f993          	andi	s3,s3,1020
    36d4:	0e8a                	slli	t4,t4,0x2
    36d6:	9b3e                	add	s6,s6,a5
    36d8:	3fc67613          	andi	a2,a2,1020
    36dc:	c7452d03          	lw	s10,-908(a0)
    36e0:	c74b2b03          	lw	s6,-908(s6)
    36e4:	c74f2483          	lw	s1,-908(t5)
    36e8:	c74e2403          	lw	s0,-908(t3)
    36ec:	93be                	add	t2,t2,a5
    36ee:	99be                	add	s3,s3,a5
    36f0:	9ebe                	add	t4,t4,a5
    36f2:	01178e33          	add	t3,a5,a7
    36f6:	01278f33          	add	t5,a5,s2
    36fa:	3fc37a13          	andi	s4,t1,1020
    36fe:	00578533          	add	a0,a5,t0
    3702:	3fc87813          	andi	a6,a6,1020
    3706:	9fbe                	add	t6,t6,a5
    3708:	3fccfc93          	andi	s9,s9,1020
    370c:	963e                	add	a2,a2,a5
    370e:	3fc6f693          	andi	a3,a3,1020
    3712:	c749a283          	lw	t0,-908(s3)
    3716:	c743ad83          	lw	s11,-908(t2)
    371a:	c74e2883          	lw	a7,-908(t3)
    371e:	c74ea383          	lw	t2,-908(t4)
    3722:	00472b83          	lw	s7,4(a4)
    3726:	c74faf83          	lw	t6,-908(t6)
    372a:	00872983          	lw	s3,8(a4)
    372e:	c74f2f03          	lw	t5,-908(t5)
    3732:	00c72a83          	lw	s5,12(a4)
    3736:	c7462603          	lw	a2,-908(a2)
    373a:	c7452503          	lw	a0,-908(a0)
    373e:	983e                	add	a6,a6,a5
    3740:	9cbe                	add	s9,s9,a5
    3742:	9a3e                	add	s4,s4,a5
    3744:	96be                	add	a3,a3,a5
    3746:	c7482e03          	lw	t3,-908(a6)
    374a:	c74ca303          	lw	t1,-908(s9)
    374e:	c74a2803          	lw	a6,-908(s4)
    3752:	c746a683          	lw	a3,-908(a3)
    3756:	008d5e93          	srli	t4,s10,0x8
    375a:	008b5c93          	srli	s9,s6,0x8
    375e:	00845a13          	srli	s4,s0,0x8
    3762:	018b1913          	slli	s2,s6,0x18
    3766:	0462                	slli	s0,s0,0x18
    3768:	0084db13          	srli	s6,s1,0x8
    376c:	0d62                	slli	s10,s10,0x18
    376e:	04e2                	slli	s1,s1,0x18
    3770:	01bc4c33          	xor	s8,s8,s11
    3774:	012ce933          	or	s2,s9,s2
    3778:	00829d93          	slli	s11,t0,0x8
    377c:	008f9c93          	slli	s9,t6,0x8
    3780:	009b64b3          	or	s1,s6,s1
    3784:	01554ab3          	xor	s5,a0,s5
    3788:	008f1b13          	slli	s6,t5,0x8
    378c:	008a6533          	or	a0,s4,s0
    3790:	01aeed33          	or	s10,t4,s10
    3794:	0173cbb3          	xor	s7,t2,s7
    3798:	0138c9b3          	xor	s3,a7,s3
    379c:	00861a13          	slli	s4,a2,0x8
    37a0:	0182d293          	srli	t0,t0,0x18
    37a4:	8261                	srli	a2,a2,0x18
    37a6:	018fdf93          	srli	t6,t6,0x18
    37aa:	018f5f13          	srli	t5,t5,0x18
    37ae:	018d4eb3          	xor	t4,s10,s8
    37b2:	005de2b3          	or	t0,s11,t0
    37b6:	010e1413          	slli	s0,t3,0x10
    37ba:	012bc3b3          	xor	t2,s7,s2
    37be:	01fcefb3          	or	t6,s9,t6
    37c2:	01031913          	slli	s2,t1,0x10
    37c6:	0099c8b3          	xor	a7,s3,s1
    37ca:	01eb6f33          	or	t5,s6,t5
    37ce:	01081993          	slli	s3,a6,0x10
    37d2:	00ca6a33          	or	s4,s4,a2
    37d6:	00aac533          	xor	a0,s5,a0
    37da:	01069613          	slli	a2,a3,0x10
    37de:	010e5e13          	srli	t3,t3,0x10
    37e2:	01035313          	srli	t1,t1,0x10
    37e6:	01085813          	srli	a6,a6,0x10
    37ea:	82c1                	srli	a3,a3,0x10
    37ec:	01c46e33          	or	t3,s0,t3
    37f0:	00696333          	or	t1,s2,t1
    37f4:	01e8c8b3          	xor	a7,a7,t5
    37f8:	01454533          	xor	a0,a0,s4
    37fc:	005eceb3          	xor	t4,t4,t0
    3800:	01f3c3b3          	xor	t2,t2,t6
    3804:	0109e833          	or	a6,s3,a6
    3808:	8ed1                	or	a3,a3,a2
    380a:	01ceceb3          	xor	t4,t4,t3
    380e:	0063c3b3          	xor	t2,t2,t1
    3812:	0108c833          	xor	a6,a7,a6
    3816:	8ea9                	xor	a3,a3,a0
    3818:	0ffef313          	andi	t1,t4,255
    381c:	0183d893          	srli	a7,t2,0x18
    3820:	0066d293          	srli	t0,a3,0x6
    3824:	00e85913          	srli	s2,a6,0xe
    3828:	0ff3f413          	andi	s0,t2,255
    382c:	01885613          	srli	a2,a6,0x18
    3830:	006edf93          	srli	t6,t4,0x6
    3834:	00e6d493          	srli	s1,a3,0xe
    3838:	0ff87a13          	andi	s4,a6,255
    383c:	0186da93          	srli	s5,a3,0x18
    3840:	0063df13          	srli	t5,t2,0x6
    3844:	018ede13          	srli	t3,t4,0x18
    3848:	040a                	slli	s0,s0,0x2
    384a:	0ff6f513          	andi	a0,a3,255
    384e:	00685813          	srli	a6,a6,0x6
    3852:	030a                	slli	t1,t1,0x2
    3854:	088a                	slli	a7,a7,0x2
    3856:	3fc2f293          	andi	t0,t0,1020
    385a:	3fc97913          	andi	s2,s2,1020
    385e:	060a                	slli	a2,a2,0x2
    3860:	3fcfff93          	andi	t6,t6,1020
    3864:	3fc4f493          	andi	s1,s1,1020
    3868:	0a0a                	slli	s4,s4,0x2
    386a:	0a8a                	slli	s5,s5,0x2
    386c:	3fcf7f13          	andi	t5,t5,1020
    3870:	0e0a                	slli	t3,t3,0x2
    3872:	008786b3          	add	a3,a5,s0
    3876:	9a3e                	add	s4,s4,a5
    3878:	9abe                	add	s5,s5,a5
    387a:	00eed413          	srli	s0,t4,0xe
    387e:	3fc87993          	andi	s3,a6,1020
    3882:	933e                	add	t1,t1,a5
    3884:	98be                	add	a7,a7,a5
    3886:	92be                	add	t0,t0,a5
    3888:	993e                	add	s2,s2,a5
    388a:	963e                	add	a2,a2,a5
    388c:	9fbe                	add	t6,t6,a5
    388e:	94be                	add	s1,s1,a5
    3890:	9f3e                	add	t5,t5,a5
    3892:	050a                	slli	a0,a0,0x2
    3894:	9e3e                	add	t3,t3,a5
    3896:	00e3d393          	srli	t2,t2,0xe
    389a:	01072d83          	lw	s11,16(a4)
    389e:	01872b83          	lw	s7,24(a4)
    38a2:	c74aae83          	lw	t4,-908(s5)
    38a6:	c748a883          	lw	a7,-908(a7)
    38aa:	c742a283          	lw	t0,-908(t0)
    38ae:	c7492903          	lw	s2,-908(s2)
    38b2:	01472c83          	lw	s9,20(a4)
    38b6:	c7462603          	lw	a2,-908(a2)
    38ba:	c74faf83          	lw	t6,-908(t6)
    38be:	c744a483          	lw	s1,-908(s1)
    38c2:	c746a683          	lw	a3,-908(a3)
    38c6:	c74a2803          	lw	a6,-908(s4)
    38ca:	c7432303          	lw	t1,-908(t1)
    38ce:	3fc47413          	andi	s0,s0,1020
    38d2:	c74f2f03          	lw	t5,-908(t5)
    38d6:	953e                	add	a0,a0,a5
    38d8:	c74e2e03          	lw	t3,-908(t3)
    38dc:	99be                	add	s3,s3,a5
    38de:	3fc3f393          	andi	t2,t2,1020
    38e2:	01c72a83          	lw	s5,28(a4)
    38e6:	c749a983          	lw	s3,-908(s3)
    38ea:	c7452503          	lw	a0,-908(a0)
    38ee:	943e                	add	s0,s0,a5
    38f0:	93be                	add	t2,t2,a5
    38f2:	c7442403          	lw	s0,-908(s0)
    38f6:	c743a383          	lw	t2,-908(t2)
    38fa:	0088dd13          	srli	s10,a7,0x8
    38fe:	00865c13          	srli	s8,a2,0x8
    3902:	008edb13          	srli	s6,t4,0x8
    3906:	0662                	slli	a2,a2,0x18
    3908:	0ee2                	slli	t4,t4,0x18
    390a:	008e5a13          	srli	s4,t3,0x8
    390e:	08e2                	slli	a7,a7,0x18
    3910:	0e62                	slli	t3,t3,0x18
    3912:	011d68b3          	or	a7,s10,a7
    3916:	01784833          	xor	a6,a6,s7
    391a:	00829d13          	slli	s10,t0,0x8
    391e:	01b34333          	xor	t1,t1,s11
    3922:	0196ccb3          	xor	s9,a3,s9
    3926:	00cc6c33          	or	s8,s8,a2
    392a:	008f9d93          	slli	s11,t6,0x8
    392e:	00899613          	slli	a2,s3,0x8
    3932:	01db6b33          	or	s6,s6,t4
    3936:	008f1b93          	slli	s7,t5,0x8
    393a:	0182d293          	srli	t0,t0,0x18
    393e:	018fdf93          	srli	t6,t6,0x18
    3942:	018f5f13          	srli	t5,t5,0x18
    3946:	01554ab3          	xor	s5,a0,s5
    394a:	01ca6e33          	or	t3,s4,t3
    394e:	0189d993          	srli	s3,s3,0x18
    3952:	01134333          	xor	t1,t1,a7
    3956:	01049693          	slli	a3,s1,0x10
    395a:	005d62b3          	or	t0,s10,t0
    395e:	01091893          	slli	a7,s2,0x10
    3962:	01684b33          	xor	s6,a6,s6
    3966:	013669b3          	or	s3,a2,s3
    396a:	01041813          	slli	a6,s0,0x10
    396e:	01039d13          	slli	s10,t2,0x10
    3972:	01095913          	srli	s2,s2,0x10
    3976:	018cccb3          	xor	s9,s9,s8
    397a:	01fdefb3          	or	t6,s11,t6
    397e:	80c1                	srli	s1,s1,0x10
    3980:	01ebef33          	or	t5,s7,t5
    3984:	8041                	srli	s0,s0,0x10
    3986:	01cac533          	xor	a0,s5,t3
    398a:	0103d393          	srli	t2,t2,0x10
    398e:	005342b3          	xor	t0,t1,t0
    3992:	0128e933          	or	s2,a7,s2
    3996:	01fcc633          	xor	a2,s9,t6
    399a:	8cd5                	or	s1,s1,a3
    399c:	01eb4eb3          	xor	t4,s6,t5
    39a0:	00886433          	or	s0,a6,s0
    39a4:	01354533          	xor	a0,a0,s3
    39a8:	007d63b3          	or	t2,s10,t2
    39ac:	0122c333          	xor	t1,t0,s2
    39b0:	009646b3          	xor	a3,a2,s1
    39b4:	008ec433          	xor	s0,t4,s0
    39b8:	00754533          	xor	a0,a0,t2
    39bc:	02070713          	addi	a4,a4,32
    39c0:	96bfe06f          	j	232a <decrypt+0xa2>
    39c4:	67a9                	lui	a5,0xa
    39c6:	11862c03          	lw	s8,280(a2)
    39ca:	a6078793          	addi	a5,a5,-1440 # 9a60 <it_tab+0x38c>
    39ce:	b14d                	j	3670 <decrypt+0x13e8>

000039d0 <fillrand>:
    39d0:	20001737          	lui	a4,0x20001
    39d4:	8ac72783          	lw	a5,-1876(a4) # 200008ac <mt.4>
    39d8:	cf99                	beqz	a5,39f6 <fillrand+0x26>
    39da:	200017b7          	lui	a5,0x20001
    39de:	8a072623          	sw	zero,-1876(a4)
    39e2:	673d                	lui	a4,0xf
    39e4:	8f078793          	addi	a5,a5,-1808 # 200008f0 <a.3>
    39e8:	af370713          	addi	a4,a4,-1293 # eaf3 <_global_impure_ptr+0x456b>
    39ec:	c398                	sw	a4,0(a5)
    39ee:	670d                	lui	a4,0x3
    39f0:	5fe70713          	addi	a4,a4,1534 # 35fe <decrypt+0x1376>
    39f4:	c3d8                	sw	a4,4(a5)
    39f6:	08b05e63          	blez	a1,3a92 <fillrand+0xc2>
    39fa:	1141                	addi	sp,sp,-16
    39fc:	20001f37          	lui	t5,0x20001
    3a00:	8f0f0f13          	addi	t5,t5,-1808 # 200008f0 <a.3>
    3a04:	c622                	sw	s0,12(sp)
    3a06:	20001437          	lui	s0,0x20001
    3a0a:	000f2883          	lw	a7,0(t5)
    3a0e:	004f2683          	lw	a3,4(t5)
    3a12:	8a842703          	lw	a4,-1880(s0) # 200008a8 <count.2>
    3a16:	200013b7          	lui	t2,0x20001
    3a1a:	6841                	lui	a6,0x10
    3a1c:	62a5                	lui	t0,0x9
    3a1e:	6f91                	lui	t6,0x4
    3a20:	c426                	sw	s1,8(sp)
    3a22:	00b50333          	add	t1,a0,a1
    3a26:	4481                	li	s1,0
    3a28:	8ec38e93          	addi	t4,t2,-1812 # 200008ec <r.1>
    3a2c:	4e11                	li	t3,4
    3a2e:	187d                	addi	a6,a6,-1
    3a30:	06928293          	addi	t0,t0,105 # 9069 <im_tab+0x195>
    3a34:	650f8f93          	addi	t6,t6,1616 # 4650 <_ftoa+0x16>
    3a38:	03c70763          	beq	a4,t3,3a66 <fillrand+0x96>
    3a3c:	87ba                	mv	a5,a4
    3a3e:	0705                	addi	a4,a4,1
    3a40:	97f6                	add	a5,a5,t4
    3a42:	0007c783          	lbu	a5,0(a5)
    3a46:	0505                	addi	a0,a0,1
    3a48:	fef50fa3          	sb	a5,-1(a0)
    3a4c:	fe6516e3          	bne	a0,t1,3a38 <fillrand+0x68>
    3a50:	8ae42423          	sw	a4,-1880(s0)
    3a54:	c489                	beqz	s1,3a5e <fillrand+0x8e>
    3a56:	011f2023          	sw	a7,0(t5)
    3a5a:	00df2223          	sw	a3,4(t5)
    3a5e:	4432                	lw	s0,12(sp)
    3a60:	44a2                	lw	s1,8(sp)
    3a62:	0141                	addi	sp,sp,16
    3a64:	8082                	ret
    3a66:	0108f633          	and	a2,a7,a6
    3a6a:	02560633          	mul	a2,a2,t0
    3a6e:	0106f5b3          	and	a1,a3,a6
    3a72:	0108d893          	srli	a7,a7,0x10
    3a76:	82c1                	srli	a3,a3,0x10
    3a78:	4781                	li	a5,0
    3a7a:	4705                	li	a4,1
    3a7c:	4485                	li	s1,1
    3a7e:	03f585b3          	mul	a1,a1,t6
    3a82:	98b2                	add	a7,a7,a2
    3a84:	01089613          	slli	a2,a7,0x10
    3a88:	96ae                	add	a3,a3,a1
    3a8a:	9636                	add	a2,a2,a3
    3a8c:	8ec3a623          	sw	a2,-1812(t2)
    3a90:	bf45                	j	3a40 <fillrand+0x70>
    3a92:	8082                	ret

00003a94 <encfile>:
    3a94:	7139                	addi	sp,sp,-64
    3a96:	d05a                	sw	s6,32(sp)
    3a98:	8b2e                	mv	s6,a1
    3a9a:	da26                	sw	s1,52(sp)
    3a9c:	45c1                	li	a1,16
    3a9e:	84aa                	mv	s1,a0
    3aa0:	855a                	mv	a0,s6
    3aa2:	de06                	sw	ra,60(sp)
    3aa4:	dc22                	sw	s0,56(sp)
    3aa6:	d84a                	sw	s2,48(sp)
    3aa8:	d64e                	sw	s3,44(sp)
    3aaa:	d452                	sw	s4,40(sp)
    3aac:	d256                	sw	s5,36(sp)
    3aae:	ce5e                	sw	s7,28(sp)
    3ab0:	3705                	jal	39d0 <fillrand>
    3ab2:	4585                	li	a1,1
    3ab4:	850a                	mv	a0,sp
    3ab6:	3f29                	jal	39d0 <fillrand>
    3ab8:	00014783          	lbu	a5,0(sp)
    3abc:	41c65a37          	lui	s4,0x41c65
    3ac0:	698d                	lui	s3,0x3
    3ac2:	9bc1                	andi	a5,a5,-16
    3ac4:	80000937          	lui	s2,0x80000
    3ac8:	00f10023          	sb	a5,0(sp)
    3acc:	10000a93          	li	s5,256
    3ad0:	20001bb7          	lui	s7,0x20001
    3ad4:	0800                	addi	s0,sp,16
    3ad6:	e6da0a13          	addi	s4,s4,-403 # 41c64e6d <__kernel_stack+0x21ba4e75>
    3ada:	03998993          	addi	s3,s3,57 # 3039 <decrypt+0xdb1>
    3ade:	fff94913          	not	s2,s2
    3ae2:	8e8ba783          	lw	a5,-1816(s7) # 200008e8 <seed.0>
    3ae6:	870a                	mv	a4,sp
    3ae8:	868a                	mv	a3,sp
    3aea:	034787b3          	mul	a5,a5,s4
    3aee:	0685                	addi	a3,a3,1
    3af0:	97ce                	add	a5,a5,s3
    3af2:	0127f7b3          	and	a5,a5,s2
    3af6:	4107d613          	srai	a2,a5,0x10
    3afa:	fec68fa3          	sb	a2,-1(a3)
    3afe:	fe8696e3          	bne	a3,s0,3aea <encfile+0x56>
    3b02:	8efba423          	sw	a5,-1816(s7)
    3b06:	86da                	mv	a3,s6
    3b08:	00074783          	lbu	a5,0(a4)
    3b0c:	0006c603          	lbu	a2,0(a3)
    3b10:	0705                	addi	a4,a4,1
    3b12:	0685                	addi	a3,a3,1
    3b14:	8fb1                	xor	a5,a5,a2
    3b16:	fef70fa3          	sb	a5,-1(a4)
    3b1a:	fe8717e3          	bne	a4,s0,3b08 <encfile+0x74>
    3b1e:	1afd                	addi	s5,s5,-1
    3b20:	8626                	mv	a2,s1
    3b22:	85da                	mv	a1,s6
    3b24:	850a                	mv	a0,sp
    3b26:	fe7fc0ef          	jal	ra,b0c <encrypt>
    3b2a:	fa0a9ce3          	bnez	s5,3ae2 <encfile+0x4e>
    3b2e:	50f2                	lw	ra,60(sp)
    3b30:	5462                	lw	s0,56(sp)
    3b32:	54d2                	lw	s1,52(sp)
    3b34:	5942                	lw	s2,48(sp)
    3b36:	59b2                	lw	s3,44(sp)
    3b38:	5a22                	lw	s4,40(sp)
    3b3a:	5a92                	lw	s5,36(sp)
    3b3c:	5b02                	lw	s6,32(sp)
    3b3e:	4bf2                	lw	s7,28(sp)
    3b40:	4501                	li	a0,0
    3b42:	6121                	addi	sp,sp,64
    3b44:	8082                	ret

00003b46 <decfile>:
    3b46:	715d                	addi	sp,sp,-80
    3b48:	c2a6                	sw	s1,68(sp)
    3b4a:	d266                	sw	s9,36(sp)
    3b4c:	84aa                	mv	s1,a0
    3b4e:	8cae                	mv	s9,a1
    3b50:	850a                	mv	a0,sp
    3b52:	45c1                	li	a1,16
    3b54:	c4a2                	sw	s0,72(sp)
    3b56:	d65e                	sw	s7,44(sp)
    3b58:	c686                	sw	ra,76(sp)
    3b5a:	c0ca                	sw	s2,64(sp)
    3b5c:	de4e                	sw	s3,60(sp)
    3b5e:	dc52                	sw	s4,56(sp)
    3b60:	da56                	sw	s5,52(sp)
    3b62:	d85a                	sw	s6,48(sp)
    3b64:	d462                	sw	s8,40(sp)
    3b66:	20001437          	lui	s0,0x20001
    3b6a:	359d                	jal	39d0 <fillrand>
    3b6c:	8e842783          	lw	a5,-1816(s0) # 200008e8 <seed.0>
    3b70:	01010b93          	addi	s7,sp,16
    3b74:	41c65537          	lui	a0,0x41c65
    3b78:	658d                	lui	a1,0x3
    3b7a:	80000637          	lui	a2,0x80000
    3b7e:	875e                	mv	a4,s7
    3b80:	02010813          	addi	a6,sp,32
    3b84:	e6d50513          	addi	a0,a0,-403 # 41c64e6d <__kernel_stack+0x21ba4e75>
    3b88:	03958593          	addi	a1,a1,57 # 3039 <decrypt+0xdb1>
    3b8c:	fff64613          	not	a2,a2
    3b90:	02a787b3          	mul	a5,a5,a0
    3b94:	0705                	addi	a4,a4,1
    3b96:	97ae                	add	a5,a5,a1
    3b98:	8ff1                	and	a5,a5,a2
    3b9a:	4107d693          	srai	a3,a5,0x10
    3b9e:	fed70fa3          	sb	a3,-1(a4)
    3ba2:	fee817e3          	bne	a6,a4,3b90 <decfile+0x4a>
    3ba6:	8626                	mv	a2,s1
    3ba8:	85e6                	mv	a1,s9
    3baa:	855e                	mv	a0,s7
    3bac:	8ef42423          	sw	a5,-1816(s0)
    3bb0:	ed8fe0ef          	jal	ra,2288 <decrypt>
    3bb4:	870a                	mv	a4,sp
    3bb6:	87e6                	mv	a5,s9
    3bb8:	0007c683          	lbu	a3,0(a5)
    3bbc:	00074603          	lbu	a2,0(a4)
    3bc0:	0785                	addi	a5,a5,1
    3bc2:	0705                	addi	a4,a4,1
    3bc4:	8eb1                	xor	a3,a3,a2
    3bc6:	fed78fa3          	sb	a3,-1(a5)
    3bca:	feeb97e3          	bne	s7,a4,3bb8 <decfile+0x72>
    3bce:	41c65a37          	lui	s4,0x41c65
    3bd2:	698d                	lui	s3,0x3
    3bd4:	80000937          	lui	s2,0x80000
    3bd8:	10000c13          	li	s8,256
    3bdc:	8b0a                	mv	s6,sp
    3bde:	010c8a93          	addi	s5,s9,16
    3be2:	e6da0a13          	addi	s4,s4,-403 # 41c64e6d <__kernel_stack+0x21ba4e75>
    3be6:	03998993          	addi	s3,s3,57 # 3039 <decrypt+0xdb1>
    3bea:	fff94913          	not	s2,s2
    3bee:	8e842783          	lw	a5,-1816(s0)
    3bf2:	875a                	mv	a4,s6
    3bf4:	010b0613          	addi	a2,s6,16
    3bf8:	034787b3          	mul	a5,a5,s4
    3bfc:	0705                	addi	a4,a4,1
    3bfe:	97ce                	add	a5,a5,s3
    3c00:	0127f7b3          	and	a5,a5,s2
    3c04:	4107d693          	srai	a3,a5,0x10
    3c08:	fed70fa3          	sb	a3,-1(a4)
    3c0c:	fee616e3          	bne	a2,a4,3bf8 <decfile+0xb2>
    3c10:	8626                	mv	a2,s1
    3c12:	85e6                	mv	a1,s9
    3c14:	855a                	mv	a0,s6
    3c16:	8ef42423          	sw	a5,-1816(s0)
    3c1a:	e6efe0ef          	jal	ra,2288 <decrypt>
    3c1e:	86de                	mv	a3,s7
    3c20:	87e6                	mv	a5,s9
    3c22:	0007c703          	lbu	a4,0(a5)
    3c26:	0006c603          	lbu	a2,0(a3)
    3c2a:	0785                	addi	a5,a5,1
    3c2c:	0685                	addi	a3,a3,1
    3c2e:	8f31                	xor	a4,a4,a2
    3c30:	fee78fa3          	sb	a4,-1(a5)
    3c34:	fefa97e3          	bne	s5,a5,3c22 <decfile+0xdc>
    3c38:	1c7d                	addi	s8,s8,-1
    3c3a:	87de                	mv	a5,s7
    3c3c:	8bda                	mv	s7,s6
    3c3e:	000c0463          	beqz	s8,3c46 <decfile+0x100>
    3c42:	8b3e                	mv	s6,a5
    3c44:	b76d                	j	3bee <decfile+0xa8>
    3c46:	40b6                	lw	ra,76(sp)
    3c48:	4426                	lw	s0,72(sp)
    3c4a:	4496                	lw	s1,68(sp)
    3c4c:	4906                	lw	s2,64(sp)
    3c4e:	59f2                	lw	s3,60(sp)
    3c50:	5a62                	lw	s4,56(sp)
    3c52:	5ad2                	lw	s5,52(sp)
    3c54:	5b42                	lw	s6,48(sp)
    3c56:	5bb2                	lw	s7,44(sp)
    3c58:	5c22                	lw	s8,40(sp)
    3c5a:	5c92                	lw	s9,36(sp)
    3c5c:	4501                	li	a0,0
    3c5e:	6161                	addi	sp,sp,80
    3c60:	8082                	ret

00003c62 <verify_benchmark>:
    3c62:	557d                	li	a0,-1
    3c64:	8082                	ret

00003c66 <initialise_benchmark>:
    3c66:	8082                	ret

00003c68 <benchmark>:
    3c68:	da010113          	addi	sp,sp,-608
    3c6c:	20c00613          	li	a2,524
    3c70:	4581                	li	a1,0
    3c72:	00c8                	addi	a0,sp,68
    3c74:	24112e23          	sw	ra,604(sp)
    3c78:	24812c23          	sw	s0,600(sp)
    3c7c:	d202                	sw	zero,36(sp)
    3c7e:	d402                	sw	zero,40(sp)
    3c80:	d602                	sw	zero,44(sp)
    3c82:	d802                	sw	zero,48(sp)
    3c84:	da02                	sw	zero,52(sp)
    3c86:	dc02                	sw	zero,56(sp)
    3c88:	de02                	sw	zero,60(sp)
    3c8a:	c082                	sw	zero,64(sp)
    3c8c:	6f0040ef          	jal	ra,837c <memset>
    3c90:	200017b7          	lui	a5,0x20001
    3c94:	8b07a803          	lw	a6,-1872(a5) # 200008b0 <presetkey>
    3c98:	4701                	li	a4,0
    3c9a:	4781                	li	a5,0
    3c9c:	48a5                	li	a7,9
    3c9e:	4e15                	li	t3,5
    3ca0:	04000313          	li	t1,64
    3ca4:	00084683          	lbu	a3,0(a6) # 10000 <_global_impure_ptr+0x5a78>
    3ca8:	00479513          	slli	a0,a5,0x4
    3cac:	fd068613          	addi	a2,a3,-48
    3cb0:	fbf68593          	addi	a1,a3,-65
    3cb4:	9536                	add	a0,a0,a3
    3cb6:	0ff67613          	andi	a2,a2,255
    3cba:	0ff5f593          	andi	a1,a1,255
    3cbe:	87aa                	mv	a5,a0
    3cc0:	c2c5                	beqz	a3,3d60 <benchmark+0xf8>
    3cc2:	0805                	addi	a6,a6,1
    3cc4:	08c8e963          	bltu	a7,a2,3d56 <benchmark+0xee>
    3cc8:	fd050793          	addi	a5,a0,-48
    3ccc:	00177613          	andi	a2,a4,1
    3cd0:	0705                	addi	a4,a4,1
    3cd2:	40175693          	srai	a3,a4,0x1
    3cd6:	0c8c                	addi	a1,sp,592
    3cd8:	96ae                	add	a3,a3,a1
    3cda:	c219                	beqz	a2,3ce0 <benchmark+0x78>
    3cdc:	dcf689a3          	sb	a5,-557(a3)
    3ce0:	fc6712e3          	bne	a4,t1,3ca4 <benchmark+0x3c>
    3ce4:	00084783          	lbu	a5,0(a6)
    3ce8:	5475                	li	s0,-3
    3cea:	eba1                	bnez	a5,3d3a <benchmark+0xd2>
    3cec:	02000413          	li	s0,32
    3cf0:	00d4                	addi	a3,sp,68
    3cf2:	4605                	li	a2,1
    3cf4:	85a2                	mv	a1,s0
    3cf6:	1048                	addi	a0,sp,36
    3cf8:	8bdfc0ef          	jal	ra,5b4 <set_key>
    3cfc:	004c                	addi	a1,sp,4
    3cfe:	00c8                	addi	a0,sp,68
    3d00:	3b51                	jal	3a94 <encfile>
    3d02:	004c                	addi	a1,sp,4
    3d04:	00c8                	addi	a0,sp,68
    3d06:	3379                	jal	3a94 <encfile>
    3d08:	85aa                	mv	a1,a0
    3d0a:	6529                	lui	a0,0xa
    3d0c:	0d450513          	addi	a0,a0,212 # a0d4 <s_box+0x100>
    3d10:	3b8010ef          	jal	ra,50c8 <printf>
    3d14:	00d4                	addi	a3,sp,68
    3d16:	4609                	li	a2,2
    3d18:	85a2                	mv	a1,s0
    3d1a:	1048                	addi	a0,sp,36
    3d1c:	899fc0ef          	jal	ra,5b4 <set_key>
    3d20:	084c                	addi	a1,sp,20
    3d22:	00c8                	addi	a0,sp,68
    3d24:	350d                	jal	3b46 <decfile>
    3d26:	084c                	addi	a1,sp,20
    3d28:	842a                	mv	s0,a0
    3d2a:	00c8                	addi	a0,sp,68
    3d2c:	3d29                	jal	3b46 <decfile>
    3d2e:	85aa                	mv	a1,a0
    3d30:	6529                	lui	a0,0xa
    3d32:	0e050513          	addi	a0,a0,224 # a0e0 <s_box+0x10c>
    3d36:	392010ef          	jal	ra,50c8 <printf>
    3d3a:	6529                	lui	a0,0xa
    3d3c:	85a2                	mv	a1,s0
    3d3e:	0ec50513          	addi	a0,a0,236 # a0ec <s_box+0x118>
    3d42:	386010ef          	jal	ra,50c8 <printf>
    3d46:	25c12083          	lw	ra,604(sp)
    3d4a:	8522                	mv	a0,s0
    3d4c:	25812403          	lw	s0,600(sp)
    3d50:	26010113          	addi	sp,sp,608
    3d54:	8082                	ret
    3d56:	00be6f63          	bltu	t3,a1,3d74 <benchmark+0x10c>
    3d5a:	fc978793          	addi	a5,a5,-55
    3d5e:	b7bd                	j	3ccc <benchmark+0x64>
    3d60:	47fd                	li	a5,31
    3d62:	5471                	li	s0,-4
    3d64:	fce7dbe3          	bge	a5,a4,3d3a <benchmark+0xd2>
    3d68:	00f77793          	andi	a5,a4,15
    3d6c:	f7f9                	bnez	a5,3d3a <benchmark+0xd2>
    3d6e:	40175413          	srai	s0,a4,0x1
    3d72:	bfbd                	j	3cf0 <benchmark+0x88>
    3d74:	5479                	li	s0,-2
    3d76:	b7d1                	j	3d3a <benchmark+0xd2>

00003d78 <fputc>:
    3d78:	0ff57593          	andi	a1,a0,255
    3d7c:	20000537          	lui	a0,0x20000
    3d80:	00450513          	addi	a0,a0,4 # 20000004 <uart0>
    3d84:	66a0106f          	j	53ee <ck_uart_putc>

00003d88 <main>:
    3d88:	6795                	lui	a5,0x5
    3d8a:	7179                	addi	sp,sp,-48
    3d8c:	b0078793          	addi	a5,a5,-1280 # 4b00 <_vsnprintf+0xc4>
    3d90:	d422                	sw	s0,40(sp)
    3d92:	c43e                	sw	a5,8(sp)
    3d94:	20000437          	lui	s0,0x20000
    3d98:	478d                	li	a5,3
    3d9a:	ca3e                	sw	a5,20(sp)
    3d9c:	4581                	li	a1,0
    3d9e:	4785                	li	a5,1
    3da0:	00440513          	addi	a0,s0,4 # 20000004 <uart0>
    3da4:	d606                	sw	ra,44(sp)
    3da6:	ce3e                	sw	a5,28(sp)
    3da8:	c802                	sw	zero,16(sp)
    3daa:	c602                	sw	zero,12(sp)
    3dac:	570010ef          	jal	ra,531c <ck_uart_open>
    3db0:	002c                	addi	a1,sp,8
    3db2:	00440513          	addi	a0,s0,4
    3db6:	57a010ef          	jal	ra,5330 <ck_uart_init>
    3dba:	357d                	jal	3c68 <benchmark>
    3dbc:	6529                	lui	a0,0xa
    3dbe:	0f450513          	addi	a0,a0,244 # a0f4 <s_box+0x120>
    3dc2:	2bc010ef          	jal	ra,507e <puts>
    3dc6:	50b2                	lw	ra,44(sp)
    3dc8:	5422                	lw	s0,40(sp)
    3dca:	4501                	li	a0,0
    3dcc:	6145                	addi	sp,sp,48
    3dce:	8082                	ret

00003dd0 <os_critical_enter>:
    3dd0:	8082                	ret

00003dd2 <os_critical_exit>:
    3dd2:	8082                	ret

00003dd4 <ck_intc_init>:
    3dd4:	e00007b7          	lui	a5,0xe0000
    3dd8:	0007a023          	sw	zero,0(a5) # e0000000 <__kernel_stack+0xbff40008>
    3ddc:	00810737          	lui	a4,0x810
    3de0:	e08007b7          	lui	a5,0xe0800
    3de4:	40e7a823          	sw	a4,1040(a5) # e0800410 <__kernel_stack+0xc0740418>
    3de8:	8082                	ret

00003dea <_out_buffer>:
    3dea:	00d67563          	bgeu	a2,a3,3df4 <_out_buffer+0xa>
    3dee:	95b2                	add	a1,a1,a2
    3df0:	00a58023          	sb	a0,0(a1)
    3df4:	8082                	ret

00003df6 <_out_null>:
    3df6:	8082                	ret

00003df8 <_out_rev>:
    3df8:	7179                	addi	sp,sp,-48
    3dfa:	d226                	sw	s1,36(sp)
    3dfc:	d04a                	sw	s2,32(sp)
    3dfe:	ce4e                	sw	s3,28(sp)
    3e00:	cc52                	sw	s4,24(sp)
    3e02:	ca56                	sw	s5,20(sp)
    3e04:	c85a                	sw	s6,16(sp)
    3e06:	8ab2                	mv	s5,a2
    3e08:	c462                	sw	s8,8(sp)
    3e0a:	c266                	sw	s9,4(sp)
    3e0c:	c06a                	sw	s10,0(sp)
    3e0e:	d606                	sw	ra,44(sp)
    3e10:	d422                	sw	s0,40(sp)
    3e12:	c65e                	sw	s7,12(sp)
    3e14:	0038f613          	andi	a2,a7,3
    3e18:	8cc6                	mv	s9,a7
    3e1a:	892a                	mv	s2,a0
    3e1c:	89ae                	mv	s3,a1
    3e1e:	8a36                	mv	s4,a3
    3e20:	8b3a                	mv	s6,a4
    3e22:	8d3e                	mv	s10,a5
    3e24:	8c42                	mv	s8,a6
    3e26:	84d6                	mv	s1,s5
    3e28:	e205                	bnez	a2,3e48 <_out_rev+0x50>
    3e2a:	0107ff63          	bgeu	a5,a6,3e48 <_out_rev+0x50>
    3e2e:	40f804b3          	sub	s1,a6,a5
    3e32:	94d6                	add	s1,s1,s5
    3e34:	8456                	mv	s0,s5
    3e36:	8622                	mv	a2,s0
    3e38:	86d2                	mv	a3,s4
    3e3a:	0405                	addi	s0,s0,1
    3e3c:	85ce                	mv	a1,s3
    3e3e:	02000513          	li	a0,32
    3e42:	9902                	jalr	s2
    3e44:	fe9419e3          	bne	s0,s1,3e36 <_out_rev+0x3e>
    3e48:	020d0163          	beqz	s10,3e6a <_out_rev+0x72>
    3e4c:	01ab0433          	add	s0,s6,s10
    3e50:	00940bb3          	add	s7,s0,s1
    3e54:	fff44503          	lbu	a0,-1(s0)
    3e58:	408b8633          	sub	a2,s7,s0
    3e5c:	86d2                	mv	a3,s4
    3e5e:	147d                	addi	s0,s0,-1
    3e60:	85ce                	mv	a1,s3
    3e62:	9902                	jalr	s2
    3e64:	fe8b18e3          	bne	s6,s0,3e54 <_out_rev+0x5c>
    3e68:	94ea                	add	s1,s1,s10
    3e6a:	002cfc93          	andi	s9,s9,2
    3e6e:	020c8063          	beqz	s9,3e8e <_out_rev+0x96>
    3e72:	41548ab3          	sub	s5,s1,s5
    3e76:	018afc63          	bgeu	s5,s8,3e8e <_out_rev+0x96>
    3e7a:	8626                	mv	a2,s1
    3e7c:	0a85                	addi	s5,s5,1
    3e7e:	86d2                	mv	a3,s4
    3e80:	85ce                	mv	a1,s3
    3e82:	02000513          	li	a0,32
    3e86:	0485                	addi	s1,s1,1
    3e88:	9902                	jalr	s2
    3e8a:	ff8ae8e3          	bltu	s5,s8,3e7a <_out_rev+0x82>
    3e8e:	50b2                	lw	ra,44(sp)
    3e90:	5422                	lw	s0,40(sp)
    3e92:	5902                	lw	s2,32(sp)
    3e94:	49f2                	lw	s3,28(sp)
    3e96:	4a62                	lw	s4,24(sp)
    3e98:	4ad2                	lw	s5,20(sp)
    3e9a:	4b42                	lw	s6,16(sp)
    3e9c:	4bb2                	lw	s7,12(sp)
    3e9e:	4c22                	lw	s8,8(sp)
    3ea0:	4c92                	lw	s9,4(sp)
    3ea2:	4d02                	lw	s10,0(sp)
    3ea4:	8526                	mv	a0,s1
    3ea6:	5492                	lw	s1,36(sp)
    3ea8:	6145                	addi	sp,sp,48
    3eaa:	8082                	ret

00003eac <_ntoa_format>:
    3eac:	43a2                	lw	t2,8(sp)
    3eae:	4282                	lw	t0,0(sp)
    3eb0:	4f92                	lw	t6,4(sp)
    3eb2:	0023f313          	andi	t1,t2,2
    3eb6:	8f42                	mv	t5,a6
    3eb8:	04031f63          	bnez	t1,3f16 <_ntoa_format+0x6a>
    3ebc:	0013f813          	andi	a6,t2,1
    3ec0:	0e0f9d63          	bnez	t6,3fba <_ntoa_format+0x10e>
    3ec4:	0257f363          	bgeu	a5,t0,3eea <_ntoa_format+0x3e>
    3ec8:	437d                	li	t1,31
    3eca:	1cf36b63          	bltu	t1,a5,40a0 <_ntoa_format+0x1f4>
    3ece:	03000e13          	li	t3,48
    3ed2:	02000e93          	li	t4,32
    3ed6:	a019                	j	3edc <_ntoa_format+0x30>
    3ed8:	01d78963          	beq	a5,t4,3eea <_ntoa_format+0x3e>
    3edc:	0785                	addi	a5,a5,1
    3ede:	00f70333          	add	t1,a4,a5
    3ee2:	ffc30fa3          	sb	t3,-1(t1)
    3ee6:	fe57e9e3          	bltu	a5,t0,3ed8 <_ntoa_format+0x2c>
    3eea:	02080663          	beqz	a6,3f16 <_ntoa_format+0x6a>
    3eee:	03f7f463          	bgeu	a5,t6,3f16 <_ntoa_format+0x6a>
    3ef2:	02000813          	li	a6,32
    3ef6:	0f078363          	beq	a5,a6,3fdc <_ntoa_format+0x130>
    3efa:	03000e13          	li	t3,48
    3efe:	02000e93          	li	t4,32
    3f02:	a019                	j	3f08 <_ntoa_format+0x5c>
    3f04:	0dd78c63          	beq	a5,t4,3fdc <_ntoa_format+0x130>
    3f08:	0785                	addi	a5,a5,1
    3f0a:	00f70333          	add	t1,a4,a5
    3f0e:	ffc30fa3          	sb	t3,-1(t1)
    3f12:	fff799e3          	bne	a5,t6,3f04 <_ntoa_format+0x58>
    3f16:	0103f813          	andi	a6,t2,16
    3f1a:	06080a63          	beqz	a6,3f8e <_ntoa_format+0xe2>
    3f1e:	4003f813          	andi	a6,t2,1024
    3f22:	04081563          	bnez	a6,3f6c <_ntoa_format+0xc0>
    3f26:	02079f63          	bnez	a5,3f64 <_ntoa_format+0xb8>
    3f2a:	47c1                	li	a5,16
    3f2c:	12f88663          	beq	a7,a5,4058 <_ntoa_format+0x1ac>
    3f30:	4789                	li	a5,2
    3f32:	16f88163          	beq	a7,a5,4094 <_ntoa_format+0x1e8>
    3f36:	03000793          	li	a5,48
    3f3a:	00f70023          	sb	a5,0(a4) # 810000 <_global_impure_ptr+0x805a78>
    3f3e:	4785                	li	a5,1
    3f40:	040f0d63          	beqz	t5,3f9a <_ntoa_format+0xee>
    3f44:	00f70833          	add	a6,a4,a5
    3f48:	02d00893          	li	a7,45
    3f4c:	01180023          	sb	a7,0(a6)
    3f50:	0785                	addi	a5,a5,1
    3f52:	889e                	mv	a7,t2
    3f54:	887e                	mv	a6,t6
    3f56:	b54d                	j	3df8 <_out_rev>
    3f58:	4003f793          	andi	a5,t2,1024
    3f5c:	12079363          	bnez	a5,4082 <_ntoa_format+0x1d6>
    3f60:	02000793          	li	a5,32
    3f64:	0af28e63          	beq	t0,a5,4020 <_ntoa_format+0x174>
    3f68:	0aff8c63          	beq	t6,a5,4020 <_ntoa_format+0x174>
    3f6c:	4841                	li	a6,16
    3f6e:	0d088563          	beq	a7,a6,4038 <_ntoa_format+0x18c>
    3f72:	4809                	li	a6,2
    3f74:	09088c63          	beq	a7,a6,400c <_ntoa_format+0x160>
    3f78:	02000813          	li	a6,32
    3f7c:	fd078be3          	beq	a5,a6,3f52 <_ntoa_format+0xa6>
    3f80:	00f70833          	add	a6,a4,a5
    3f84:	03000893          	li	a7,48
    3f88:	01180023          	sb	a7,0(a6)
    3f8c:	0785                	addi	a5,a5,1
    3f8e:	02000813          	li	a6,32
    3f92:	fd0780e3          	beq	a5,a6,3f52 <_ntoa_format+0xa6>
    3f96:	fa0f17e3          	bnez	t5,3f44 <_ntoa_format+0x98>
    3f9a:	0043f813          	andi	a6,t2,4
    3f9e:	04081d63          	bnez	a6,3ff8 <_ntoa_format+0x14c>
    3fa2:	0083f813          	andi	a6,t2,8
    3fa6:	fa0806e3          	beqz	a6,3f52 <_ntoa_format+0xa6>
    3faa:	00f70833          	add	a6,a4,a5
    3fae:	02000893          	li	a7,32
    3fb2:	01180023          	sb	a7,0(a6)
    3fb6:	0785                	addi	a5,a5,1
    3fb8:	bf69                	j	3f52 <_ntoa_format+0xa6>
    3fba:	02080763          	beqz	a6,3fe8 <_ntoa_format+0x13c>
    3fbe:	040f1f63          	bnez	t5,401c <_ntoa_format+0x170>
    3fc2:	00c3f313          	andi	t1,t2,12
    3fc6:	04031b63          	bnez	t1,401c <_ntoa_format+0x170>
    3fca:	f257f2e3          	bgeu	a5,t0,3eee <_ntoa_format+0x42>
    3fce:	437d                	li	t1,31
    3fd0:	eef37fe3          	bgeu	t1,a5,3ece <_ntoa_format+0x22>
    3fd4:	02000793          	li	a5,32
    3fd8:	f3f7ffe3          	bgeu	a5,t6,3f16 <_ntoa_format+0x6a>
    3fdc:	0103f793          	andi	a5,t2,16
    3fe0:	ffa5                	bnez	a5,3f58 <_ntoa_format+0xac>
    3fe2:	02000793          	li	a5,32
    3fe6:	b7b5                	j	3f52 <_ntoa_format+0xa6>
    3fe8:	f257f7e3          	bgeu	a5,t0,3f16 <_ntoa_format+0x6a>
    3fec:	437d                	li	t1,31
    3fee:	eef370e3          	bgeu	t1,a5,3ece <_ntoa_format+0x22>
    3ff2:	02000793          	li	a5,32
    3ff6:	b705                	j	3f16 <_ntoa_format+0x6a>
    3ff8:	00f70833          	add	a6,a4,a5
    3ffc:	02b00893          	li	a7,43
    4000:	01180023          	sb	a7,0(a6)
    4004:	0785                	addi	a5,a5,1
    4006:	889e                	mv	a7,t2
    4008:	887e                	mv	a6,t6
    400a:	b3fd                	j	3df8 <_out_rev>
    400c:	02000813          	li	a6,32
    4010:	f50781e3          	beq	a5,a6,3f52 <_ntoa_format+0xa6>
    4014:	00f70833          	add	a6,a4,a5
    4018:	0785                	addi	a5,a5,1
    401a:	a055                	j	40be <_ntoa_format+0x212>
    401c:	1ffd                	addi	t6,t6,-1
    401e:	b775                	j	3fca <_ntoa_format+0x11e>
    4020:	fff78813          	addi	a6,a5,-1
    4024:	f00803e3          	beqz	a6,3f2a <_ntoa_format+0x7e>
    4028:	4341                	li	t1,16
    402a:	08688063          	beq	a7,t1,40aa <_ntoa_format+0x1fe>
    402e:	4309                	li	t1,2
    4030:	08688663          	beq	a7,t1,40bc <_ntoa_format+0x210>
    4034:	87c2                	mv	a5,a6
    4036:	b7a9                	j	3f80 <_ntoa_format+0xd4>
    4038:	0203f813          	andi	a6,t2,32
    403c:	02081763          	bnez	a6,406a <_ntoa_format+0x1be>
    4040:	02000813          	li	a6,32
    4044:	f10787e3          	beq	a5,a6,3f52 <_ntoa_format+0xa6>
    4048:	00f708b3          	add	a7,a4,a5
    404c:	0785                	addi	a5,a5,1
    404e:	07800813          	li	a6,120
    4052:	01088023          	sb	a6,0(a7)
    4056:	b70d                	j	3f78 <_ntoa_format+0xcc>
    4058:	0203f793          	andi	a5,t2,32
    405c:	e795                	bnez	a5,4088 <_ntoa_format+0x1dc>
    405e:	07800793          	li	a5,120
    4062:	00f70023          	sb	a5,0(a4)
    4066:	4785                	li	a5,1
    4068:	bf21                	j	3f80 <_ntoa_format+0xd4>
    406a:	02000813          	li	a6,32
    406e:	ef0782e3          	beq	a5,a6,3f52 <_ntoa_format+0xa6>
    4072:	00f70833          	add	a6,a4,a5
    4076:	05800893          	li	a7,88
    407a:	01180023          	sb	a7,0(a6)
    407e:	0785                	addi	a5,a5,1
    4080:	bde5                	j	3f78 <_ntoa_format+0xcc>
    4082:	02000793          	li	a5,32
    4086:	b5dd                	j	3f6c <_ntoa_format+0xc0>
    4088:	05800793          	li	a5,88
    408c:	00f70023          	sb	a5,0(a4)
    4090:	4785                	li	a5,1
    4092:	b5fd                	j	3f80 <_ntoa_format+0xd4>
    4094:	06200793          	li	a5,98
    4098:	00f70023          	sb	a5,0(a4)
    409c:	4785                	li	a5,1
    409e:	b5cd                	j	3f80 <_ntoa_format+0xd4>
    40a0:	02000793          	li	a5,32
    40a4:	e40815e3          	bnez	a6,3eee <_ntoa_format+0x42>
    40a8:	b5bd                	j	3f16 <_ntoa_format+0x6a>
    40aa:	0203f893          	andi	a7,t2,32
    40ae:	17f9                	addi	a5,a5,-2
    40b0:	fc0891e3          	bnez	a7,4072 <_ntoa_format+0x1c6>
    40b4:	00f708b3          	add	a7,a4,a5
    40b8:	87c2                	mv	a5,a6
    40ba:	bf51                	j	404e <_ntoa_format+0x1a2>
    40bc:	983a                	add	a6,a6,a4
    40be:	06200893          	li	a7,98
    40c2:	01180023          	sb	a7,0(a6)
    40c6:	bd4d                	j	3f78 <_ntoa_format+0xcc>

000040c8 <_ntoa_long>:
    40c8:	7139                	addi	sp,sp,-64
    40ca:	dc22                	sw	s0,56(sp)
    40cc:	de06                	sw	ra,60(sp)
    40ce:	8ec2                	mv	t4,a6
    40d0:	4416                	lw	s0,68(sp)
    40d2:	8e3a                	mv	t3,a4
    40d4:	883e                	mv	a6,a5
    40d6:	e709                	bnez	a4,40e0 <_ntoa_long+0x18>
    40d8:	40047793          	andi	a5,s0,1024
    40dc:	983d                	andi	s0,s0,-17
    40de:	e3bd                	bnez	a5,4144 <_ntoa_long+0x7c>
    40e0:	02047713          	andi	a4,s0,32
    40e4:	06100293          	li	t0,97
    40e8:	eb39                	bnez	a4,413e <_ntoa_long+0x76>
    40ea:	4781                	li	a5,0
    40ec:	0818                	addi	a4,sp,16
    40ee:	43a5                	li	t2,9
    40f0:	12d9                	addi	t0,t0,-10
    40f2:	02000093          	li	ra,32
    40f6:	a021                	j	40fe <_ntoa_long+0x36>
    40f8:	02178963          	beq	a5,ra,412a <_ntoa_long+0x62>
    40fc:	8e1a                	mv	t3,t1
    40fe:	03de7f33          	remu	t5,t3,t4
    4102:	0fff7313          	andi	t1,t5,255
    4106:	03030f93          	addi	t6,t1,48
    410a:	9316                	add	t1,t1,t0
    410c:	0ff37313          	andi	t1,t1,255
    4110:	01e3e463          	bltu	t2,t5,4118 <_ntoa_long+0x50>
    4114:	0ffff313          	andi	t1,t6,255
    4118:	0785                	addi	a5,a5,1
    411a:	00f70f33          	add	t5,a4,a5
    411e:	fe6f0fa3          	sb	t1,-1(t5)
    4122:	03de5333          	divu	t1,t3,t4
    4126:	fdde79e3          	bgeu	t3,t4,40f8 <_ntoa_long+0x30>
    412a:	4306                	lw	t1,64(sp)
    412c:	c422                	sw	s0,8(sp)
    412e:	c046                	sw	a7,0(sp)
    4130:	c21a                	sw	t1,4(sp)
    4132:	88f6                	mv	a7,t4
    4134:	3ba5                	jal	3eac <_ntoa_format>
    4136:	50f2                	lw	ra,60(sp)
    4138:	5462                	lw	s0,56(sp)
    413a:	6121                	addi	sp,sp,64
    413c:	8082                	ret
    413e:	04100293          	li	t0,65
    4142:	b765                	j	40ea <_ntoa_long+0x22>
    4144:	4781                	li	a5,0
    4146:	0818                	addi	a4,sp,16
    4148:	b7cd                	j	412a <_ntoa_long+0x62>

0000414a <_ntoa_long_long>:
    414a:	7175                	addi	sp,sp,-144
    414c:	d2d6                	sw	s5,100(sp)
    414e:	d0da                	sw	s6,96(sp)
    4150:	cede                	sw	s7,92(sp)
    4152:	cce2                	sw	s8,88(sp)
    4154:	cae6                	sw	s9,84(sp)
    4156:	c8ea                	sw	s10,80(sp)
    4158:	c6ee                	sw	s11,76(sp)
    415a:	de86                	sw	ra,124(sp)
    415c:	8dbe                	mv	s11,a5
    415e:	dca2                	sw	s0,120(sp)
    4160:	daa6                	sw	s1,116(sp)
    4162:	d8ca                	sw	s2,112(sp)
    4164:	d6ce                	sw	s3,108(sp)
    4166:	d4d2                	sw	s4,104(sp)
    4168:	c746                	sw	a7,140(sp)
    416a:	8fd9                	or	a5,a5,a4
    416c:	cc2a                	sw	a0,24(sp)
    416e:	ce2e                	sw	a1,28(sp)
    4170:	4b4a                	lw	s6,144(sp)
    4172:	8aba                	mv	s5,a4
    4174:	8bb2                	mv	s7,a2
    4176:	8c36                	mv	s8,a3
    4178:	8cc2                	mv	s9,a6
    417a:	8d46                	mv	s10,a7
    417c:	eb89                	bnez	a5,418e <_ntoa_long_long+0x44>
    417e:	477a                	lw	a4,156(sp)
    4180:	47fa                	lw	a5,156(sp)
    4182:	fef77a13          	andi	s4,a4,-17
    4186:	4007f793          	andi	a5,a5,1024
    418a:	cf52                	sw	s4,156(sp)
    418c:	e3bd                	bnez	a5,41f2 <_ntoa_long_long+0xa8>
    418e:	47fa                	lw	a5,156(sp)
    4190:	06100413          	li	s0,97
    4194:	0207f793          	andi	a5,a5,32
    4198:	e3c5                	bnez	a5,4238 <_ntoa_long_long+0xee>
    419a:	4a01                	li	s4,0
    419c:	1004                	addi	s1,sp,32
    419e:	4925                	li	s2,9
    41a0:	1459                	addi	s0,s0,-10
    41a2:	02000993          	li	s3,32
    41a6:	866a                	mv	a2,s10
    41a8:	86da                	mv	a3,s6
    41aa:	8556                	mv	a0,s5
    41ac:	85ee                	mv	a1,s11
    41ae:	69e010ef          	jal	ra,584c <__umoddi3>
    41b2:	0ff57513          	andi	a0,a0,255
    41b6:	00850833          	add	a6,a0,s0
    41ba:	03050613          	addi	a2,a0,48
    41be:	0ff87813          	andi	a6,a6,255
    41c2:	00a96463          	bltu	s2,a0,41ca <_ntoa_long_long+0x80>
    41c6:	0ff67813          	andi	a6,a2,255
    41ca:	0a05                	addi	s4,s4,1
    41cc:	014488b3          	add	a7,s1,s4
    41d0:	8556                	mv	a0,s5
    41d2:	85ee                	mv	a1,s11
    41d4:	866a                	mv	a2,s10
    41d6:	86da                	mv	a3,s6
    41d8:	ff088fa3          	sb	a6,-1(a7)
    41dc:	310010ef          	jal	ra,54ec <__udivdi3>
    41e0:	016deb63          	bltu	s11,s6,41f6 <_ntoa_long_long+0xac>
    41e4:	05bb0763          	beq	s6,s11,4232 <_ntoa_long_long+0xe8>
    41e8:	013a0763          	beq	s4,s3,41f6 <_ntoa_long_long+0xac>
    41ec:	8aaa                	mv	s5,a0
    41ee:	8dae                	mv	s11,a1
    41f0:	bf5d                	j	41a6 <_ntoa_long_long+0x5c>
    41f2:	4a01                	li	s4,0
    41f4:	1004                	addi	s1,sp,32
    41f6:	476a                	lw	a4,152(sp)
    41f8:	47fa                	lw	a5,156(sp)
    41fa:	45f2                	lw	a1,28(sp)
    41fc:	c23a                	sw	a4,4(sp)
    41fe:	475a                	lw	a4,148(sp)
    4200:	4562                	lw	a0,24(sp)
    4202:	c43e                	sw	a5,8(sp)
    4204:	c03a                	sw	a4,0(sp)
    4206:	88ea                	mv	a7,s10
    4208:	8866                	mv	a6,s9
    420a:	87d2                	mv	a5,s4
    420c:	8726                	mv	a4,s1
    420e:	86e2                	mv	a3,s8
    4210:	865e                	mv	a2,s7
    4212:	3969                	jal	3eac <_ntoa_format>
    4214:	50f6                	lw	ra,124(sp)
    4216:	5466                	lw	s0,120(sp)
    4218:	54d6                	lw	s1,116(sp)
    421a:	5946                	lw	s2,112(sp)
    421c:	59b6                	lw	s3,108(sp)
    421e:	5a26                	lw	s4,104(sp)
    4220:	5a96                	lw	s5,100(sp)
    4222:	5b06                	lw	s6,96(sp)
    4224:	4bf6                	lw	s7,92(sp)
    4226:	4c66                	lw	s8,88(sp)
    4228:	4cd6                	lw	s9,84(sp)
    422a:	4d46                	lw	s10,80(sp)
    422c:	4db6                	lw	s11,76(sp)
    422e:	6149                	addi	sp,sp,144
    4230:	8082                	ret
    4232:	fbaafbe3          	bgeu	s5,s10,41e8 <_ntoa_long_long+0x9e>
    4236:	b7c1                	j	41f6 <_ntoa_long_long+0xac>
    4238:	04100413          	li	s0,65
    423c:	bfb9                	j	419a <_ntoa_long_long+0x50>

0000423e <_etoa>:
    423e:	7119                	addi	sp,sp,-128
    4240:	d8ca                	sw	s2,112(sp)
    4242:	d6ce                	sw	s3,108(sp)
    4244:	d4d2                	sw	s4,104(sp)
    4246:	d2d6                	sw	s5,100(sp)
    4248:	89aa                	mv	s3,a0
    424a:	8a2e                	mv	s4,a1
    424c:	8932                	mv	s2,a2
    424e:	8ab6                	mv	s5,a3
    4250:	863a                	mv	a2,a4
    4252:	86be                	mv	a3,a5
    4254:	853a                	mv	a0,a4
    4256:	85be                	mv	a1,a5
    4258:	dca2                	sw	s0,120(sp)
    425a:	daa6                	sw	s1,116(sp)
    425c:	d0da                	sw	s6,96(sp)
    425e:	cce2                	sw	s8,88(sp)
    4260:	cae6                	sw	s9,84(sp)
    4262:	de86                	sw	ra,124(sp)
    4264:	cede                	sw	s7,92(sp)
    4266:	c8ea                	sw	s10,80(sp)
    4268:	c6ee                	sw	s11,76(sp)
    426a:	843a                	mv	s0,a4
    426c:	84be                	mv	s1,a5
    426e:	8c42                	mv	s8,a6
    4270:	8b46                	mv	s6,a7
    4272:	05f020ef          	jal	ra,6ad0 <__eqdf2>
    4276:	4c8a                	lw	s9,128(sp)
    4278:	36051063          	bnez	a0,45d8 <_etoa+0x39a>
    427c:	67a9                	lui	a5,0xa
    427e:	4f07a603          	lw	a2,1264(a5) # a4f0 <__erodata>
    4282:	4f47a683          	lw	a3,1268(a5)
    4286:	8522                	mv	a0,s0
    4288:	85a6                	mv	a1,s1
    428a:	0eb020ef          	jal	ra,6b74 <__gedf2>
    428e:	34a04563          	bgtz	a0,45d8 <_etoa+0x39a>
    4292:	67a9                	lui	a5,0xa
    4294:	4f87a603          	lw	a2,1272(a5) # a4f8 <__erodata+0x8>
    4298:	4fc7a683          	lw	a3,1276(a5)
    429c:	8522                	mv	a0,s0
    429e:	85a6                	mv	a1,s1
    42a0:	18b020ef          	jal	ra,6c2a <__ledf2>
    42a4:	32054a63          	bltz	a0,45d8 <_etoa+0x39a>
    42a8:	8522                	mv	a0,s0
    42aa:	85a6                	mv	a1,s1
    42ac:	4601                	li	a2,0
    42ae:	4681                	li	a3,0
    42b0:	17b020ef          	jal	ra,6c2a <__ledf2>
    42b4:	80000bb7          	lui	s7,0x80000
    42b8:	d222                	sw	s0,36(sp)
    42ba:	009bcbb3          	xor	s7,s7,s1
    42be:	00054363          	bltz	a0,42c4 <_etoa+0x86>
    42c2:	8ba6                	mv	s7,s1
    42c4:	400cf793          	andi	a5,s9,1024
    42c8:	de3e                	sw	a5,60(sp)
    42ca:	e391                	bnez	a5,42ce <_etoa+0x90>
    42cc:	4c19                	li	s8,6
    42ce:	014bd513          	srli	a0,s7,0x14
    42d2:	7ff57513          	andi	a0,a0,2047
    42d6:	c0150513          	addi	a0,a0,-1023
    42da:	1d1030ef          	jal	ra,7caa <__floatsidf>
    42de:	67a9                	lui	a5,0xa
    42e0:	5007a603          	lw	a2,1280(a5) # a500 <__erodata+0x10>
    42e4:	5047a683          	lw	a3,1284(a5)
    42e8:	1f9020ef          	jal	ra,6ce0 <__muldf3>
    42ec:	67a9                	lui	a5,0xa
    42ee:	5087a603          	lw	a2,1288(a5) # a508 <__erodata+0x18>
    42f2:	50c7a683          	lw	a3,1292(a5)
    42f6:	097010ef          	jal	ra,5b8c <__adddf3>
    42fa:	00cb9793          	slli	a5,s7,0xc
    42fe:	00c7d713          	srli	a4,a5,0xc
    4302:	67a9                	lui	a5,0xa
    4304:	5107a603          	lw	a2,1296(a5) # a510 <__erodata+0x20>
    4308:	5147a683          	lw	a3,1300(a5)
    430c:	3ff007b7          	lui	a5,0x3ff00
    4310:	8fd9                	or	a5,a5,a4
    4312:	8daa                	mv	s11,a0
    4314:	8d2e                	mv	s10,a1
    4316:	8522                	mv	a0,s0
    4318:	85be                	mv	a1,a5
    431a:	765020ef          	jal	ra,727e <__subdf3>
    431e:	67a9                	lui	a5,0xa
    4320:	5187a603          	lw	a2,1304(a5) # a518 <__erodata+0x28>
    4324:	51c7a683          	lw	a3,1308(a5)
    4328:	1b9020ef          	jal	ra,6ce0 <__muldf3>
    432c:	862a                	mv	a2,a0
    432e:	86ae                	mv	a3,a1
    4330:	856e                	mv	a0,s11
    4332:	85ea                	mv	a1,s10
    4334:	059010ef          	jal	ra,5b8c <__adddf3>
    4338:	013030ef          	jal	ra,7b4a <__fixdfsi>
    433c:	8d2a                	mv	s10,a0
    433e:	16d030ef          	jal	ra,7caa <__floatsidf>
    4342:	67a9                	lui	a5,0xa
    4344:	5207a603          	lw	a2,1312(a5) # a520 <__erodata+0x30>
    4348:	5247a683          	lw	a3,1316(a5)
    434c:	8dae                	mv	s11,a1
    434e:	cc2a                	sw	a0,24(sp)
    4350:	191020ef          	jal	ra,6ce0 <__muldf3>
    4354:	6729                	lui	a4,0xa
    4356:	52872603          	lw	a2,1320(a4) # a528 <__erodata+0x38>
    435a:	52c72683          	lw	a3,1324(a4)
    435e:	02f010ef          	jal	ra,5b8c <__adddf3>
    4362:	7e8030ef          	jal	ra,7b4a <__fixdfsi>
    4366:	47e2                	lw	a5,24(sp)
    4368:	66a9                	lui	a3,0xa
    436a:	5306a603          	lw	a2,1328(a3) # a530 <__erodata+0x40>
    436e:	5346a683          	lw	a3,1332(a3)
    4372:	872a                	mv	a4,a0
    4374:	85ee                	mv	a1,s11
    4376:	853e                	mv	a0,a5
    4378:	8dba                	mv	s11,a4
    437a:	167020ef          	jal	ra,6ce0 <__muldf3>
    437e:	87aa                	mv	a5,a0
    4380:	856e                	mv	a0,s11
    4382:	cc3e                	sw	a5,24(sp)
    4384:	d46e                	sw	s11,40(sp)
    4386:	8dae                	mv	s11,a1
    4388:	123030ef          	jal	ra,7caa <__floatsidf>
    438c:	6729                	lui	a4,0xa
    438e:	53872603          	lw	a2,1336(a4) # a538 <__erodata+0x48>
    4392:	53c72683          	lw	a3,1340(a4)
    4396:	14b020ef          	jal	ra,6ce0 <__muldf3>
    439a:	47e2                	lw	a5,24(sp)
    439c:	862a                	mv	a2,a0
    439e:	86ae                	mv	a3,a1
    43a0:	853e                	mv	a0,a5
    43a2:	85ee                	mv	a1,s11
    43a4:	6db020ef          	jal	ra,727e <__subdf3>
    43a8:	862a                	mv	a2,a0
    43aa:	86ae                	mv	a3,a1
    43ac:	d62a                	sw	a0,44(sp)
    43ae:	cc2e                	sw	a1,24(sp)
    43b0:	131020ef          	jal	ra,6ce0 <__muldf3>
    43b4:	47e2                	lw	a5,24(sp)
    43b6:	5732                	lw	a4,44(sp)
    43b8:	8daa                	mv	s11,a0
    43ba:	86be                	mv	a3,a5
    43bc:	882e                	mv	a6,a1
    43be:	863a                	mv	a2,a4
    43c0:	85be                	mv	a1,a5
    43c2:	853a                	mv	a0,a4
    43c4:	da3e                	sw	a5,52(sp)
    43c6:	dc3a                	sw	a4,56(sp)
    43c8:	cc42                	sw	a6,24(sp)
    43ca:	7c2010ef          	jal	ra,5b8c <__adddf3>
    43ce:	66a9                	lui	a3,0xa
    43d0:	882e                	mv	a6,a1
    43d2:	5406a603          	lw	a2,1344(a3) # a540 <__erodata+0x50>
    43d6:	45e2                	lw	a1,24(sp)
    43d8:	5446a683          	lw	a3,1348(a3)
    43dc:	88aa                	mv	a7,a0
    43de:	856e                	mv	a0,s11
    43e0:	d846                	sw	a7,48(sp)
    43e2:	d642                	sw	a6,44(sp)
    43e4:	060020ef          	jal	ra,6444 <__divdf3>
    43e8:	6729                	lui	a4,0xa
    43ea:	54872603          	lw	a2,1352(a4) # a548 <__erodata+0x58>
    43ee:	54c72683          	lw	a3,1356(a4)
    43f2:	79a010ef          	jal	ra,5b8c <__adddf3>
    43f6:	86ae                	mv	a3,a1
    43f8:	45e2                	lw	a1,24(sp)
    43fa:	862a                	mv	a2,a0
    43fc:	856e                	mv	a0,s11
    43fe:	046020ef          	jal	ra,6444 <__divdf3>
    4402:	66a9                	lui	a3,0xa
    4404:	5506a603          	lw	a2,1360(a3) # a550 <__erodata+0x60>
    4408:	5546a683          	lw	a3,1364(a3)
    440c:	780010ef          	jal	ra,5b8c <__adddf3>
    4410:	86ae                	mv	a3,a1
    4412:	45e2                	lw	a1,24(sp)
    4414:	862a                	mv	a2,a0
    4416:	856e                	mv	a0,s11
    4418:	02c020ef          	jal	ra,6444 <__divdf3>
    441c:	5762                	lw	a4,56(sp)
    441e:	57d2                	lw	a5,52(sp)
    4420:	66a9                	lui	a3,0xa
    4422:	832a                	mv	t1,a0
    4424:	8dae                	mv	s11,a1
    4426:	5586a503          	lw	a0,1368(a3) # a558 <__erodata+0x68>
    442a:	55c6a583          	lw	a1,1372(a3)
    442e:	863a                	mv	a2,a4
    4430:	86be                	mv	a3,a5
    4432:	cc1a                	sw	t1,24(sp)
    4434:	64b020ef          	jal	ra,727e <__subdf3>
    4438:	4362                	lw	t1,24(sp)
    443a:	862a                	mv	a2,a0
    443c:	86ae                	mv	a3,a1
    443e:	851a                	mv	a0,t1
    4440:	85ee                	mv	a1,s11
    4442:	74a010ef          	jal	ra,5b8c <__adddf3>
    4446:	58c2                	lw	a7,48(sp)
    4448:	5832                	lw	a6,44(sp)
    444a:	862a                	mv	a2,a0
    444c:	86ae                	mv	a3,a1
    444e:	8546                	mv	a0,a7
    4450:	85c2                	mv	a1,a6
    4452:	7f3010ef          	jal	ra,6444 <__divdf3>
    4456:	67a9                	lui	a5,0xa
    4458:	5607a603          	lw	a2,1376(a5) # a560 <__erodata+0x70>
    445c:	5647a683          	lw	a3,1380(a5)
    4460:	72c010ef          	jal	ra,5b8c <__adddf3>
    4464:	57a2                	lw	a5,40(sp)
    4466:	4601                	li	a2,0
    4468:	3ff78793          	addi	a5,a5,1023
    446c:	07d2                	slli	a5,a5,0x14
    446e:	86be                	mv	a3,a5
    4470:	071020ef          	jal	ra,6ce0 <__muldf3>
    4474:	8622                	mv	a2,s0
    4476:	86de                	mv	a3,s7
    4478:	8daa                	mv	s11,a0
    447a:	cc2e                	sw	a1,24(sp)
    447c:	6f8020ef          	jal	ra,6b74 <__gedf2>
    4480:	18a04463          	bgtz	a0,4608 <_etoa+0x3ca>
    4484:	43e2                	lw	t2,24(sp)
    4486:	836e                	mv	t1,s11
    4488:	063d0d93          	addi	s11,s10,99
    448c:	00bcd793          	srli	a5,s9,0xb
    4490:	0c600713          	li	a4,198
    4494:	01b73db3          	sltu	s11,a4,s11
    4498:	8b85                	andi	a5,a5,1
    449a:	0d91                	addi	s11,s11,4
    449c:	c7a1                	beqz	a5,44e4 <_etoa+0x2a6>
    449e:	67a9                	lui	a5,0xa
    44a0:	5687a603          	lw	a2,1384(a5) # a568 <__erodata+0x78>
    44a4:	56c7a683          	lw	a3,1388(a5)
    44a8:	8522                	mv	a0,s0
    44aa:	85de                	mv	a1,s7
    44ac:	cc1a                	sw	t1,24(sp)
    44ae:	ce1e                	sw	t2,28(sp)
    44b0:	6c4020ef          	jal	ra,6b74 <__gedf2>
    44b4:	4362                	lw	t1,24(sp)
    44b6:	43f2                	lw	t2,28(sp)
    44b8:	00054f63          	bltz	a0,44d6 <_etoa+0x298>
    44bc:	67a9                	lui	a5,0xa
    44be:	5707a603          	lw	a2,1392(a5) # a570 <__erodata+0x80>
    44c2:	5747a683          	lw	a3,1396(a5)
    44c6:	8522                	mv	a0,s0
    44c8:	85de                	mv	a1,s7
    44ca:	760020ef          	jal	ra,6c2a <__ledf2>
    44ce:	4362                	lw	t1,24(sp)
    44d0:	43f2                	lw	t2,28(sp)
    44d2:	14054863          	bltz	a0,4622 <_etoa+0x3e4>
    44d6:	000c0763          	beqz	s8,44e4 <_etoa+0x2a6>
    44da:	57f2                	lw	a5,60(sp)
    44dc:	00f037b3          	snez	a5,a5
    44e0:	40fc0c33          	sub	s8,s8,a5
    44e4:	4881                	li	a7,0
    44e6:	016df463          	bgeu	s11,s6,44ee <_etoa+0x2b0>
    44ea:	41bb08b3          	sub	a7,s6,s11
    44ee:	002cf793          	andi	a5,s9,2
    44f2:	d43e                	sw	a5,40(sp)
    44f4:	c799                	beqz	a5,4502 <_etoa+0x2c4>
    44f6:	001db793          	seqz	a5,s11
    44fa:	40f007b3          	neg	a5,a5
    44fe:	00f8f8b3          	and	a7,a7,a5
    4502:	000d0c63          	beqz	s10,451a <_etoa+0x2dc>
    4506:	85de                	mv	a1,s7
    4508:	8522                	mv	a0,s0
    450a:	861a                	mv	a2,t1
    450c:	869e                	mv	a3,t2
    450e:	cc46                	sw	a7,24(sp)
    4510:	735010ef          	jal	ra,6444 <__divdf3>
    4514:	48e2                	lw	a7,24(sp)
    4516:	d22a                	sw	a0,36(sp)
    4518:	8bae                	mv	s7,a1
    451a:	8522                	mv	a0,s0
    451c:	85a6                	mv	a1,s1
    451e:	4601                	li	a2,0
    4520:	4681                	li	a3,0
    4522:	cc46                	sw	a7,24(sp)
    4524:	706020ef          	jal	ra,6c2a <__ledf2>
    4528:	48e2                	lw	a7,24(sp)
    452a:	00055663          	bgez	a0,4536 <_etoa+0x2f8>
    452e:	800007b7          	lui	a5,0x80000
    4532:	0177cbb3          	xor	s7,a5,s7
    4536:	5512                	lw	a0,36(sp)
    4538:	77fd                	lui	a5,0xfffff
    453a:	7ff78793          	addi	a5,a5,2047 # fffff7ff <__kernel_stack+0xdff3f807>
    453e:	00fcf7b3          	and	a5,s9,a5
    4542:	c03e                	sw	a5,0(sp)
    4544:	872a                	mv	a4,a0
    4546:	8862                	mv	a6,s8
    4548:	87de                	mv	a5,s7
    454a:	86d6                	mv	a3,s5
    454c:	864a                	mv	a2,s2
    454e:	85d2                	mv	a1,s4
    4550:	854e                	mv	a0,s3
    4552:	20e5                	jal	463a <_ftoa>
    4554:	842a                	mv	s0,a0
    4556:	060d8163          	beqz	s11,45b8 <_etoa+0x37a>
    455a:	01ac9513          	slli	a0,s9,0x1a
    455e:	857d                	srai	a0,a0,0x1f
    4560:	9901                	andi	a0,a0,-32
    4562:	8622                	mv	a2,s0
    4564:	86d6                	mv	a3,s5
    4566:	85d2                	mv	a1,s4
    4568:	06550513          	addi	a0,a0,101
    456c:	9982                	jalr	s3
    456e:	41fd5713          	srai	a4,s10,0x1f
    4572:	01a746b3          	xor	a3,a4,s10
    4576:	4795                	li	a5,5
    4578:	1dfd                	addi	s11,s11,-1
    457a:	00140613          	addi	a2,s0,1
    457e:	c23e                	sw	a5,4(sp)
    4580:	40e68733          	sub	a4,a3,a4
    4584:	01fd5793          	srli	a5,s10,0x1f
    4588:	c06e                	sw	s11,0(sp)
    458a:	4881                	li	a7,0
    458c:	4829                	li	a6,10
    458e:	86d6                	mv	a3,s5
    4590:	85d2                	mv	a1,s4
    4592:	854e                	mv	a0,s3
    4594:	3e15                	jal	40c8 <_ntoa_long>
    4596:	57a2                	lw	a5,40(sp)
    4598:	842a                	mv	s0,a0
    459a:	cf99                	beqz	a5,45b8 <_etoa+0x37a>
    459c:	41250933          	sub	s2,a0,s2
    45a0:	01697c63          	bgeu	s2,s6,45b8 <_etoa+0x37a>
    45a4:	8622                	mv	a2,s0
    45a6:	0905                	addi	s2,s2,1
    45a8:	86d6                	mv	a3,s5
    45aa:	85d2                	mv	a1,s4
    45ac:	02000513          	li	a0,32
    45b0:	0405                	addi	s0,s0,1
    45b2:	9982                	jalr	s3
    45b4:	ff6968e3          	bltu	s2,s6,45a4 <_etoa+0x366>
    45b8:	50f6                	lw	ra,124(sp)
    45ba:	8522                	mv	a0,s0
    45bc:	5466                	lw	s0,120(sp)
    45be:	54d6                	lw	s1,116(sp)
    45c0:	5946                	lw	s2,112(sp)
    45c2:	59b6                	lw	s3,108(sp)
    45c4:	5a26                	lw	s4,104(sp)
    45c6:	5a96                	lw	s5,100(sp)
    45c8:	5b06                	lw	s6,96(sp)
    45ca:	4bf6                	lw	s7,92(sp)
    45cc:	4c66                	lw	s8,88(sp)
    45ce:	4cd6                	lw	s9,84(sp)
    45d0:	4d46                	lw	s10,80(sp)
    45d2:	4db6                	lw	s11,76(sp)
    45d4:	6109                	addi	sp,sp,128
    45d6:	8082                	ret
    45d8:	8722                	mv	a4,s0
    45da:	5466                	lw	s0,120(sp)
    45dc:	c166                	sw	s9,128(sp)
    45de:	50f6                	lw	ra,124(sp)
    45e0:	4bf6                	lw	s7,92(sp)
    45e2:	4cd6                	lw	s9,84(sp)
    45e4:	4d46                	lw	s10,80(sp)
    45e6:	4db6                	lw	s11,76(sp)
    45e8:	87a6                	mv	a5,s1
    45ea:	88da                	mv	a7,s6
    45ec:	54d6                	lw	s1,116(sp)
    45ee:	5b06                	lw	s6,96(sp)
    45f0:	8862                	mv	a6,s8
    45f2:	86d6                	mv	a3,s5
    45f4:	4c66                	lw	s8,88(sp)
    45f6:	5a96                	lw	s5,100(sp)
    45f8:	864a                	mv	a2,s2
    45fa:	85d2                	mv	a1,s4
    45fc:	5946                	lw	s2,112(sp)
    45fe:	5a26                	lw	s4,104(sp)
    4600:	854e                	mv	a0,s3
    4602:	59b6                	lw	s3,108(sp)
    4604:	6109                	addi	sp,sp,128
    4606:	a815                	j	463a <_ftoa>
    4608:	67a9                	lui	a5,0xa
    460a:	5487a603          	lw	a2,1352(a5) # a548 <__erodata+0x58>
    460e:	54c7a683          	lw	a3,1356(a5)
    4612:	45e2                	lw	a1,24(sp)
    4614:	856e                	mv	a0,s11
    4616:	1d7d                	addi	s10,s10,-1
    4618:	62d010ef          	jal	ra,6444 <__divdf3>
    461c:	832a                	mv	t1,a0
    461e:	83ae                	mv	t2,a1
    4620:	b5a5                	j	4488 <_etoa+0x24a>
    4622:	018d5a63          	bge	s10,s8,4636 <_etoa+0x3f8>
    4626:	41ac0c33          	sub	s8,s8,s10
    462a:	1c7d                	addi	s8,s8,-1
    462c:	400cec93          	ori	s9,s9,1024
    4630:	4d81                	li	s11,0
    4632:	4d01                	li	s10,0
    4634:	bd45                	j	44e4 <_etoa+0x2a6>
    4636:	4c01                	li	s8,0
    4638:	bfd5                	j	462c <_etoa+0x3ee>

0000463a <_ftoa>:
    463a:	7119                	addi	sp,sp,-128
    463c:	d6ce                	sw	s3,108(sp)
    463e:	d4d2                	sw	s4,104(sp)
    4640:	d2d6                	sw	s5,100(sp)
    4642:	cce2                	sw	s8,88(sp)
    4644:	89aa                	mv	s3,a0
    4646:	8a2e                	mv	s4,a1
    4648:	8ab2                	mv	s5,a2
    464a:	8c36                	mv	s8,a3
    464c:	863a                	mv	a2,a4
    464e:	86be                	mv	a3,a5
    4650:	853a                	mv	a0,a4
    4652:	85be                	mv	a1,a5
    4654:	dca2                	sw	s0,120(sp)
    4656:	daa6                	sw	s1,116(sp)
    4658:	d8ca                	sw	s2,112(sp)
    465a:	d0da                	sw	s6,96(sp)
    465c:	cae6                	sw	s9,84(sp)
    465e:	de86                	sw	ra,124(sp)
    4660:	cede                	sw	s7,92(sp)
    4662:	c8ea                	sw	s10,80(sp)
    4664:	c6ee                	sw	s11,76(sp)
    4666:	84ba                	mv	s1,a4
    4668:	843e                	mv	s0,a5
    466a:	8b42                	mv	s6,a6
    466c:	8946                	mv	s2,a7
    466e:	462020ef          	jal	ra,6ad0 <__eqdf2>
    4672:	4c8a                	lw	s9,128(sp)
    4674:	16051d63          	bnez	a0,47ee <_ftoa+0x1b4>
    4678:	67a9                	lui	a5,0xa
    467a:	4f87a603          	lw	a2,1272(a5) # a4f8 <__erodata+0x8>
    467e:	4fc7a683          	lw	a3,1276(a5)
    4682:	8526                	mv	a0,s1
    4684:	85a2                	mv	a1,s0
    4686:	5a4020ef          	jal	ra,6c2a <__ledf2>
    468a:	1e054463          	bltz	a0,4872 <_ftoa+0x238>
    468e:	67a9                	lui	a5,0xa
    4690:	4f07a603          	lw	a2,1264(a5) # a4f0 <__erodata>
    4694:	4f47a683          	lw	a3,1268(a5)
    4698:	8526                	mv	a0,s1
    469a:	85a2                	mv	a1,s0
    469c:	4d8020ef          	jal	ra,6b74 <__gedf2>
    46a0:	12a04d63          	bgtz	a0,47da <_ftoa+0x1a0>
    46a4:	67a9                	lui	a5,0xa
    46a6:	5787a603          	lw	a2,1400(a5) # a578 <__erodata+0x88>
    46aa:	57c7a683          	lw	a3,1404(a5)
    46ae:	8526                	mv	a0,s1
    46b0:	85a2                	mv	a1,s0
    46b2:	4c2020ef          	jal	ra,6b74 <__gedf2>
    46b6:	18a04663          	bgtz	a0,4842 <_ftoa+0x208>
    46ba:	67a9                	lui	a5,0xa
    46bc:	5807a603          	lw	a2,1408(a5) # a580 <__erodata+0x90>
    46c0:	5847a683          	lw	a3,1412(a5)
    46c4:	8526                	mv	a0,s1
    46c6:	85a2                	mv	a1,s0
    46c8:	562020ef          	jal	ra,6c2a <__ledf2>
    46cc:	16054b63          	bltz	a0,4842 <_ftoa+0x208>
    46d0:	8526                	mv	a0,s1
    46d2:	85a2                	mv	a1,s0
    46d4:	4601                	li	a2,0
    46d6:	4681                	li	a3,0
    46d8:	552020ef          	jal	ra,6c2a <__ledf2>
    46dc:	14054863          	bltz	a0,482c <_ftoa+0x1f2>
    46e0:	ce02                	sw	zero,28(sp)
    46e2:	400cf793          	andi	a5,s9,1024
    46e6:	e391                	bnez	a5,46ea <_ftoa+0xb0>
    46e8:	4b19                	li	s6,6
    46ea:	1014                	addi	a3,sp,32
    46ec:	fe0b0513          	addi	a0,s6,-32
    46f0:	8bda                	mv	s7,s6
    46f2:	4625                	li	a2,9
    46f4:	03000593          	li	a1,48
    46f8:	a039                	j	4706 <_ftoa+0xcc>
    46fa:	00b68023          	sb	a1,0(a3)
    46fe:	1bfd                	addi	s7,s7,-1
    4700:	0685                	addi	a3,a3,1
    4702:	26ab8363          	beq	s7,a0,4968 <_ftoa+0x32e>
    4706:	417b0db3          	sub	s11,s6,s7
    470a:	ff7668e3          	bltu	a2,s7,46fa <_ftoa+0xc0>
    470e:	85a2                	mv	a1,s0
    4710:	8526                	mv	a0,s1
    4712:	438030ef          	jal	ra,7b4a <__fixdfsi>
    4716:	6629                	lui	a2,0xa
    4718:	32860613          	addi	a2,a2,808 # a328 <pow10.0>
    471c:	003b9693          	slli	a3,s7,0x3
    4720:	96b2                	add	a3,a3,a2
    4722:	0046a803          	lw	a6,4(a3)
    4726:	429c                	lw	a5,0(a3)
    4728:	8d2a                	mv	s10,a0
    472a:	c642                	sw	a6,12(sp)
    472c:	c43e                	sw	a5,8(sp)
    472e:	57c030ef          	jal	ra,7caa <__floatsidf>
    4732:	862a                	mv	a2,a0
    4734:	86ae                	mv	a3,a1
    4736:	8526                	mv	a0,s1
    4738:	85a2                	mv	a1,s0
    473a:	345020ef          	jal	ra,727e <__subdf3>
    473e:	4622                	lw	a2,8(sp)
    4740:	46b2                	lw	a3,12(sp)
    4742:	59e020ef          	jal	ra,6ce0 <__muldf3>
    4746:	ca2e                	sw	a1,20(sp)
    4748:	cc2a                	sw	a0,24(sp)
    474a:	4c6030ef          	jal	ra,7c10 <__fixunsdfsi>
    474e:	8b2a                	mv	s6,a0
    4750:	5c0030ef          	jal	ra,7d10 <__floatunsidf>
    4754:	47d2                	lw	a5,20(sp)
    4756:	4362                	lw	t1,24(sp)
    4758:	862a                	mv	a2,a0
    475a:	86ae                	mv	a3,a1
    475c:	851a                	mv	a0,t1
    475e:	85be                	mv	a1,a5
    4760:	31f020ef          	jal	ra,727e <__subdf3>
    4764:	6729                	lui	a4,0xa
    4766:	52872303          	lw	t1,1320(a4) # a528 <__erodata+0x38>
    476a:	52c72383          	lw	t2,1324(a4)
    476e:	ca2a                	sw	a0,20(sp)
    4770:	861a                	mv	a2,t1
    4772:	869e                	mv	a3,t2
    4774:	cc2e                	sw	a1,24(sp)
    4776:	3fe020ef          	jal	ra,6b74 <__gedf2>
    477a:	67a9                	lui	a5,0xa
    477c:	5287a303          	lw	t1,1320(a5) # a528 <__erodata+0x38>
    4780:	52c7a383          	lw	t2,1324(a5)
    4784:	1ca05663          	blez	a0,4950 <_ftoa+0x316>
    4788:	0b05                	addi	s6,s6,1
    478a:	855a                	mv	a0,s6
    478c:	584030ef          	jal	ra,7d10 <__floatunsidf>
    4790:	862a                	mv	a2,a0
    4792:	86ae                	mv	a3,a1
    4794:	4522                	lw	a0,8(sp)
    4796:	45b2                	lw	a1,12(sp)
    4798:	492020ef          	jal	ra,6c2a <__ledf2>
    479c:	00a04463          	bgtz	a0,47a4 <_ftoa+0x16a>
    47a0:	0d05                	addi	s10,s10,1
    47a2:	4b01                	li	s6,0
    47a4:	100b8d63          	beqz	s7,48be <_ftoa+0x284>
    47a8:	02000313          	li	t1,32
    47ac:	4629                	li	a2,10
    47ae:	4e25                	li	t3,9
    47b0:	0c6d8863          	beq	s11,t1,4880 <_ftoa+0x246>
    47b4:	02cb76b3          	remu	a3,s6,a2
    47b8:	0d85                	addi	s11,s11,1
    47ba:	101c                	addi	a5,sp,32
    47bc:	01b78533          	add	a0,a5,s11
    47c0:	fffb8593          	addi	a1,s7,-1 # 7fffffff <__kernel_stack+0x5ff40007>
    47c4:	03068693          	addi	a3,a3,48
    47c8:	fed50fa3          	sb	a3,-1(a0)
    47cc:	02cb56b3          	divu	a3,s6,a2
    47d0:	1f6e7b63          	bgeu	t3,s6,49c6 <_ftoa+0x38c>
    47d4:	8bae                	mv	s7,a1
    47d6:	8b36                	mv	s6,a3
    47d8:	bfe1                	j	47b0 <_ftoa+0x176>
    47da:	004cf793          	andi	a5,s9,4
    47de:	e3b1                	bnez	a5,4822 <_ftoa+0x1e8>
    47e0:	6729                	lui	a4,0xa
    47e2:	13070713          	addi	a4,a4,304 # a130 <s_box+0x15c>
    47e6:	478d                	li	a5,3
    47e8:	88e6                	mv	a7,s9
    47ea:	884a                	mv	a6,s2
    47ec:	a039                	j	47fa <_ftoa+0x1c0>
    47ee:	6729                	lui	a4,0xa
    47f0:	88e6                	mv	a7,s9
    47f2:	884a                	mv	a6,s2
    47f4:	478d                	li	a5,3
    47f6:	13c70713          	addi	a4,a4,316 # a13c <s_box+0x168>
    47fa:	5466                	lw	s0,120(sp)
    47fc:	50f6                	lw	ra,124(sp)
    47fe:	54d6                	lw	s1,116(sp)
    4800:	5946                	lw	s2,112(sp)
    4802:	5b06                	lw	s6,96(sp)
    4804:	4bf6                	lw	s7,92(sp)
    4806:	4cd6                	lw	s9,84(sp)
    4808:	4d46                	lw	s10,80(sp)
    480a:	4db6                	lw	s11,76(sp)
    480c:	86e2                	mv	a3,s8
    480e:	8656                	mv	a2,s5
    4810:	4c66                	lw	s8,88(sp)
    4812:	5a96                	lw	s5,100(sp)
    4814:	85d2                	mv	a1,s4
    4816:	854e                	mv	a0,s3
    4818:	5a26                	lw	s4,104(sp)
    481a:	59b6                	lw	s3,108(sp)
    481c:	6109                	addi	sp,sp,128
    481e:	ddaff06f          	j	3df8 <_out_rev>
    4822:	6729                	lui	a4,0xa
    4824:	13470713          	addi	a4,a4,308 # a134 <s_box+0x160>
    4828:	4791                	li	a5,4
    482a:	bf7d                	j	47e8 <_ftoa+0x1ae>
    482c:	8626                	mv	a2,s1
    482e:	86a2                	mv	a3,s0
    4830:	4501                	li	a0,0
    4832:	4581                	li	a1,0
    4834:	24b020ef          	jal	ra,727e <__subdf3>
    4838:	4785                	li	a5,1
    483a:	84aa                	mv	s1,a0
    483c:	842e                	mv	s0,a1
    483e:	ce3e                	sw	a5,28(sp)
    4840:	b54d                	j	46e2 <_ftoa+0xa8>
    4842:	87a2                	mv	a5,s0
    4844:	5466                	lw	s0,120(sp)
    4846:	c166                	sw	s9,128(sp)
    4848:	50f6                	lw	ra,124(sp)
    484a:	4bf6                	lw	s7,92(sp)
    484c:	4cd6                	lw	s9,84(sp)
    484e:	4d46                	lw	s10,80(sp)
    4850:	4db6                	lw	s11,76(sp)
    4852:	8726                	mv	a4,s1
    4854:	88ca                	mv	a7,s2
    4856:	54d6                	lw	s1,116(sp)
    4858:	5946                	lw	s2,112(sp)
    485a:	885a                	mv	a6,s6
    485c:	86e2                	mv	a3,s8
    485e:	5b06                	lw	s6,96(sp)
    4860:	4c66                	lw	s8,88(sp)
    4862:	8656                	mv	a2,s5
    4864:	85d2                	mv	a1,s4
    4866:	5a96                	lw	s5,100(sp)
    4868:	5a26                	lw	s4,104(sp)
    486a:	854e                	mv	a0,s3
    486c:	59b6                	lw	s3,108(sp)
    486e:	6109                	addi	sp,sp,128
    4870:	b2f9                	j	423e <_etoa>
    4872:	6729                	lui	a4,0xa
    4874:	88e6                	mv	a7,s9
    4876:	884a                	mv	a6,s2
    4878:	4791                	li	a5,4
    487a:	14070713          	addi	a4,a4,320 # a140 <s_box+0x16c>
    487e:	bfb5                	j	47fa <_ftoa+0x1c0>
    4880:	003cf793          	andi	a5,s9,3
    4884:	4705                	li	a4,1
    4886:	0ee78463          	beq	a5,a4,496e <_ftoa+0x334>
    488a:	02000793          	li	a5,32
    488e:	88e6                	mv	a7,s9
    4890:	884a                	mv	a6,s2
    4892:	1018                	addi	a4,sp,32
    4894:	86e2                	mv	a3,s8
    4896:	8656                	mv	a2,s5
    4898:	85d2                	mv	a1,s4
    489a:	854e                	mv	a0,s3
    489c:	d5cff0ef          	jal	ra,3df8 <_out_rev>
    48a0:	50f6                	lw	ra,124(sp)
    48a2:	5466                	lw	s0,120(sp)
    48a4:	54d6                	lw	s1,116(sp)
    48a6:	5946                	lw	s2,112(sp)
    48a8:	59b6                	lw	s3,108(sp)
    48aa:	5a26                	lw	s4,104(sp)
    48ac:	5a96                	lw	s5,100(sp)
    48ae:	5b06                	lw	s6,96(sp)
    48b0:	4bf6                	lw	s7,92(sp)
    48b2:	4c66                	lw	s8,88(sp)
    48b4:	4cd6                	lw	s9,84(sp)
    48b6:	4d46                	lw	s10,80(sp)
    48b8:	4db6                	lw	s11,76(sp)
    48ba:	6109                	addi	sp,sp,128
    48bc:	8082                	ret
    48be:	856a                	mv	a0,s10
    48c0:	3ea030ef          	jal	ra,7caa <__floatsidf>
    48c4:	862a                	mv	a2,a0
    48c6:	86ae                	mv	a3,a1
    48c8:	8526                	mv	a0,s1
    48ca:	85a2                	mv	a1,s0
    48cc:	1b3020ef          	jal	ra,727e <__subdf3>
    48d0:	67a9                	lui	a5,0xa
    48d2:	5287ab03          	lw	s6,1320(a5) # a528 <__erodata+0x38>
    48d6:	52c7ab83          	lw	s7,1324(a5)
    48da:	84aa                	mv	s1,a0
    48dc:	865a                	mv	a2,s6
    48de:	86de                	mv	a3,s7
    48e0:	842e                	mv	s0,a1
    48e2:	348020ef          	jal	ra,6c2a <__ledf2>
    48e6:	00055a63          	bgez	a0,48fa <_ftoa+0x2c0>
    48ea:	8526                	mv	a0,s1
    48ec:	85a2                	mv	a1,s0
    48ee:	865a                	mv	a2,s6
    48f0:	86de                	mv	a3,s7
    48f2:	282020ef          	jal	ra,6b74 <__gedf2>
    48f6:	00a05563          	blez	a0,4900 <_ftoa+0x2c6>
    48fa:	001d7793          	andi	a5,s10,1
    48fe:	9d3e                	add	s10,s10,a5
    4900:	02000593          	li	a1,32
    4904:	46a9                	li	a3,10
    4906:	f6bd8de3          	beq	s11,a1,4880 <_ftoa+0x246>
    490a:	02dd67b3          	rem	a5,s10,a3
    490e:	0d85                	addi	s11,s11,1
    4910:	1018                	addi	a4,sp,32
    4912:	01b70633          	add	a2,a4,s11
    4916:	02dd4d33          	div	s10,s10,a3
    491a:	03078793          	addi	a5,a5,48
    491e:	fef60fa3          	sb	a5,-1(a2)
    4922:	fe0d12e3          	bnez	s10,4906 <_ftoa+0x2cc>
    4926:	003cf793          	andi	a5,s9,3
    492a:	4685                	li	a3,1
    492c:	04d78363          	beq	a5,a3,4972 <_ftoa+0x338>
    4930:	02000693          	li	a3,32
    4934:	f4dd8be3          	beq	s11,a3,488a <_ftoa+0x250>
    4938:	47f2                	lw	a5,28(sp)
    493a:	c7bd                	beqz	a5,49a8 <_ftoa+0x36e>
    493c:	009c                	addi	a5,sp,64
    493e:	01b786b3          	add	a3,a5,s11
    4942:	02d00713          	li	a4,45
    4946:	001d8793          	addi	a5,s11,1
    494a:	fee68023          	sb	a4,-32(a3)
    494e:	b781                	j	488e <_ftoa+0x254>
    4950:	4552                	lw	a0,20(sp)
    4952:	45e2                	lw	a1,24(sp)
    4954:	861a                	mv	a2,t1
    4956:	869e                	mv	a3,t2
    4958:	2d2020ef          	jal	ra,6c2a <__ledf2>
    495c:	e40544e3          	bltz	a0,47a4 <_ftoa+0x16a>
    4960:	0a0b1263          	bnez	s6,4a04 <_ftoa+0x3ca>
    4964:	0b05                	addi	s6,s6,1
    4966:	bd3d                	j	47a4 <_ftoa+0x16a>
    4968:	02000d93          	li	s11,32
    496c:	b34d                	j	470e <_ftoa+0xd4>
    496e:	02000d93          	li	s11,32
    4972:	fa090fe3          	beqz	s2,4930 <_ftoa+0x2f6>
    4976:	47f2                	lw	a5,28(sp)
    4978:	e7d5                	bnez	a5,4a24 <_ftoa+0x3ea>
    497a:	00ccf793          	andi	a5,s9,12
    497e:	e3dd                	bnez	a5,4a24 <_ftoa+0x3ea>
    4980:	fb2df8e3          	bgeu	s11,s2,4930 <_ftoa+0x2f6>
    4984:	02000793          	li	a5,32
    4988:	03000613          	li	a2,48
    498c:	02000693          	li	a3,32
    4990:	eefd8de3          	beq	s11,a5,488a <_ftoa+0x250>
    4994:	0d85                	addi	s11,s11,1
    4996:	101c                	addi	a5,sp,32
    4998:	97ee                	add	a5,a5,s11
    499a:	fec78fa3          	sb	a2,-1(a5)
    499e:	f92d89e3          	beq	s11,s2,4930 <_ftoa+0x2f6>
    49a2:	fedd99e3          	bne	s11,a3,4994 <_ftoa+0x35a>
    49a6:	b5d5                	j	488a <_ftoa+0x250>
    49a8:	004cf793          	andi	a5,s9,4
    49ac:	e3b5                	bnez	a5,4a10 <_ftoa+0x3d6>
    49ae:	008cf613          	andi	a2,s9,8
    49b2:	87ee                	mv	a5,s11
    49b4:	ec060de3          	beqz	a2,488e <_ftoa+0x254>
    49b8:	0098                	addi	a4,sp,64
    49ba:	976e                	add	a4,a4,s11
    49bc:	001d8793          	addi	a5,s11,1
    49c0:	fed70023          	sb	a3,-32(a4)
    49c4:	b5e9                	j	488e <_ftoa+0x254>
    49c6:	ea6d8de3          	beq	s11,t1,4880 <_ftoa+0x246>
    49ca:	866e                	mv	a2,s11
    49cc:	03000893          	li	a7,48
    49d0:	02000513          	li	a0,32
    49d4:	cd99                	beqz	a1,49f2 <_ftoa+0x3b8>
    49d6:	0605                	addi	a2,a2,1
    49d8:	101c                	addi	a5,sp,32
    49da:	fff64693          	not	a3,a2
    49de:	00c785b3          	add	a1,a5,a2
    49e2:	96ee                	add	a3,a3,s11
    49e4:	ff158fa3          	sb	a7,-1(a1)
    49e8:	96de                	add	a3,a3,s7
    49ea:	e8a60be3          	beq	a2,a0,4880 <_ftoa+0x246>
    49ee:	fe0694e3          	bnez	a3,49d6 <_ftoa+0x39c>
    49f2:	009c                	addi	a5,sp,64
    49f4:	97b2                	add	a5,a5,a2
    49f6:	02e00693          	li	a3,46
    49fa:	00160d93          	addi	s11,a2,1
    49fe:	fed78023          	sb	a3,-32(a5)
    4a02:	bdfd                	j	4900 <_ftoa+0x2c6>
    4a04:	001b7693          	andi	a3,s6,1
    4a08:	d8068ee3          	beqz	a3,47a4 <_ftoa+0x16a>
    4a0c:	0b05                	addi	s6,s6,1
    4a0e:	bb59                	j	47a4 <_ftoa+0x16a>
    4a10:	009c                	addi	a5,sp,64
    4a12:	01b786b3          	add	a3,a5,s11
    4a16:	02b00713          	li	a4,43
    4a1a:	001d8793          	addi	a5,s11,1
    4a1e:	fee68023          	sb	a4,-32(a3)
    4a22:	b5b5                	j	488e <_ftoa+0x254>
    4a24:	197d                	addi	s2,s2,-1
    4a26:	bfa9                	j	4980 <_ftoa+0x346>

00004a28 <_out_char>:
    4a28:	e111                	bnez	a0,4a2c <_out_char+0x4>
    4a2a:	8082                	ret
    4a2c:	55fd                	li	a1,-1
    4a2e:	b4aff06f          	j	3d78 <fputc>

00004a32 <_out_fct>:
    4a32:	c501                	beqz	a0,4a3a <_out_fct+0x8>
    4a34:	419c                	lw	a5,0(a1)
    4a36:	41cc                	lw	a1,4(a1)
    4a38:	8782                	jr	a5
    4a3a:	8082                	ret

00004a3c <_vsnprintf>:
    4a3c:	7159                	addi	sp,sp,-112
    4a3e:	d4a2                	sw	s0,104(sp)
    4a40:	d2a6                	sw	s1,100(sp)
    4a42:	d0ca                	sw	s2,96(sp)
    4a44:	cece                	sw	s3,92(sp)
    4a46:	c6de                	sw	s7,76(sp)
    4a48:	d686                	sw	ra,108(sp)
    4a4a:	ccd2                	sw	s4,88(sp)
    4a4c:	cad6                	sw	s5,84(sp)
    4a4e:	c8da                	sw	s6,80(sp)
    4a50:	c4e2                	sw	s8,72(sp)
    4a52:	c2e6                	sw	s9,68(sp)
    4a54:	c0ea                	sw	s10,64(sp)
    4a56:	de6e                	sw	s11,60(sp)
    4a58:	892e                	mv	s2,a1
    4a5a:	84b2                	mv	s1,a2
    4a5c:	8bb6                	mv	s7,a3
    4a5e:	843a                	mv	s0,a4
    4a60:	89aa                	mv	s3,a0
    4a62:	38058e63          	beqz	a1,4dfe <_vsnprintf+0x3c2>
    4a66:	000bc503          	lbu	a0,0(s7)
    4a6a:	4d81                	li	s11,0
    4a6c:	3a050163          	beqz	a0,4e0e <_vsnprintf+0x3d2>
    4a70:	67a9                	lui	a5,0xa
    4a72:	1d878793          	addi	a5,a5,472 # a1d8 <s_box+0x204>
    4a76:	6b29                	lui	s6,0xa
    4a78:	6a29                	lui	s4,0xa
    4a7a:	d23e                	sw	a5,36(sp)
    4a7c:	18cb0793          	addi	a5,s6,396 # a18c <s_box+0x1b8>
    4a80:	02500a93          	li	s5,37
    4a84:	148a0a13          	addi	s4,s4,328 # a148 <s_box+0x174>
    4a88:	d03e                	sw	a5,32(sp)
    4a8a:	a809                	j	4a9c <_vsnprintf+0x60>
    4a8c:	866e                	mv	a2,s11
    4a8e:	86a6                	mv	a3,s1
    4a90:	85ca                	mv	a1,s2
    4a92:	0d85                	addi	s11,s11,1
    4a94:	9982                	jalr	s3
    4a96:	000bc503          	lbu	a0,0(s7)
    4a9a:	c955                	beqz	a0,4b4e <_vsnprintf+0x112>
    4a9c:	0b85                	addi	s7,s7,1
    4a9e:	ff5517e3          	bne	a0,s5,4a8c <_vsnprintf+0x50>
    4aa2:	4681                	li	a3,0
    4aa4:	45c1                	li	a1,16
    4aa6:	000bc503          	lbu	a0,0(s7)
    4aaa:	001b8713          	addi	a4,s7,1
    4aae:	863a                	mv	a2,a4
    4ab0:	fe050793          	addi	a5,a0,-32
    4ab4:	0ff7f793          	andi	a5,a5,255
    4ab8:	00f5e663          	bltu	a1,a5,4ac4 <_vsnprintf+0x88>
    4abc:	078a                	slli	a5,a5,0x2
    4abe:	97d2                	add	a5,a5,s4
    4ac0:	439c                	lw	a5,0(a5)
    4ac2:	8782                	jr	a5
    4ac4:	fd050793          	addi	a5,a0,-48
    4ac8:	0ff7f793          	andi	a5,a5,255
    4acc:	45a5                	li	a1,9
    4ace:	10f5f263          	bgeu	a1,a5,4bd2 <_vsnprintf+0x196>
    4ad2:	02a00793          	li	a5,42
    4ad6:	12f50863          	beq	a0,a5,4c06 <_vsnprintf+0x1ca>
    4ada:	865e                	mv	a2,s7
    4adc:	4c01                	li	s8,0
    4ade:	8bba                	mv	s7,a4
    4ae0:	02e00793          	li	a5,46
    4ae4:	4b01                	li	s6,0
    4ae6:	08f50e63          	beq	a0,a5,4b82 <_vsnprintf+0x146>
    4aea:	f9850793          	addi	a5,a0,-104
    4aee:	0ff7f793          	andi	a5,a5,255
    4af2:	4749                	li	a4,18
    4af4:	00f76c63          	bltu	a4,a5,4b0c <_vsnprintf+0xd0>
    4af8:	5702                	lw	a4,32(sp)
    4afa:	078a                	slli	a5,a5,0x2
    4afc:	97ba                	add	a5,a5,a4
    4afe:	439c                	lw	a5,0(a5)
    4b00:	8782                	jr	a5
    4b02:	00164503          	lbu	a0,1(a2)
    4b06:	1006e693          	ori	a3,a3,256
    4b0a:	0b85                	addi	s7,s7,1
    4b0c:	fdb50793          	addi	a5,a0,-37
    4b10:	0ff7f793          	andi	a5,a5,255
    4b14:	05300713          	li	a4,83
    4b18:	f6f76ae3          	bltu	a4,a5,4a8c <_vsnprintf+0x50>
    4b1c:	5712                	lw	a4,36(sp)
    4b1e:	078a                	slli	a5,a5,0x2
    4b20:	97ba                	add	a5,a5,a4
    4b22:	439c                	lw	a5,0(a5)
    4b24:	8782                	jr	a5
    4b26:	0016e693          	ori	a3,a3,1
    4b2a:	8bba                	mv	s7,a4
    4b2c:	bfad                	j	4aa6 <_vsnprintf+0x6a>
    4b2e:	0026e693          	ori	a3,a3,2
    4b32:	8bba                	mv	s7,a4
    4b34:	bf8d                	j	4aa6 <_vsnprintf+0x6a>
    4b36:	0046e693          	ori	a3,a3,4
    4b3a:	8bba                	mv	s7,a4
    4b3c:	b7ad                	j	4aa6 <_vsnprintf+0x6a>
    4b3e:	0106e693          	ori	a3,a3,16
    4b42:	8bba                	mv	s7,a4
    4b44:	b78d                	j	4aa6 <_vsnprintf+0x6a>
    4b46:	0086e693          	ori	a3,a3,8
    4b4a:	8bba                	mv	s7,a4
    4b4c:	bfa9                	j	4aa6 <_vsnprintf+0x6a>
    4b4e:	846e                	mv	s0,s11
    4b50:	009de463          	bltu	s11,s1,4b58 <_vsnprintf+0x11c>
    4b54:	fff48d93          	addi	s11,s1,-1
    4b58:	86a6                	mv	a3,s1
    4b5a:	866e                	mv	a2,s11
    4b5c:	85ca                	mv	a1,s2
    4b5e:	4501                	li	a0,0
    4b60:	9982                	jalr	s3
    4b62:	50b6                	lw	ra,108(sp)
    4b64:	8522                	mv	a0,s0
    4b66:	5426                	lw	s0,104(sp)
    4b68:	5496                	lw	s1,100(sp)
    4b6a:	5906                	lw	s2,96(sp)
    4b6c:	49f6                	lw	s3,92(sp)
    4b6e:	4a66                	lw	s4,88(sp)
    4b70:	4ad6                	lw	s5,84(sp)
    4b72:	4b46                	lw	s6,80(sp)
    4b74:	4bb6                	lw	s7,76(sp)
    4b76:	4c26                	lw	s8,72(sp)
    4b78:	4c96                	lw	s9,68(sp)
    4b7a:	4d06                	lw	s10,64(sp)
    4b7c:	5df2                	lw	s11,60(sp)
    4b7e:	6165                	addi	sp,sp,112
    4b80:	8082                	ret
    4b82:	00164503          	lbu	a0,1(a2)
    4b86:	4725                	li	a4,9
    4b88:	4006e693          	ori	a3,a3,1024
    4b8c:	fd050793          	addi	a5,a0,-48
    4b90:	0ff7f793          	andi	a5,a5,255
    4b94:	00f77963          	bgeu	a4,a5,4ba6 <_vsnprintf+0x16a>
    4b98:	02a00793          	li	a5,42
    4b9c:	26f50d63          	beq	a0,a5,4e16 <_vsnprintf+0x3da>
    4ba0:	865e                	mv	a2,s7
    4ba2:	0b85                	addi	s7,s7,1
    4ba4:	b799                	j	4aea <_vsnprintf+0xae>
    4ba6:	002b1793          	slli	a5,s6,0x2
    4baa:	01678833          	add	a6,a5,s6
    4bae:	85de                	mv	a1,s7
    4bb0:	0806                	slli	a6,a6,0x1
    4bb2:	0b85                	addi	s7,s7,1
    4bb4:	982a                	add	a6,a6,a0
    4bb6:	000bc503          	lbu	a0,0(s7)
    4bba:	fd080b13          	addi	s6,a6,-48
    4bbe:	fd050793          	addi	a5,a0,-48
    4bc2:	0ff7f793          	andi	a5,a5,255
    4bc6:	fef770e3          	bgeu	a4,a5,4ba6 <_vsnprintf+0x16a>
    4bca:	865e                	mv	a2,s7
    4bcc:	00258b93          	addi	s7,a1,2
    4bd0:	bf29                	j	4aea <_vsnprintf+0xae>
    4bd2:	4c01                	li	s8,0
    4bd4:	4625                	li	a2,9
    4bd6:	a011                	j	4bda <_vsnprintf+0x19e>
    4bd8:	0705                	addi	a4,a4,1
    4bda:	002c1793          	slli	a5,s8,0x2
    4bde:	018788b3          	add	a7,a5,s8
    4be2:	0886                	slli	a7,a7,0x1
    4be4:	98aa                	add	a7,a7,a0
    4be6:	00074503          	lbu	a0,0(a4)
    4bea:	85de                	mv	a1,s7
    4bec:	fd088c13          	addi	s8,a7,-48
    4bf0:	fd050793          	addi	a5,a0,-48
    4bf4:	0ff7f793          	andi	a5,a5,255
    4bf8:	8bba                	mv	s7,a4
    4bfa:	fcf67fe3          	bgeu	a2,a5,4bd8 <_vsnprintf+0x19c>
    4bfe:	863a                	mv	a2,a4
    4c00:	00258b93          	addi	s7,a1,2
    4c04:	bdf1                	j	4ae0 <_vsnprintf+0xa4>
    4c06:	00042c03          	lw	s8,0(s0)
    4c0a:	0411                	addi	s0,s0,4
    4c0c:	000c4663          	bltz	s8,4c18 <_vsnprintf+0x1dc>
    4c10:	001bc503          	lbu	a0,1(s7)
    4c14:	0b89                	addi	s7,s7,2
    4c16:	b5e9                	j	4ae0 <_vsnprintf+0xa4>
    4c18:	001bc503          	lbu	a0,1(s7)
    4c1c:	0026e693          	ori	a3,a3,2
    4c20:	41800c33          	neg	s8,s8
    4c24:	0b89                	addi	s7,s7,2
    4c26:	bd6d                	j	4ae0 <_vsnprintf+0xa4>
    4c28:	07800793          	li	a5,120
    4c2c:	3af50463          	beq	a0,a5,4fd4 <_vsnprintf+0x598>
    4c30:	05800793          	li	a5,88
    4c34:	28f50b63          	beq	a0,a5,4eca <_vsnprintf+0x48e>
    4c38:	06f00793          	li	a5,111
    4c3c:	3cf50363          	beq	a0,a5,5002 <_vsnprintf+0x5c6>
    4c40:	06200793          	li	a5,98
    4c44:	40f50763          	beq	a0,a5,5052 <_vsnprintf+0x616>
    4c48:	06900713          	li	a4,105
    4c4c:	fef6f593          	andi	a1,a3,-17
    4c50:	4006f793          	andi	a5,a3,1024
    4c54:	42e51363          	bne	a0,a4,507a <_vsnprintf+0x63e>
    4c58:	38079663          	bnez	a5,4fe4 <_vsnprintf+0x5a8>
    4c5c:	2006f693          	andi	a3,a3,512
    4c60:	4829                	li	a6,10
    4c62:	32069763          	bnez	a3,4f90 <_vsnprintf+0x554>
    4c66:	1005f793          	andi	a5,a1,256
    4c6a:	00440c93          	addi	s9,s0,4
    4c6e:	3c079563          	bnez	a5,5038 <_vsnprintf+0x5fc>
    4c72:	0405f793          	andi	a5,a1,64
    4c76:	36079c63          	bnez	a5,4fee <_vsnprintf+0x5b2>
    4c7a:	0805f793          	andi	a5,a1,128
    4c7e:	3c078c63          	beqz	a5,5056 <_vsnprintf+0x61a>
    4c82:	00041783          	lh	a5,0(s0)
    4c86:	40f7d693          	srai	a3,a5,0xf
    4c8a:	00d7c733          	xor	a4,a5,a3
    4c8e:	8f15                	sub	a4,a4,a3
    4c90:	0742                	slli	a4,a4,0x10
    4c92:	8341                	srli	a4,a4,0x10
    4c94:	866e                	mv	a2,s11
    4c96:	c22e                	sw	a1,4(sp)
    4c98:	c062                	sw	s8,0(sp)
    4c9a:	88da                	mv	a7,s6
    4c9c:	83fd                	srli	a5,a5,0x1f
    4c9e:	86a6                	mv	a3,s1
    4ca0:	85ca                	mv	a1,s2
    4ca2:	854e                	mv	a0,s3
    4ca4:	c24ff0ef          	jal	ra,40c8 <_ntoa_long>
    4ca8:	8daa                	mv	s11,a0
    4caa:	8466                	mv	s0,s9
    4cac:	b3ed                	j	4a96 <_vsnprintf+0x5a>
    4cae:	00164503          	lbu	a0,1(a2)
    4cb2:	2006e693          	ori	a3,a3,512
    4cb6:	0b85                	addi	s7,s7,1
    4cb8:	bd91                	j	4b0c <_vsnprintf+0xd0>
    4cba:	00164503          	lbu	a0,1(a2)
    4cbe:	06800793          	li	a5,104
    4cc2:	1ef50963          	beq	a0,a5,4eb4 <_vsnprintf+0x478>
    4cc6:	0806e693          	ori	a3,a3,128
    4cca:	0b85                	addi	s7,s7,1
    4ccc:	b581                	j	4b0c <_vsnprintf+0xd0>
    4cce:	00164503          	lbu	a0,1(a2)
    4cd2:	06c00793          	li	a5,108
    4cd6:	e2f518e3          	bne	a0,a5,4b06 <_vsnprintf+0xca>
    4cda:	00264503          	lbu	a0,2(a2)
    4cde:	3006e693          	ori	a3,a3,768
    4ce2:	00360b93          	addi	s7,a2,3
    4ce6:	b51d                	j	4b0c <_vsnprintf+0xd0>
    4ce8:	04600793          	li	a5,70
    4cec:	18f50263          	beq	a0,a5,4e70 <_vsnprintf+0x434>
    4cf0:	041d                	addi	s0,s0,7
    4cf2:	9861                	andi	s0,s0,-8
    4cf4:	4018                	lw	a4,0(s0)
    4cf6:	405c                	lw	a5,4(s0)
    4cf8:	866e                	mv	a2,s11
    4cfa:	c036                	sw	a3,0(sp)
    4cfc:	88e2                	mv	a7,s8
    4cfe:	885a                	mv	a6,s6
    4d00:	86a6                	mv	a3,s1
    4d02:	85ca                	mv	a1,s2
    4d04:	854e                	mv	a0,s3
    4d06:	3a15                	jal	463a <_ftoa>
    4d08:	0421                	addi	s0,s0,8
    4d0a:	8daa                	mv	s11,a0
    4d0c:	b369                	j	4a96 <_vsnprintf+0x5a>
    4d0e:	001d8d13          	addi	s10,s11,1
    4d12:	8a89                	andi	a3,a3,2
    4d14:	8cea                	mv	s9,s10
    4d16:	00440b13          	addi	s6,s0,4
    4d1a:	20068563          	beqz	a3,4f24 <_vsnprintf+0x4e8>
    4d1e:	00044503          	lbu	a0,0(s0)
    4d22:	866e                	mv	a2,s11
    4d24:	86a6                	mv	a3,s1
    4d26:	85ca                	mv	a1,s2
    4d28:	9982                	jalr	s3
    4d2a:	4785                	li	a5,1
    4d2c:	9de2                	add	s11,s11,s8
    4d2e:	2d87f763          	bgeu	a5,s8,4ffc <_vsnprintf+0x5c0>
    4d32:	8666                	mv	a2,s9
    4d34:	86a6                	mv	a3,s1
    4d36:	0c85                	addi	s9,s9,1
    4d38:	85ca                	mv	a1,s2
    4d3a:	02000513          	li	a0,32
    4d3e:	9982                	jalr	s3
    4d40:	ff9d99e3          	bne	s11,s9,4d32 <_vsnprintf+0x2f6>
    4d44:	845a                	mv	s0,s6
    4d46:	bb81                	j	4a96 <_vsnprintf+0x5a>
    4d48:	866e                	mv	a2,s11
    4d4a:	86a6                	mv	a3,s1
    4d4c:	85ca                	mv	a1,s2
    4d4e:	02500513          	li	a0,37
    4d52:	0d85                	addi	s11,s11,1
    4d54:	9982                	jalr	s3
    4d56:	b381                	j	4a96 <_vsnprintf+0x5a>
    4d58:	00042d03          	lw	s10,0(s0)
    4d5c:	00440793          	addi	a5,s0,4
    4d60:	d63e                	sw	a5,44(sp)
    4d62:	000d4503          	lbu	a0,0(s10)
    4d66:	0c0b1663          	bnez	s6,4e32 <_vsnprintf+0x3f6>
    4d6a:	5cf9                	li	s9,-2
    4d6c:	2e050c63          	beqz	a0,5064 <_vsnprintf+0x628>
    4d70:	0c85                	addi	s9,s9,1
    4d72:	9cea                	add	s9,s9,s10
    4d74:	87ea                	mv	a5,s10
    4d76:	a019                	j	4d7c <_vsnprintf+0x340>
    4d78:	14fc8563          	beq	s9,a5,4ec2 <_vsnprintf+0x486>
    4d7c:	0017c703          	lbu	a4,1(a5)
    4d80:	0785                	addi	a5,a5,1
    4d82:	fb7d                	bnez	a4,4d78 <_vsnprintf+0x33c>
    4d84:	41a787b3          	sub	a5,a5,s10
    4d88:	d43e                	sw	a5,40(sp)
    4d8a:	4006f793          	andi	a5,a3,1024
    4d8e:	ce3e                	sw	a5,28(sp)
    4d90:	c789                	beqz	a5,4d9a <_vsnprintf+0x35e>
    4d92:	57a2                	lw	a5,40(sp)
    4d94:	00fb7363          	bgeu	s6,a5,4d9a <_vsnprintf+0x35e>
    4d98:	d45a                	sw	s6,40(sp)
    4d9a:	0026f413          	andi	s0,a3,2
    4d9e:	1a040e63          	beqz	s0,4f5a <_vsnprintf+0x51e>
    4da2:	0c050b63          	beqz	a0,4e78 <_vsnprintf+0x43c>
    4da6:	866e                	mv	a2,s11
    4da8:	a011                	j	4dac <_vsnprintf+0x370>
    4daa:	8666                	mv	a2,s9
    4dac:	47f2                	lw	a5,28(sp)
    4dae:	c791                	beqz	a5,4dba <_vsnprintf+0x37e>
    4db0:	fffb0793          	addi	a5,s6,-1
    4db4:	160b0663          	beqz	s6,4f20 <_vsnprintf+0x4e4>
    4db8:	8b3e                	mv	s6,a5
    4dba:	86a6                	mv	a3,s1
    4dbc:	85ca                	mv	a1,s2
    4dbe:	00160c93          	addi	s9,a2,1
    4dc2:	9982                	jalr	s3
    4dc4:	41bc87b3          	sub	a5,s9,s11
    4dc8:	97ea                	add	a5,a5,s10
    4dca:	0007c503          	lbu	a0,0(a5)
    4dce:	fd71                	bnez	a0,4daa <_vsnprintf+0x36e>
    4dd0:	0a041363          	bnez	s0,4e76 <_vsnprintf+0x43a>
    4dd4:	5432                	lw	s0,44(sp)
    4dd6:	8de6                	mv	s11,s9
    4dd8:	b97d                	j	4a96 <_vsnprintf+0x5a>
    4dda:	4018                	lw	a4,0(s0)
    4ddc:	0216e693          	ori	a3,a3,33
    4de0:	47a1                	li	a5,8
    4de2:	866e                	mv	a2,s11
    4de4:	c236                	sw	a3,4(sp)
    4de6:	c03e                	sw	a5,0(sp)
    4de8:	88da                	mv	a7,s6
    4dea:	4841                	li	a6,16
    4dec:	4781                	li	a5,0
    4dee:	86a6                	mv	a3,s1
    4df0:	85ca                	mv	a1,s2
    4df2:	854e                	mv	a0,s3
    4df4:	ad4ff0ef          	jal	ra,40c8 <_ntoa_long>
    4df8:	0411                	addi	s0,s0,4
    4dfa:	8daa                	mv	s11,a0
    4dfc:	b969                	j	4a96 <_vsnprintf+0x5a>
    4dfe:	000bc503          	lbu	a0,0(s7)
    4e02:	6991                	lui	s3,0x4
    4e04:	df698993          	addi	s3,s3,-522 # 3df6 <_out_null>
    4e08:	4d81                	li	s11,0
    4e0a:	c60513e3          	bnez	a0,4a70 <_vsnprintf+0x34>
    4e0e:	4401                	li	s0,0
    4e10:	d49de4e3          	bltu	s11,s1,4b58 <_vsnprintf+0x11c>
    4e14:	b381                	j	4b54 <_vsnprintf+0x118>
    4e16:	00042b03          	lw	s6,0(s0)
    4e1a:	00264503          	lbu	a0,2(a2)
    4e1e:	00360b93          	addi	s7,a2,3
    4e22:	fffb4793          	not	a5,s6
    4e26:	87fd                	srai	a5,a5,0x1f
    4e28:	00fb7b33          	and	s6,s6,a5
    4e2c:	0411                	addi	s0,s0,4
    4e2e:	0609                	addi	a2,a2,2
    4e30:	b96d                	j	4aea <_vsnprintf+0xae>
    4e32:	22050963          	beqz	a0,5064 <_vsnprintf+0x628>
    4e36:	fffb0c93          	addi	s9,s6,-1
    4e3a:	bf1d                	j	4d70 <_vsnprintf+0x334>
    4e3c:	0df57793          	andi	a5,a0,223
    4e40:	04700713          	li	a4,71
    4e44:	04e78b63          	beq	a5,a4,4e9a <_vsnprintf+0x45e>
    4e48:	04500793          	li	a5,69
    4e4c:	06f50163          	beq	a0,a5,4eae <_vsnprintf+0x472>
    4e50:	041d                	addi	s0,s0,7
    4e52:	9861                	andi	s0,s0,-8
    4e54:	4018                	lw	a4,0(s0)
    4e56:	405c                	lw	a5,4(s0)
    4e58:	866e                	mv	a2,s11
    4e5a:	c036                	sw	a3,0(sp)
    4e5c:	88e2                	mv	a7,s8
    4e5e:	885a                	mv	a6,s6
    4e60:	86a6                	mv	a3,s1
    4e62:	85ca                	mv	a1,s2
    4e64:	854e                	mv	a0,s3
    4e66:	bd8ff0ef          	jal	ra,423e <_etoa>
    4e6a:	0421                	addi	s0,s0,8
    4e6c:	8daa                	mv	s11,a0
    4e6e:	b125                	j	4a96 <_vsnprintf+0x5a>
    4e70:	0206e693          	ori	a3,a3,32
    4e74:	bdb5                	j	4cf0 <_vsnprintf+0x2b4>
    4e76:	8de6                	mv	s11,s9
    4e78:	57a2                	lw	a5,40(sp)
    4e7a:	1187f963          	bgeu	a5,s8,4f8c <_vsnprintf+0x550>
    4e7e:	01bc0733          	add	a4,s8,s11
    4e82:	40f70cb3          	sub	s9,a4,a5
    4e86:	866e                	mv	a2,s11
    4e88:	86a6                	mv	a3,s1
    4e8a:	0d85                	addi	s11,s11,1
    4e8c:	85ca                	mv	a1,s2
    4e8e:	02000513          	li	a0,32
    4e92:	9982                	jalr	s3
    4e94:	ffbc99e3          	bne	s9,s11,4e86 <_vsnprintf+0x44a>
    4e98:	bf35                	j	4dd4 <_vsnprintf+0x398>
    4e9a:	6785                	lui	a5,0x1
    4e9c:	80078793          	addi	a5,a5,-2048 # 800 <set_key+0x24c>
    4ea0:	0fd57513          	andi	a0,a0,253
    4ea4:	04500713          	li	a4,69
    4ea8:	8edd                	or	a3,a3,a5
    4eaa:	fae513e3          	bne	a0,a4,4e50 <_vsnprintf+0x414>
    4eae:	0206e693          	ori	a3,a3,32
    4eb2:	bf79                	j	4e50 <_vsnprintf+0x414>
    4eb4:	00264503          	lbu	a0,2(a2)
    4eb8:	0c06e693          	ori	a3,a3,192
    4ebc:	00360b93          	addi	s7,a2,3
    4ec0:	b1b1                	j	4b0c <_vsnprintf+0xd0>
    4ec2:	41ac87b3          	sub	a5,s9,s10
    4ec6:	d43e                	sw	a5,40(sp)
    4ec8:	b5c9                	j	4d8a <_vsnprintf+0x34e>
    4eca:	ff36f593          	andi	a1,a3,-13
    4ece:	4006f793          	andi	a5,a3,1024
    4ed2:	0205e593          	ori	a1,a1,32
    4ed6:	4841                	li	a6,16
    4ed8:	10078863          	beqz	a5,4fe8 <_vsnprintf+0x5ac>
    4edc:	99f9                	andi	a1,a1,-2
    4ede:	06900793          	li	a5,105
    4ee2:	2005f693          	andi	a3,a1,512
    4ee6:	d6f50ee3          	beq	a0,a5,4c62 <_vsnprintf+0x226>
    4eea:	06400793          	li	a5,100
    4eee:	d6f50ae3          	beq	a0,a5,4c62 <_vsnprintf+0x226>
    4ef2:	12069763          	bnez	a3,5020 <_vsnprintf+0x5e4>
    4ef6:	1005f793          	andi	a5,a1,256
    4efa:	00440c93          	addi	s9,s0,4
    4efe:	10079f63          	bnez	a5,501c <_vsnprintf+0x5e0>
    4f02:	0405f793          	andi	a5,a1,64
    4f06:	ebe5                	bnez	a5,4ff6 <_vsnprintf+0x5ba>
    4f08:	0805f793          	andi	a5,a1,128
    4f0c:	10078863          	beqz	a5,501c <_vsnprintf+0x5e0>
    4f10:	00045703          	lhu	a4,0(s0)
    4f14:	866e                	mv	a2,s11
    4f16:	c22e                	sw	a1,4(sp)
    4f18:	c062                	sw	s8,0(sp)
    4f1a:	88da                	mv	a7,s6
    4f1c:	4781                	li	a5,0
    4f1e:	b341                	j	4c9e <_vsnprintf+0x262>
    4f20:	8cb2                	mv	s9,a2
    4f22:	b57d                	j	4dd0 <_vsnprintf+0x394>
    4f24:	4785                	li	a5,1
    4f26:	1587f563          	bgeu	a5,s8,5070 <_vsnprintf+0x634>
    4f2a:	fffd8c93          	addi	s9,s11,-1
    4f2e:	9ce2                	add	s9,s9,s8
    4f30:	a011                	j	4f34 <_vsnprintf+0x4f8>
    4f32:	0d05                	addi	s10,s10,1
    4f34:	866e                	mv	a2,s11
    4f36:	86a6                	mv	a3,s1
    4f38:	85ca                	mv	a1,s2
    4f3a:	02000513          	li	a0,32
    4f3e:	8dea                	mv	s11,s10
    4f40:	9982                	jalr	s3
    4f42:	ff9d18e3          	bne	s10,s9,4f32 <_vsnprintf+0x4f6>
    4f46:	001d0d93          	addi	s11,s10,1
    4f4a:	00044503          	lbu	a0,0(s0)
    4f4e:	86a6                	mv	a3,s1
    4f50:	8666                	mv	a2,s9
    4f52:	85ca                	mv	a1,s2
    4f54:	9982                	jalr	s3
    4f56:	845a                	mv	s0,s6
    4f58:	be3d                	j	4a96 <_vsnprintf+0x5a>
    4f5a:	5722                	lw	a4,40(sp)
    4f5c:	00170793          	addi	a5,a4,1
    4f60:	11877463          	bgeu	a4,s8,5068 <_vsnprintf+0x62c>
    4f64:	01bc07b3          	add	a5,s8,s11
    4f68:	40e78cb3          	sub	s9,a5,a4
    4f6c:	866e                	mv	a2,s11
    4f6e:	86a6                	mv	a3,s1
    4f70:	0d85                	addi	s11,s11,1
    4f72:	85ca                	mv	a1,s2
    4f74:	02000513          	li	a0,32
    4f78:	9982                	jalr	s3
    4f7a:	ffbc99e3          	bne	s9,s11,4f6c <_vsnprintf+0x530>
    4f7e:	000d4503          	lbu	a0,0(s10)
    4f82:	001c0793          	addi	a5,s8,1
    4f86:	d43e                	sw	a5,40(sp)
    4f88:	e0051fe3          	bnez	a0,4da6 <_vsnprintf+0x36a>
    4f8c:	8cee                	mv	s9,s11
    4f8e:	b599                	j	4dd4 <_vsnprintf+0x398>
    4f90:	041d                	addi	s0,s0,7
    4f92:	9861                	andi	s0,s0,-8
    4f94:	00442f03          	lw	t5,4(s0)
    4f98:	401c                	lw	a5,0(s0)
    4f9a:	88c2                	mv	a7,a6
    4f9c:	41ff5693          	srai	a3,t5,0x1f
    4fa0:	8fb5                	xor	a5,a5,a3
    4fa2:	40d78733          	sub	a4,a5,a3
    4fa6:	01e6c533          	xor	a0,a3,t5
    4faa:	00e7b7b3          	sltu	a5,a5,a4
    4fae:	40d506b3          	sub	a3,a0,a3
    4fb2:	866e                	mv	a2,s11
    4fb4:	c62e                	sw	a1,12(sp)
    4fb6:	c462                	sw	s8,8(sp)
    4fb8:	c25a                	sw	s6,4(sp)
    4fba:	c002                	sw	zero,0(sp)
    4fbc:	01ff5813          	srli	a6,t5,0x1f
    4fc0:	40f687b3          	sub	a5,a3,a5
    4fc4:	86a6                	mv	a3,s1
    4fc6:	85ca                	mv	a1,s2
    4fc8:	854e                	mv	a0,s3
    4fca:	980ff0ef          	jal	ra,414a <_ntoa_long_long>
    4fce:	0421                	addi	s0,s0,8
    4fd0:	8daa                	mv	s11,a0
    4fd2:	b4d1                	j	4a96 <_vsnprintf+0x5a>
    4fd4:	4006f793          	andi	a5,a3,1024
    4fd8:	4841                	li	a6,16
    4fda:	ff36f593          	andi	a1,a3,-13
    4fde:	f00780e3          	beqz	a5,4ede <_vsnprintf+0x4a2>
    4fe2:	bded                	j	4edc <_vsnprintf+0x4a0>
    4fe4:	4829                	li	a6,10
    4fe6:	bddd                	j	4edc <_vsnprintf+0x4a0>
    4fe8:	2006f693          	andi	a3,a3,512
    4fec:	b719                	j	4ef2 <_vsnprintf+0x4b6>
    4fee:	00044783          	lbu	a5,0(s0)
    4ff2:	873e                	mv	a4,a5
    4ff4:	b145                	j	4c94 <_vsnprintf+0x258>
    4ff6:	00044703          	lbu	a4,0(s0)
    4ffa:	bf29                	j	4f14 <_vsnprintf+0x4d8>
    4ffc:	8dea                	mv	s11,s10
    4ffe:	845a                	mv	s0,s6
    5000:	bc59                	j	4a96 <_vsnprintf+0x5a>
    5002:	4821                	li	a6,8
    5004:	85b6                	mv	a1,a3
    5006:	06400713          	li	a4,100
    500a:	4005f793          	andi	a5,a1,1024
    500e:	06e51463          	bne	a0,a4,5076 <_vsnprintf+0x63a>
    5012:	2005f693          	andi	a3,a1,512
    5016:	c40786e3          	beqz	a5,4c62 <_vsnprintf+0x226>
    501a:	b5c9                	j	4edc <_vsnprintf+0x4a0>
    501c:	4018                	lw	a4,0(s0)
    501e:	bddd                	j	4f14 <_vsnprintf+0x4d8>
    5020:	041d                	addi	s0,s0,7
    5022:	9861                	andi	s0,s0,-8
    5024:	4018                	lw	a4,0(s0)
    5026:	405c                	lw	a5,4(s0)
    5028:	88c2                	mv	a7,a6
    502a:	866e                	mv	a2,s11
    502c:	c62e                	sw	a1,12(sp)
    502e:	c462                	sw	s8,8(sp)
    5030:	c25a                	sw	s6,4(sp)
    5032:	c002                	sw	zero,0(sp)
    5034:	4801                	li	a6,0
    5036:	b779                	j	4fc4 <_vsnprintf+0x588>
    5038:	401c                	lw	a5,0(s0)
    503a:	866e                	mv	a2,s11
    503c:	c22e                	sw	a1,4(sp)
    503e:	41f7d713          	srai	a4,a5,0x1f
    5042:	00f746b3          	xor	a3,a4,a5
    5046:	c062                	sw	s8,0(sp)
    5048:	88da                	mv	a7,s6
    504a:	83fd                	srli	a5,a5,0x1f
    504c:	40e68733          	sub	a4,a3,a4
    5050:	b1b9                	j	4c9e <_vsnprintf+0x262>
    5052:	4809                	li	a6,2
    5054:	bf45                	j	5004 <_vsnprintf+0x5c8>
    5056:	401c                	lw	a5,0(s0)
    5058:	41f7d693          	srai	a3,a5,0x1f
    505c:	00f6c733          	xor	a4,a3,a5
    5060:	8f15                	sub	a4,a4,a3
    5062:	b90d                	j	4c94 <_vsnprintf+0x258>
    5064:	d402                	sw	zero,40(sp)
    5066:	b315                	j	4d8a <_vsnprintf+0x34e>
    5068:	d43e                	sw	a5,40(sp)
    506a:	d2051ee3          	bnez	a0,4da6 <_vsnprintf+0x36a>
    506e:	bf39                	j	4f8c <_vsnprintf+0x550>
    5070:	8cee                	mv	s9,s11
    5072:	8dea                	mv	s11,s10
    5074:	bdd9                	j	4f4a <_vsnprintf+0x50e>
    5076:	86ae                	mv	a3,a1
    5078:	b78d                	j	4fda <_vsnprintf+0x59e>
    507a:	4829                	li	a6,10
    507c:	b769                	j	5006 <_vsnprintf+0x5ca>

0000507e <puts>:
    507e:	1141                	addi	sp,sp,-16
    5080:	c422                	sw	s0,8(sp)
    5082:	c606                	sw	ra,12(sp)
    5084:	842a                	mv	s0,a0
    5086:	00054503          	lbu	a0,0(a0)
    508a:	c901                	beqz	a0,509a <puts+0x1c>
    508c:	55fd                	li	a1,-1
    508e:	0405                	addi	s0,s0,1
    5090:	ce9fe0ef          	jal	ra,3d78 <fputc>
    5094:	00044503          	lbu	a0,0(s0)
    5098:	f975                	bnez	a0,508c <puts+0xe>
    509a:	55fd                	li	a1,-1
    509c:	4529                	li	a0,10
    509e:	cdbfe0ef          	jal	ra,3d78 <fputc>
    50a2:	40b2                	lw	ra,12(sp)
    50a4:	4422                	lw	s0,8(sp)
    50a6:	4501                	li	a0,0
    50a8:	0141                	addi	sp,sp,16
    50aa:	8082                	ret

000050ac <_putchar>:
    50ac:	55fd                	li	a1,-1
    50ae:	ccbfe06f          	j	3d78 <fputc>

000050b2 <putchar>:
    50b2:	1141                	addi	sp,sp,-16
    50b4:	55fd                	li	a1,-1
    50b6:	0ff57513          	andi	a0,a0,255
    50ba:	c606                	sw	ra,12(sp)
    50bc:	cbdfe0ef          	jal	ra,3d78 <fputc>
    50c0:	40b2                	lw	ra,12(sp)
    50c2:	4501                	li	a0,0
    50c4:	0141                	addi	sp,sp,16
    50c6:	8082                	ret

000050c8 <printf>:
    50c8:	7139                	addi	sp,sp,-64
    50ca:	02410313          	addi	t1,sp,36
    50ce:	d636                	sw	a3,44(sp)
    50d0:	86aa                	mv	a3,a0
    50d2:	6515                	lui	a0,0x5
    50d4:	d22e                	sw	a1,36(sp)
    50d6:	d432                	sw	a2,40(sp)
    50d8:	d83a                	sw	a4,48(sp)
    50da:	002c                	addi	a1,sp,8
    50dc:	871a                	mv	a4,t1
    50de:	567d                	li	a2,-1
    50e0:	a2850513          	addi	a0,a0,-1496 # 4a28 <_out_char>
    50e4:	ce06                	sw	ra,28(sp)
    50e6:	da3e                	sw	a5,52(sp)
    50e8:	dc42                	sw	a6,56(sp)
    50ea:	de46                	sw	a7,60(sp)
    50ec:	c61a                	sw	t1,12(sp)
    50ee:	32b9                	jal	4a3c <_vsnprintf>
    50f0:	40f2                	lw	ra,28(sp)
    50f2:	6121                	addi	sp,sp,64
    50f4:	8082                	ret

000050f6 <sprintf>:
    50f6:	7139                	addi	sp,sp,-64
    50f8:	02810313          	addi	t1,sp,40
    50fc:	d636                	sw	a3,44(sp)
    50fe:	86ae                	mv	a3,a1
    5100:	85aa                	mv	a1,a0
    5102:	6511                	lui	a0,0x4
    5104:	d432                	sw	a2,40(sp)
    5106:	d83a                	sw	a4,48(sp)
    5108:	567d                	li	a2,-1
    510a:	871a                	mv	a4,t1
    510c:	dea50513          	addi	a0,a0,-534 # 3dea <_out_buffer>
    5110:	ce06                	sw	ra,28(sp)
    5112:	da3e                	sw	a5,52(sp)
    5114:	dc42                	sw	a6,56(sp)
    5116:	de46                	sw	a7,60(sp)
    5118:	c61a                	sw	t1,12(sp)
    511a:	320d                	jal	4a3c <_vsnprintf>
    511c:	40f2                	lw	ra,28(sp)
    511e:	6121                	addi	sp,sp,64
    5120:	8082                	ret

00005122 <snprintf>:
    5122:	7139                	addi	sp,sp,-64
    5124:	02c10313          	addi	t1,sp,44
    5128:	d636                	sw	a3,44(sp)
    512a:	86b2                	mv	a3,a2
    512c:	862e                	mv	a2,a1
    512e:	85aa                	mv	a1,a0
    5130:	6511                	lui	a0,0x4
    5132:	d83a                	sw	a4,48(sp)
    5134:	dea50513          	addi	a0,a0,-534 # 3dea <_out_buffer>
    5138:	871a                	mv	a4,t1
    513a:	ce06                	sw	ra,28(sp)
    513c:	da3e                	sw	a5,52(sp)
    513e:	dc42                	sw	a6,56(sp)
    5140:	de46                	sw	a7,60(sp)
    5142:	c61a                	sw	t1,12(sp)
    5144:	38e5                	jal	4a3c <_vsnprintf>
    5146:	40f2                	lw	ra,28(sp)
    5148:	6121                	addi	sp,sp,64
    514a:	8082                	ret

0000514c <vprintf>:
    514c:	1101                	addi	sp,sp,-32
    514e:	86aa                	mv	a3,a0
    5150:	6515                	lui	a0,0x5
    5152:	872e                	mv	a4,a1
    5154:	567d                	li	a2,-1
    5156:	006c                	addi	a1,sp,12
    5158:	a2850513          	addi	a0,a0,-1496 # 4a28 <_out_char>
    515c:	ce06                	sw	ra,28(sp)
    515e:	38f9                	jal	4a3c <_vsnprintf>
    5160:	40f2                	lw	ra,28(sp)
    5162:	6105                	addi	sp,sp,32
    5164:	8082                	ret

00005166 <vsnprintf>:
    5166:	8736                	mv	a4,a3
    5168:	86b2                	mv	a3,a2
    516a:	862e                	mv	a2,a1
    516c:	85aa                	mv	a1,a0
    516e:	6511                	lui	a0,0x4
    5170:	dea50513          	addi	a0,a0,-534 # 3dea <_out_buffer>
    5174:	b0e1                	j	4a3c <_vsnprintf>

00005176 <fctprintf>:
    5176:	7139                	addi	sp,sp,-64
    5178:	02c10313          	addi	t1,sp,44
    517c:	8eaa                	mv	t4,a0
    517e:	6515                	lui	a0,0x5
    5180:	8e2e                	mv	t3,a1
    5182:	d636                	sw	a3,44(sp)
    5184:	d83a                	sw	a4,48(sp)
    5186:	86b2                	mv	a3,a2
    5188:	002c                	addi	a1,sp,8
    518a:	871a                	mv	a4,t1
    518c:	567d                	li	a2,-1
    518e:	a3250513          	addi	a0,a0,-1486 # 4a32 <_out_fct>
    5192:	ce06                	sw	ra,28(sp)
    5194:	da3e                	sw	a5,52(sp)
    5196:	dc42                	sw	a6,56(sp)
    5198:	de46                	sw	a7,60(sp)
    519a:	c21a                	sw	t1,4(sp)
    519c:	c476                	sw	t4,8(sp)
    519e:	c672                	sw	t3,12(sp)
    51a0:	3871                	jal	4a3c <_vsnprintf>
    51a2:	40f2                	lw	ra,28(sp)
    51a4:	6121                	addi	sp,sp,64
    51a6:	8082                	ret

000051a8 <__thead_vprintfsprintf>:
    51a8:	4501                	li	a0,0
    51aa:	8082                	ret

000051ac <__thead_vprintfprintf>:
    51ac:	4501                	li	a0,0
    51ae:	8082                	ret

000051b0 <stdout>:
    51b0:	4501                	li	a0,0
    51b2:	8082                	ret

000051b4 <ck_uart_set_baudrate>:
    51b4:	05f5e7b7          	lui	a5,0x5f5e
    51b8:	10078793          	addi	a5,a5,256 # 5f5e100 <_global_impure_ptr+0x5f53b78>
    51bc:	02b7d7b3          	divu	a5,a5,a1
    51c0:	4158                	lw	a4,4(a0)
    51c2:	c50c                	sw	a1,8(a0)
    51c4:	00c74683          	lbu	a3,12(a4)
    51c8:	f806e693          	ori	a3,a3,-128
    51cc:	0ff6f693          	andi	a3,a3,255
    51d0:	00d70623          	sb	a3,12(a4)
    51d4:	0047d693          	srli	a3,a5,0x4
    51d8:	0ff6f693          	andi	a3,a3,255
    51dc:	83b1                	srli	a5,a5,0xc
    51de:	00d70023          	sb	a3,0(a4)
    51e2:	0ff7f793          	andi	a5,a5,255
    51e6:	00f70223          	sb	a5,4(a4)
    51ea:	00c74783          	lbu	a5,12(a4)
    51ee:	07f7f793          	andi	a5,a5,127
    51f2:	00f70623          	sb	a5,12(a4)
    51f6:	8082                	ret

000051f8 <ck_uart_set_parity>:
    51f8:	c54c                	sw	a1,12(a0)
    51fa:	4785                	li	a5,1
    51fc:	04f58363          	beq	a1,a5,5242 <ck_uart_set_parity+0x4a>
    5200:	4789                	li	a5,2
    5202:	00f58d63          	beq	a1,a5,521c <ck_uart_set_parity+0x24>
    5206:	00058363          	beqz	a1,520c <ck_uart_set_parity+0x14>
    520a:	8082                	ret
    520c:	4158                	lw	a4,4(a0)
    520e:	00c74783          	lbu	a5,12(a4)
    5212:	0f77f793          	andi	a5,a5,247
    5216:	00f70623          	sb	a5,12(a4)
    521a:	8082                	ret
    521c:	4158                	lw	a4,4(a0)
    521e:	00c74783          	lbu	a5,12(a4)
    5222:	0ff7f793          	andi	a5,a5,255
    5226:	0087e793          	ori	a5,a5,8
    522a:	00f70623          	sb	a5,12(a4)
    522e:	4158                	lw	a4,4(a0)
    5230:	00c74783          	lbu	a5,12(a4)
    5234:	0ff7f793          	andi	a5,a5,255
    5238:	0107e793          	ori	a5,a5,16
    523c:	00f70623          	sb	a5,12(a4)
    5240:	8082                	ret
    5242:	4158                	lw	a4,4(a0)
    5244:	00c74783          	lbu	a5,12(a4)
    5248:	0ff7f793          	andi	a5,a5,255
    524c:	0087e793          	ori	a5,a5,8
    5250:	00f70623          	sb	a5,12(a4)
    5254:	4158                	lw	a4,4(a0)
    5256:	00c74783          	lbu	a5,12(a4)
    525a:	0ef7f793          	andi	a5,a5,239
    525e:	00f70623          	sb	a5,12(a4)
    5262:	8082                	ret

00005264 <ck_uart_set_wordsize>:
    5264:	c94c                	sw	a1,20(a0)
    5266:	4789                	li	a5,2
    5268:	04f58d63          	beq	a1,a5,52c2 <ck_uart_set_wordsize+0x5e>
    526c:	02b7e563          	bltu	a5,a1,5296 <ck_uart_set_wordsize+0x32>
    5270:	04058163          	beqz	a1,52b2 <ck_uart_set_wordsize+0x4e>
    5274:	4158                	lw	a4,4(a0)
    5276:	00c74783          	lbu	a5,12(a4)
    527a:	0fd7f793          	andi	a5,a5,253
    527e:	00f70623          	sb	a5,12(a4)
    5282:	4158                	lw	a4,4(a0)
    5284:	00c74783          	lbu	a5,12(a4)
    5288:	0ff7f793          	andi	a5,a5,255
    528c:	0017e793          	ori	a5,a5,1
    5290:	00f70623          	sb	a5,12(a4)
    5294:	8082                	ret
    5296:	478d                	li	a5,3
    5298:	00f59c63          	bne	a1,a5,52b0 <ck_uart_set_wordsize+0x4c>
    529c:	4158                	lw	a4,4(a0)
    529e:	00c74783          	lbu	a5,12(a4)
    52a2:	0ff7f793          	andi	a5,a5,255
    52a6:	0037e793          	ori	a5,a5,3
    52aa:	00f70623          	sb	a5,12(a4)
    52ae:	8082                	ret
    52b0:	8082                	ret
    52b2:	4158                	lw	a4,4(a0)
    52b4:	00c74783          	lbu	a5,12(a4)
    52b8:	0fc7f793          	andi	a5,a5,252
    52bc:	00f70623          	sb	a5,12(a4)
    52c0:	8082                	ret
    52c2:	4158                	lw	a4,4(a0)
    52c4:	00c74783          	lbu	a5,12(a4)
    52c8:	0fe7f793          	andi	a5,a5,254
    52cc:	00f70623          	sb	a5,12(a4)
    52d0:	4158                	lw	a4,4(a0)
    52d2:	00c74783          	lbu	a5,12(a4)
    52d6:	0ff7f793          	andi	a5,a5,255
    52da:	0027e793          	ori	a5,a5,2
    52de:	00f70623          	sb	a5,12(a4)
    52e2:	8082                	ret

000052e4 <ck_uart_set_stopbit>:
    52e4:	c90c                	sw	a1,16(a0)
    52e6:	cd99                	beqz	a1,5304 <ck_uart_set_stopbit+0x20>
    52e8:	4785                	li	a5,1
    52ea:	00f59c63          	bne	a1,a5,5302 <ck_uart_set_stopbit+0x1e>
    52ee:	4158                	lw	a4,4(a0)
    52f0:	00c74783          	lbu	a5,12(a4)
    52f4:	0ff7f793          	andi	a5,a5,255
    52f8:	0047e793          	ori	a5,a5,4
    52fc:	00f70623          	sb	a5,12(a4)
    5300:	8082                	ret
    5302:	8082                	ret
    5304:	4158                	lw	a4,4(a0)
    5306:	00c74783          	lbu	a5,12(a4)
    530a:	0fb7f793          	andi	a5,a5,251
    530e:	00f70623          	sb	a5,12(a4)
    5312:	8082                	ret

00005314 <ck_uart_set_rxmode>:
    5314:	cd0c                	sw	a1,24(a0)
    5316:	8082                	ret

00005318 <ck_uart_set_txmode>:
    5318:	cd4c                	sw	a1,28(a0)
    531a:	8082                	ret

0000531c <ck_uart_open>:
    531c:	e981                	bnez	a1,532c <ck_uart_open+0x10>
    531e:	400157b7          	lui	a5,0x40015
    5322:	00052023          	sw	zero,0(a0)
    5326:	c15c                	sw	a5,4(a0)
    5328:	4501                	li	a0,0
    532a:	8082                	ret
    532c:	4505                	li	a0,1
    532e:	8082                	ret

00005330 <ck_uart_init>:
    5330:	4118                	lw	a4,0(a0)
    5332:	67c1                	lui	a5,0x10
    5334:	17fd                	addi	a5,a5,-1
    5336:	0af70163          	beq	a4,a5,53d8 <ck_uart_init+0xa8>
    533a:	4194                	lw	a3,0(a1)
    533c:	05f5e7b7          	lui	a5,0x5f5e
    5340:	10078793          	addi	a5,a5,256 # 5f5e100 <_global_impure_ptr+0x5f53b78>
    5344:	02d7d7b3          	divu	a5,a5,a3
    5348:	4158                	lw	a4,4(a0)
    534a:	1141                	addi	sp,sp,-16
    534c:	c606                	sw	ra,12(sp)
    534e:	c422                	sw	s0,8(sp)
    5350:	c226                	sw	s1,4(sp)
    5352:	c514                	sw	a3,8(a0)
    5354:	00c74683          	lbu	a3,12(a4)
    5358:	84ae                	mv	s1,a1
    535a:	842a                	mv	s0,a0
    535c:	f806e693          	ori	a3,a3,-128
    5360:	0ff6f693          	andi	a3,a3,255
    5364:	00d70623          	sb	a3,12(a4)
    5368:	0047d693          	srli	a3,a5,0x4
    536c:	0ff6f693          	andi	a3,a3,255
    5370:	83b1                	srli	a5,a5,0xc
    5372:	00d70023          	sb	a3,0(a4)
    5376:	0ff7f793          	andi	a5,a5,255
    537a:	00f70223          	sb	a5,4(a4)
    537e:	00c74783          	lbu	a5,12(a4)
    5382:	07f7f793          	andi	a5,a5,127
    5386:	00f70623          	sb	a5,12(a4)
    538a:	458c                	lw	a1,8(a1)
    538c:	35b5                	jal	51f8 <ck_uart_set_parity>
    538e:	44cc                	lw	a1,12(s1)
    5390:	8522                	mv	a0,s0
    5392:	3dc9                	jal	5264 <ck_uart_set_wordsize>
    5394:	40dc                	lw	a5,4(s1)
    5396:	c81c                	sw	a5,16(s0)
    5398:	cb85                	beqz	a5,53c8 <ck_uart_init+0x98>
    539a:	4705                	li	a4,1
    539c:	00e78c63          	beq	a5,a4,53b4 <ck_uart_init+0x84>
    53a0:	4898                	lw	a4,16(s1)
    53a2:	48dc                	lw	a5,20(s1)
    53a4:	40b2                	lw	ra,12(sp)
    53a6:	cc18                	sw	a4,24(s0)
    53a8:	cc5c                	sw	a5,28(s0)
    53aa:	4422                	lw	s0,8(sp)
    53ac:	4492                	lw	s1,4(sp)
    53ae:	4501                	li	a0,0
    53b0:	0141                	addi	sp,sp,16
    53b2:	8082                	ret
    53b4:	4058                	lw	a4,4(s0)
    53b6:	00c74783          	lbu	a5,12(a4)
    53ba:	0ff7f793          	andi	a5,a5,255
    53be:	0047e793          	ori	a5,a5,4
    53c2:	00f70623          	sb	a5,12(a4)
    53c6:	bfe9                	j	53a0 <ck_uart_init+0x70>
    53c8:	4058                	lw	a4,4(s0)
    53ca:	00c74783          	lbu	a5,12(a4)
    53ce:	0fb7f793          	andi	a5,a5,251
    53d2:	00f70623          	sb	a5,12(a4)
    53d6:	b7e9                	j	53a0 <ck_uart_init+0x70>
    53d8:	4505                	li	a0,1
    53da:	8082                	ret

000053dc <ck_uart_close>:
    53dc:	67c1                	lui	a5,0x10
    53de:	17fd                	addi	a5,a5,-1
    53e0:	00052c23          	sw	zero,24(a0)
    53e4:	00052e23          	sw	zero,28(a0)
    53e8:	c11c                	sw	a5,0(a0)
    53ea:	4501                	li	a0,0
    53ec:	8082                	ret

000053ee <ck_uart_putc>:
    53ee:	4d5c                	lw	a5,28(a0)
    53f0:	cb99                	beqz	a5,5406 <ck_uart_putc+0x18>
    53f2:	4158                	lw	a4,4(a0)
    53f4:	01474783          	lbu	a5,20(a4)
    53f8:	0207f793          	andi	a5,a5,32
    53fc:	dfe5                	beqz	a5,53f4 <ck_uart_putc+0x6>
    53fe:	00b70023          	sb	a1,0(a4)
    5402:	4501                	li	a0,0
    5404:	8082                	ret
    5406:	4505                	li	a0,1
    5408:	8082                	ret

0000540a <ck_uart_status>:
    540a:	4501                	li	a0,0
    540c:	8082                	ret

0000540e <vasprintf>:
    540e:	1101                	addi	sp,sp,-32
    5410:	c05a                	sw	s6,0(sp)
    5412:	8b2a                	mv	s6,a0
    5414:	852e                	mv	a0,a1
    5416:	ca26                	sw	s1,20(sp)
    5418:	c64e                	sw	s3,12(sp)
    541a:	c452                	sw	s4,8(sp)
    541c:	c256                	sw	s5,4(sp)
    541e:	ce06                	sw	ra,28(sp)
    5420:	cc22                	sw	s0,24(sp)
    5422:	c84a                	sw	s2,16(sp)
    5424:	8a2e                	mv	s4,a1
    5426:	8ab2                	mv	s5,a2
    5428:	080030ef          	jal	ra,84a8 <strlen>
    542c:	00150993          	addi	s3,a0,1
    5430:	f009f993          	andi	s3,s3,-256
    5434:	10098493          	addi	s1,s3,256
    5438:	000b2023          	sw	zero,0(s6)
    543c:	20098993          	addi	s3,s3,512
    5440:	8526                	mv	a0,s1
    5442:	159020ef          	jal	ra,7d9a <malloc>
    5446:	85a6                	mv	a1,s1
    5448:	86d6                	mv	a3,s5
    544a:	8652                	mv	a2,s4
    544c:	892a                	mv	s2,a0
    544e:	cd29                	beqz	a0,54a8 <vasprintf+0x9a>
    5450:	3b19                	jal	5166 <vsnprintf>
    5452:	842a                	mv	s0,a0
    5454:	14fd                	addi	s1,s1,-1
    5456:	854a                	mv	a0,s2
    5458:	00044d63          	bltz	s0,5472 <vasprintf+0x64>
    545c:	02946163          	bltu	s0,s1,547e <vasprintf+0x70>
    5460:	00140493          	addi	s1,s0,1
    5464:	143020ef          	jal	ra,7da6 <free>
    5468:	01346763          	bltu	s0,s3,5476 <vasprintf+0x68>
    546c:	10098993          	addi	s3,s3,256
    5470:	bfc1                	j	5440 <vasprintf+0x32>
    5472:	135020ef          	jal	ra,7da6 <free>
    5476:	84ce                	mv	s1,s3
    5478:	10098993          	addi	s3,s3,256
    547c:	b7d1                	j	5440 <vasprintf+0x32>
    547e:	ec01                	bnez	s0,5496 <vasprintf+0x88>
    5480:	40f2                	lw	ra,28(sp)
    5482:	8522                	mv	a0,s0
    5484:	4462                	lw	s0,24(sp)
    5486:	44d2                	lw	s1,20(sp)
    5488:	4942                	lw	s2,16(sp)
    548a:	49b2                	lw	s3,12(sp)
    548c:	4a22                	lw	s4,8(sp)
    548e:	4a92                	lw	s5,4(sp)
    5490:	4b02                	lw	s6,0(sp)
    5492:	6105                	addi	sp,sp,32
    5494:	8082                	ret
    5496:	7cf020ef          	jal	ra,8464 <strdup>
    549a:	00ab2023          	sw	a0,0(s6)
    549e:	c519                	beqz	a0,54ac <vasprintf+0x9e>
    54a0:	854a                	mv	a0,s2
    54a2:	105020ef          	jal	ra,7da6 <free>
    54a6:	bfe9                	j	5480 <vasprintf+0x72>
    54a8:	5451                	li	s0,-12
    54aa:	bfd9                	j	5480 <vasprintf+0x72>
    54ac:	012b2023          	sw	s2,0(s6)
    54b0:	bfc1                	j	5480 <vasprintf+0x72>

000054b2 <asprintf>:
    54b2:	7139                	addi	sp,sp,-64
    54b4:	02810313          	addi	t1,sp,40
    54b8:	d432                	sw	a2,40(sp)
    54ba:	861a                	mv	a2,t1
    54bc:	ce06                	sw	ra,28(sp)
    54be:	d636                	sw	a3,44(sp)
    54c0:	d83a                	sw	a4,48(sp)
    54c2:	da3e                	sw	a5,52(sp)
    54c4:	dc42                	sw	a6,56(sp)
    54c6:	de46                	sw	a7,60(sp)
    54c8:	c61a                	sw	t1,12(sp)
    54ca:	3791                	jal	540e <vasprintf>
    54cc:	40f2                	lw	ra,28(sp)
    54ce:	6121                	addi	sp,sp,64
    54d0:	8082                	ret

000054d2 <get_vtimer>:
    54d2:	1141                	addi	sp,sp,-16
    54d4:	c01027f3          	rdtime	a5
    54d8:	c63e                	sw	a5,12(sp)
    54da:	4532                	lw	a0,12(sp)
    54dc:	0141                	addi	sp,sp,16
    54de:	8082                	ret

000054e0 <sim_end>:
    54e0:	600107b7          	lui	a5,0x60010
    54e4:	7741                	lui	a4,0xffff0
    54e6:	fee7ac23          	sw	a4,-8(a5) # 6000fff8 <__kernel_stack+0x3ff50000>
    54ea:	8082                	ret

000054ec <__udivdi3>:
    54ec:	88aa                	mv	a7,a0
    54ee:	87ae                	mv	a5,a1
    54f0:	8832                	mv	a6,a2
    54f2:	8536                	mv	a0,a3
    54f4:	8346                	mv	t1,a7
    54f6:	20069663          	bnez	a3,5702 <__udivdi3+0x216>
    54fa:	00005697          	auipc	a3,0x5
    54fe:	ef668693          	addi	a3,a3,-266 # a3f0 <__clz_tab>
    5502:	0ac5ff63          	bgeu	a1,a2,55c0 <__udivdi3+0xd4>
    5506:	6741                	lui	a4,0x10
    5508:	0ae67563          	bgeu	a2,a4,55b2 <__udivdi3+0xc6>
    550c:	0ff00713          	li	a4,255
    5510:	00c73733          	sltu	a4,a4,a2
    5514:	070e                	slli	a4,a4,0x3
    5516:	00e65533          	srl	a0,a2,a4
    551a:	96aa                	add	a3,a3,a0
    551c:	0006c683          	lbu	a3,0(a3)
    5520:	02000513          	li	a0,32
    5524:	9736                	add	a4,a4,a3
    5526:	40e506b3          	sub	a3,a0,a4
    552a:	00e50b63          	beq	a0,a4,5540 <__udivdi3+0x54>
    552e:	00d795b3          	sll	a1,a5,a3
    5532:	00e8d733          	srl	a4,a7,a4
    5536:	00d61833          	sll	a6,a2,a3
    553a:	8dd9                	or	a1,a1,a4
    553c:	00d89333          	sll	t1,a7,a3
    5540:	01085893          	srli	a7,a6,0x10
    5544:	0315d6b3          	divu	a3,a1,a7
    5548:	01081613          	slli	a2,a6,0x10
    554c:	8241                	srli	a2,a2,0x10
    554e:	01035793          	srli	a5,t1,0x10
    5552:	0315f733          	remu	a4,a1,a7
    5556:	8536                	mv	a0,a3
    5558:	02d605b3          	mul	a1,a2,a3
    555c:	0742                	slli	a4,a4,0x10
    555e:	8fd9                	or	a5,a5,a4
    5560:	00b7fc63          	bgeu	a5,a1,5578 <__udivdi3+0x8c>
    5564:	97c2                	add	a5,a5,a6
    5566:	fff68513          	addi	a0,a3,-1
    556a:	0107e763          	bltu	a5,a6,5578 <__udivdi3+0x8c>
    556e:	00b7f563          	bgeu	a5,a1,5578 <__udivdi3+0x8c>
    5572:	ffe68513          	addi	a0,a3,-2
    5576:	97c2                	add	a5,a5,a6
    5578:	8f8d                	sub	a5,a5,a1
    557a:	0317f733          	remu	a4,a5,a7
    557e:	0342                	slli	t1,t1,0x10
    5580:	01035313          	srli	t1,t1,0x10
    5584:	0317d7b3          	divu	a5,a5,a7
    5588:	0742                	slli	a4,a4,0x10
    558a:	00676333          	or	t1,a4,t1
    558e:	02f606b3          	mul	a3,a2,a5
    5592:	863e                	mv	a2,a5
    5594:	00d37b63          	bgeu	t1,a3,55aa <__udivdi3+0xbe>
    5598:	9342                	add	t1,t1,a6
    559a:	fff78613          	addi	a2,a5,-1
    559e:	01036663          	bltu	t1,a6,55aa <__udivdi3+0xbe>
    55a2:	00d37463          	bgeu	t1,a3,55aa <__udivdi3+0xbe>
    55a6:	ffe78613          	addi	a2,a5,-2
    55aa:	0542                	slli	a0,a0,0x10
    55ac:	8d51                	or	a0,a0,a2
    55ae:	4581                	li	a1,0
    55b0:	a85d                	j	5666 <__udivdi3+0x17a>
    55b2:	01000537          	lui	a0,0x1000
    55b6:	4741                	li	a4,16
    55b8:	f4a66fe3          	bltu	a2,a0,5516 <__udivdi3+0x2a>
    55bc:	4761                	li	a4,24
    55be:	bfa1                	j	5516 <__udivdi3+0x2a>
    55c0:	e601                	bnez	a2,55c8 <__udivdi3+0xdc>
    55c2:	4705                	li	a4,1
    55c4:	02c75833          	divu	a6,a4,a2
    55c8:	6741                	lui	a4,0x10
    55ca:	08e87f63          	bgeu	a6,a4,5668 <__udivdi3+0x17c>
    55ce:	0ff00713          	li	a4,255
    55d2:	01077363          	bgeu	a4,a6,55d8 <__udivdi3+0xec>
    55d6:	4521                	li	a0,8
    55d8:	00a85733          	srl	a4,a6,a0
    55dc:	96ba                	add	a3,a3,a4
    55de:	0006c703          	lbu	a4,0(a3)
    55e2:	02000613          	li	a2,32
    55e6:	972a                	add	a4,a4,a0
    55e8:	40e606b3          	sub	a3,a2,a4
    55ec:	08e61563          	bne	a2,a4,5676 <__udivdi3+0x18a>
    55f0:	410787b3          	sub	a5,a5,a6
    55f4:	4585                	li	a1,1
    55f6:	01085893          	srli	a7,a6,0x10
    55fa:	01081613          	slli	a2,a6,0x10
    55fe:	8241                	srli	a2,a2,0x10
    5600:	01035713          	srli	a4,t1,0x10
    5604:	0317f6b3          	remu	a3,a5,a7
    5608:	0317d7b3          	divu	a5,a5,a7
    560c:	06c2                	slli	a3,a3,0x10
    560e:	8f55                	or	a4,a4,a3
    5610:	02f60e33          	mul	t3,a2,a5
    5614:	853e                	mv	a0,a5
    5616:	01c77c63          	bgeu	a4,t3,562e <__udivdi3+0x142>
    561a:	9742                	add	a4,a4,a6
    561c:	fff78513          	addi	a0,a5,-1
    5620:	01076763          	bltu	a4,a6,562e <__udivdi3+0x142>
    5624:	01c77563          	bgeu	a4,t3,562e <__udivdi3+0x142>
    5628:	ffe78513          	addi	a0,a5,-2
    562c:	9742                	add	a4,a4,a6
    562e:	41c70733          	sub	a4,a4,t3
    5632:	031777b3          	remu	a5,a4,a7
    5636:	0342                	slli	t1,t1,0x10
    5638:	01035313          	srli	t1,t1,0x10
    563c:	03175733          	divu	a4,a4,a7
    5640:	07c2                	slli	a5,a5,0x10
    5642:	0067e333          	or	t1,a5,t1
    5646:	02e606b3          	mul	a3,a2,a4
    564a:	863a                	mv	a2,a4
    564c:	00d37b63          	bgeu	t1,a3,5662 <__udivdi3+0x176>
    5650:	9342                	add	t1,t1,a6
    5652:	fff70613          	addi	a2,a4,-1 # ffff <_global_impure_ptr+0x5a77>
    5656:	01036663          	bltu	t1,a6,5662 <__udivdi3+0x176>
    565a:	00d37463          	bgeu	t1,a3,5662 <__udivdi3+0x176>
    565e:	ffe70613          	addi	a2,a4,-2
    5662:	0542                	slli	a0,a0,0x10
    5664:	8d51                	or	a0,a0,a2
    5666:	8082                	ret
    5668:	01000737          	lui	a4,0x1000
    566c:	4541                	li	a0,16
    566e:	f6e865e3          	bltu	a6,a4,55d8 <__udivdi3+0xec>
    5672:	4561                	li	a0,24
    5674:	b795                	j	55d8 <__udivdi3+0xec>
    5676:	00d81833          	sll	a6,a6,a3
    567a:	00e7d533          	srl	a0,a5,a4
    567e:	00d89333          	sll	t1,a7,a3
    5682:	00d797b3          	sll	a5,a5,a3
    5686:	00e8d733          	srl	a4,a7,a4
    568a:	01085893          	srli	a7,a6,0x10
    568e:	00f76633          	or	a2,a4,a5
    5692:	03157733          	remu	a4,a0,a7
    5696:	01081793          	slli	a5,a6,0x10
    569a:	83c1                	srli	a5,a5,0x10
    569c:	01065593          	srli	a1,a2,0x10
    56a0:	03155533          	divu	a0,a0,a7
    56a4:	0742                	slli	a4,a4,0x10
    56a6:	8f4d                	or	a4,a4,a1
    56a8:	02a786b3          	mul	a3,a5,a0
    56ac:	85aa                	mv	a1,a0
    56ae:	00d77c63          	bgeu	a4,a3,56c6 <__udivdi3+0x1da>
    56b2:	9742                	add	a4,a4,a6
    56b4:	fff50593          	addi	a1,a0,-1 # ffffff <_global_impure_ptr+0xff5a77>
    56b8:	01076763          	bltu	a4,a6,56c6 <__udivdi3+0x1da>
    56bc:	00d77563          	bgeu	a4,a3,56c6 <__udivdi3+0x1da>
    56c0:	ffe50593          	addi	a1,a0,-2
    56c4:	9742                	add	a4,a4,a6
    56c6:	40d706b3          	sub	a3,a4,a3
    56ca:	0316f733          	remu	a4,a3,a7
    56ce:	0642                	slli	a2,a2,0x10
    56d0:	8241                	srli	a2,a2,0x10
    56d2:	0316d6b3          	divu	a3,a3,a7
    56d6:	0742                	slli	a4,a4,0x10
    56d8:	02d78533          	mul	a0,a5,a3
    56dc:	00c767b3          	or	a5,a4,a2
    56e0:	8736                	mv	a4,a3
    56e2:	00a7fc63          	bgeu	a5,a0,56fa <__udivdi3+0x20e>
    56e6:	97c2                	add	a5,a5,a6
    56e8:	fff68713          	addi	a4,a3,-1
    56ec:	0107e763          	bltu	a5,a6,56fa <__udivdi3+0x20e>
    56f0:	00a7f563          	bgeu	a5,a0,56fa <__udivdi3+0x20e>
    56f4:	ffe68713          	addi	a4,a3,-2
    56f8:	97c2                	add	a5,a5,a6
    56fa:	05c2                	slli	a1,a1,0x10
    56fc:	8f89                	sub	a5,a5,a0
    56fe:	8dd9                	or	a1,a1,a4
    5700:	bddd                	j	55f6 <__udivdi3+0x10a>
    5702:	14d5e263          	bltu	a1,a3,5846 <__udivdi3+0x35a>
    5706:	6741                	lui	a4,0x10
    5708:	02e6ff63          	bgeu	a3,a4,5746 <__udivdi3+0x25a>
    570c:	0ff00713          	li	a4,255
    5710:	00d735b3          	sltu	a1,a4,a3
    5714:	058e                	slli	a1,a1,0x3
    5716:	00b6d533          	srl	a0,a3,a1
    571a:	00005717          	auipc	a4,0x5
    571e:	cd670713          	addi	a4,a4,-810 # a3f0 <__clz_tab>
    5722:	972a                	add	a4,a4,a0
    5724:	00074703          	lbu	a4,0(a4)
    5728:	02000513          	li	a0,32
    572c:	972e                	add	a4,a4,a1
    572e:	40e505b3          	sub	a1,a0,a4
    5732:	02e51163          	bne	a0,a4,5754 <__udivdi3+0x268>
    5736:	4505                	li	a0,1
    5738:	f2f6e7e3          	bltu	a3,a5,5666 <__udivdi3+0x17a>
    573c:	00c8b533          	sltu	a0,a7,a2
    5740:	00154513          	xori	a0,a0,1
    5744:	b70d                	j	5666 <__udivdi3+0x17a>
    5746:	01000737          	lui	a4,0x1000
    574a:	45c1                	li	a1,16
    574c:	fce6e5e3          	bltu	a3,a4,5716 <__udivdi3+0x22a>
    5750:	45e1                	li	a1,24
    5752:	b7d1                	j	5716 <__udivdi3+0x22a>
    5754:	00e65833          	srl	a6,a2,a4
    5758:	00b696b3          	sll	a3,a3,a1
    575c:	00d86833          	or	a6,a6,a3
    5760:	00e7d333          	srl	t1,a5,a4
    5764:	01085e93          	srli	t4,a6,0x10
    5768:	03d376b3          	remu	a3,t1,t4
    576c:	00b797b3          	sll	a5,a5,a1
    5770:	00e8d733          	srl	a4,a7,a4
    5774:	00b61e33          	sll	t3,a2,a1
    5778:	00f76633          	or	a2,a4,a5
    577c:	01081793          	slli	a5,a6,0x10
    5780:	83c1                	srli	a5,a5,0x10
    5782:	01065713          	srli	a4,a2,0x10
    5786:	03d35333          	divu	t1,t1,t4
    578a:	06c2                	slli	a3,a3,0x10
    578c:	8f55                	or	a4,a4,a3
    578e:	02678f33          	mul	t5,a5,t1
    5792:	851a                	mv	a0,t1
    5794:	01e77c63          	bgeu	a4,t5,57ac <__udivdi3+0x2c0>
    5798:	9742                	add	a4,a4,a6
    579a:	fff30513          	addi	a0,t1,-1
    579e:	01076763          	bltu	a4,a6,57ac <__udivdi3+0x2c0>
    57a2:	01e77563          	bgeu	a4,t5,57ac <__udivdi3+0x2c0>
    57a6:	ffe30513          	addi	a0,t1,-2
    57aa:	9742                	add	a4,a4,a6
    57ac:	41e70733          	sub	a4,a4,t5
    57b0:	03d776b3          	remu	a3,a4,t4
    57b4:	03d75733          	divu	a4,a4,t4
    57b8:	06c2                	slli	a3,a3,0x10
    57ba:	02e78333          	mul	t1,a5,a4
    57be:	01061793          	slli	a5,a2,0x10
    57c2:	83c1                	srli	a5,a5,0x10
    57c4:	8fd5                	or	a5,a5,a3
    57c6:	863a                	mv	a2,a4
    57c8:	0067fc63          	bgeu	a5,t1,57e0 <__udivdi3+0x2f4>
    57cc:	97c2                	add	a5,a5,a6
    57ce:	fff70613          	addi	a2,a4,-1 # ffffff <_global_impure_ptr+0xff5a77>
    57d2:	0107e763          	bltu	a5,a6,57e0 <__udivdi3+0x2f4>
    57d6:	0067f563          	bgeu	a5,t1,57e0 <__udivdi3+0x2f4>
    57da:	ffe70613          	addi	a2,a4,-2
    57de:	97c2                	add	a5,a5,a6
    57e0:	0542                	slli	a0,a0,0x10
    57e2:	6ec1                	lui	t4,0x10
    57e4:	8d51                	or	a0,a0,a2
    57e6:	fffe8693          	addi	a3,t4,-1 # ffff <_global_impure_ptr+0x5a77>
    57ea:	010e5613          	srli	a2,t3,0x10
    57ee:	01055813          	srli	a6,a0,0x10
    57f2:	406787b3          	sub	a5,a5,t1
    57f6:	00d57333          	and	t1,a0,a3
    57fa:	00de76b3          	and	a3,t3,a3
    57fe:	02d30e33          	mul	t3,t1,a3
    5802:	02d806b3          	mul	a3,a6,a3
    5806:	010e5713          	srli	a4,t3,0x10
    580a:	02c30333          	mul	t1,t1,a2
    580e:	9336                	add	t1,t1,a3
    5810:	971a                	add	a4,a4,t1
    5812:	02c80833          	mul	a6,a6,a2
    5816:	00d77363          	bgeu	a4,a3,581c <__udivdi3+0x330>
    581a:	9876                	add	a6,a6,t4
    581c:	01075693          	srli	a3,a4,0x10
    5820:	9836                	add	a6,a6,a3
    5822:	0307e063          	bltu	a5,a6,5842 <__udivdi3+0x356>
    5826:	d90794e3          	bne	a5,a6,55ae <__udivdi3+0xc2>
    582a:	67c1                	lui	a5,0x10
    582c:	17fd                	addi	a5,a5,-1
    582e:	8f7d                	and	a4,a4,a5
    5830:	0742                	slli	a4,a4,0x10
    5832:	00fe7e33          	and	t3,t3,a5
    5836:	00b898b3          	sll	a7,a7,a1
    583a:	9772                	add	a4,a4,t3
    583c:	4581                	li	a1,0
    583e:	e2e8f4e3          	bgeu	a7,a4,5666 <__udivdi3+0x17a>
    5842:	157d                	addi	a0,a0,-1
    5844:	b3ad                	j	55ae <__udivdi3+0xc2>
    5846:	4581                	li	a1,0
    5848:	4501                	li	a0,0
    584a:	bd31                	j	5666 <__udivdi3+0x17a>

0000584c <__umoddi3>:
    584c:	832a                	mv	t1,a0
    584e:	8832                	mv	a6,a2
    5850:	87b6                	mv	a5,a3
    5852:	872e                	mv	a4,a1
    5854:	1c069563          	bnez	a3,5a1e <__umoddi3+0x1d2>
    5858:	00005697          	auipc	a3,0x5
    585c:	b9868693          	addi	a3,a3,-1128 # a3f0 <__clz_tab>
    5860:	0ac5f663          	bgeu	a1,a2,590c <__umoddi3+0xc0>
    5864:	68c1                	lui	a7,0x10
    5866:	09167c63          	bgeu	a2,a7,58fe <__umoddi3+0xb2>
    586a:	0ff00893          	li	a7,255
    586e:	00c8f363          	bgeu	a7,a2,5874 <__umoddi3+0x28>
    5872:	47a1                	li	a5,8
    5874:	00f658b3          	srl	a7,a2,a5
    5878:	96c6                	add	a3,a3,a7
    587a:	0006c683          	lbu	a3,0(a3)
    587e:	97b6                	add	a5,a5,a3
    5880:	02000693          	li	a3,32
    5884:	40f688b3          	sub	a7,a3,a5
    5888:	00f68c63          	beq	a3,a5,58a0 <__umoddi3+0x54>
    588c:	011595b3          	sll	a1,a1,a7
    5890:	00f357b3          	srl	a5,t1,a5
    5894:	01161833          	sll	a6,a2,a7
    5898:	00b7e733          	or	a4,a5,a1
    589c:	01131533          	sll	a0,t1,a7
    58a0:	01085593          	srli	a1,a6,0x10
    58a4:	02b777b3          	remu	a5,a4,a1
    58a8:	01081613          	slli	a2,a6,0x10
    58ac:	8241                	srli	a2,a2,0x10
    58ae:	01055693          	srli	a3,a0,0x10
    58b2:	02b75733          	divu	a4,a4,a1
    58b6:	07c2                	slli	a5,a5,0x10
    58b8:	8edd                	or	a3,a3,a5
    58ba:	02e60733          	mul	a4,a2,a4
    58be:	00e6f863          	bgeu	a3,a4,58ce <__umoddi3+0x82>
    58c2:	96c2                	add	a3,a3,a6
    58c4:	0106e563          	bltu	a3,a6,58ce <__umoddi3+0x82>
    58c8:	00e6f363          	bgeu	a3,a4,58ce <__umoddi3+0x82>
    58cc:	96c2                	add	a3,a3,a6
    58ce:	8e99                	sub	a3,a3,a4
    58d0:	02b6f7b3          	remu	a5,a3,a1
    58d4:	0542                	slli	a0,a0,0x10
    58d6:	8141                	srli	a0,a0,0x10
    58d8:	02b6d6b3          	divu	a3,a3,a1
    58dc:	07c2                	slli	a5,a5,0x10
    58de:	8d5d                	or	a0,a0,a5
    58e0:	02d606b3          	mul	a3,a2,a3
    58e4:	00d57863          	bgeu	a0,a3,58f4 <__umoddi3+0xa8>
    58e8:	9542                	add	a0,a0,a6
    58ea:	01056563          	bltu	a0,a6,58f4 <__umoddi3+0xa8>
    58ee:	00d57363          	bgeu	a0,a3,58f4 <__umoddi3+0xa8>
    58f2:	9542                	add	a0,a0,a6
    58f4:	8d15                	sub	a0,a0,a3
    58f6:	01155533          	srl	a0,a0,a7
    58fa:	4581                	li	a1,0
    58fc:	8082                	ret
    58fe:	010008b7          	lui	a7,0x1000
    5902:	47c1                	li	a5,16
    5904:	f71668e3          	bltu	a2,a7,5874 <__umoddi3+0x28>
    5908:	47e1                	li	a5,24
    590a:	b7ad                	j	5874 <__umoddi3+0x28>
    590c:	e601                	bnez	a2,5914 <__umoddi3+0xc8>
    590e:	4705                	li	a4,1
    5910:	02c75833          	divu	a6,a4,a2
    5914:	6741                	lui	a4,0x10
    5916:	08e87363          	bgeu	a6,a4,599c <__umoddi3+0x150>
    591a:	0ff00713          	li	a4,255
    591e:	01077363          	bgeu	a4,a6,5924 <__umoddi3+0xd8>
    5922:	47a1                	li	a5,8
    5924:	00f85733          	srl	a4,a6,a5
    5928:	96ba                	add	a3,a3,a4
    592a:	0006c603          	lbu	a2,0(a3)
    592e:	963e                	add	a2,a2,a5
    5930:	02000793          	li	a5,32
    5934:	40c788b3          	sub	a7,a5,a2
    5938:	06c79963          	bne	a5,a2,59aa <__umoddi3+0x15e>
    593c:	410585b3          	sub	a1,a1,a6
    5940:	01085693          	srli	a3,a6,0x10
    5944:	01081793          	slli	a5,a6,0x10
    5948:	83c1                	srli	a5,a5,0x10
    594a:	01055613          	srli	a2,a0,0x10
    594e:	02d5f733          	remu	a4,a1,a3
    5952:	02d5d5b3          	divu	a1,a1,a3
    5956:	0742                	slli	a4,a4,0x10
    5958:	8f51                	or	a4,a4,a2
    595a:	02b785b3          	mul	a1,a5,a1
    595e:	00b77863          	bgeu	a4,a1,596e <__umoddi3+0x122>
    5962:	9742                	add	a4,a4,a6
    5964:	01076563          	bltu	a4,a6,596e <__umoddi3+0x122>
    5968:	00b77363          	bgeu	a4,a1,596e <__umoddi3+0x122>
    596c:	9742                	add	a4,a4,a6
    596e:	40b705b3          	sub	a1,a4,a1
    5972:	02d5f733          	remu	a4,a1,a3
    5976:	0542                	slli	a0,a0,0x10
    5978:	8141                	srli	a0,a0,0x10
    597a:	02d5d5b3          	divu	a1,a1,a3
    597e:	02b785b3          	mul	a1,a5,a1
    5982:	01071793          	slli	a5,a4,0x10
    5986:	8d5d                	or	a0,a0,a5
    5988:	00b57863          	bgeu	a0,a1,5998 <__umoddi3+0x14c>
    598c:	9542                	add	a0,a0,a6
    598e:	01056563          	bltu	a0,a6,5998 <__umoddi3+0x14c>
    5992:	00b57363          	bgeu	a0,a1,5998 <__umoddi3+0x14c>
    5996:	9542                	add	a0,a0,a6
    5998:	8d0d                	sub	a0,a0,a1
    599a:	bfb1                	j	58f6 <__umoddi3+0xaa>
    599c:	01000737          	lui	a4,0x1000
    59a0:	47c1                	li	a5,16
    59a2:	f8e861e3          	bltu	a6,a4,5924 <__umoddi3+0xd8>
    59a6:	47e1                	li	a5,24
    59a8:	bfb5                	j	5924 <__umoddi3+0xd8>
    59aa:	01181833          	sll	a6,a6,a7
    59ae:	00c5d6b3          	srl	a3,a1,a2
    59b2:	01085793          	srli	a5,a6,0x10
    59b6:	02f6f733          	remu	a4,a3,a5
    59ba:	011595b3          	sll	a1,a1,a7
    59be:	00c35633          	srl	a2,t1,a2
    59c2:	8e4d                	or	a2,a2,a1
    59c4:	01081593          	slli	a1,a6,0x10
    59c8:	81c1                	srli	a1,a1,0x10
    59ca:	01131533          	sll	a0,t1,a7
    59ce:	01065313          	srli	t1,a2,0x10
    59d2:	02f6d6b3          	divu	a3,a3,a5
    59d6:	0742                	slli	a4,a4,0x10
    59d8:	00676733          	or	a4,a4,t1
    59dc:	02d586b3          	mul	a3,a1,a3
    59e0:	00d77863          	bgeu	a4,a3,59f0 <__umoddi3+0x1a4>
    59e4:	9742                	add	a4,a4,a6
    59e6:	01076563          	bltu	a4,a6,59f0 <__umoddi3+0x1a4>
    59ea:	00d77363          	bgeu	a4,a3,59f0 <__umoddi3+0x1a4>
    59ee:	9742                	add	a4,a4,a6
    59f0:	40d706b3          	sub	a3,a4,a3
    59f4:	02f6f733          	remu	a4,a3,a5
    59f8:	0642                	slli	a2,a2,0x10
    59fa:	8241                	srli	a2,a2,0x10
    59fc:	02f6d6b3          	divu	a3,a3,a5
    5a00:	0742                	slli	a4,a4,0x10
    5a02:	02d586b3          	mul	a3,a1,a3
    5a06:	00c765b3          	or	a1,a4,a2
    5a0a:	00d5f863          	bgeu	a1,a3,5a1a <__umoddi3+0x1ce>
    5a0e:	95c2                	add	a1,a1,a6
    5a10:	0105e563          	bltu	a1,a6,5a1a <__umoddi3+0x1ce>
    5a14:	00d5f363          	bgeu	a1,a3,5a1a <__umoddi3+0x1ce>
    5a18:	95c2                	add	a1,a1,a6
    5a1a:	8d95                	sub	a1,a1,a3
    5a1c:	b715                	j	5940 <__umoddi3+0xf4>
    5a1e:	ecd5efe3          	bltu	a1,a3,58fc <__umoddi3+0xb0>
    5a22:	67c1                	lui	a5,0x10
    5a24:	04f6f463          	bgeu	a3,a5,5a6c <__umoddi3+0x220>
    5a28:	0ff00893          	li	a7,255
    5a2c:	00d8b7b3          	sltu	a5,a7,a3
    5a30:	078e                	slli	a5,a5,0x3
    5a32:	00f6d8b3          	srl	a7,a3,a5
    5a36:	00005817          	auipc	a6,0x5
    5a3a:	9ba80813          	addi	a6,a6,-1606 # a3f0 <__clz_tab>
    5a3e:	9846                	add	a6,a6,a7
    5a40:	00084883          	lbu	a7,0(a6)
    5a44:	98be                	add	a7,a7,a5
    5a46:	02000793          	li	a5,32
    5a4a:	41178833          	sub	a6,a5,a7
    5a4e:	03179663          	bne	a5,a7,5a7a <__umoddi3+0x22e>
    5a52:	00b6e463          	bltu	a3,a1,5a5a <__umoddi3+0x20e>
    5a56:	00c36963          	bltu	t1,a2,5a68 <__umoddi3+0x21c>
    5a5a:	40c30533          	sub	a0,t1,a2
    5a5e:	8d95                	sub	a1,a1,a3
    5a60:	00a33733          	sltu	a4,t1,a0
    5a64:	40e58733          	sub	a4,a1,a4
    5a68:	85ba                	mv	a1,a4
    5a6a:	bd49                	j	58fc <__umoddi3+0xb0>
    5a6c:	01000837          	lui	a6,0x1000
    5a70:	47c1                	li	a5,16
    5a72:	fd06e0e3          	bltu	a3,a6,5a32 <__umoddi3+0x1e6>
    5a76:	47e1                	li	a5,24
    5a78:	bf6d                	j	5a32 <__umoddi3+0x1e6>
    5a7a:	011657b3          	srl	a5,a2,a7
    5a7e:	010696b3          	sll	a3,a3,a6
    5a82:	00d7ee33          	or	t3,a5,a3
    5a86:	0115d733          	srl	a4,a1,a7
    5a8a:	010e5f13          	srli	t5,t3,0x10
    5a8e:	01061eb3          	sll	t4,a2,a6
    5a92:	03e77633          	remu	a2,a4,t5
    5a96:	010595b3          	sll	a1,a1,a6
    5a9a:	011357b3          	srl	a5,t1,a7
    5a9e:	8fcd                	or	a5,a5,a1
    5aa0:	010e1593          	slli	a1,t3,0x10
    5aa4:	81c1                	srli	a1,a1,0x10
    5aa6:	01031533          	sll	a0,t1,a6
    5aaa:	0107d693          	srli	a3,a5,0x10
    5aae:	03e75733          	divu	a4,a4,t5
    5ab2:	0642                	slli	a2,a2,0x10
    5ab4:	8ed1                	or	a3,a3,a2
    5ab6:	02e58333          	mul	t1,a1,a4
    5aba:	863a                	mv	a2,a4
    5abc:	0066fc63          	bgeu	a3,t1,5ad4 <__umoddi3+0x288>
    5ac0:	96f2                	add	a3,a3,t3
    5ac2:	fff70613          	addi	a2,a4,-1 # ffffff <_global_impure_ptr+0xff5a77>
    5ac6:	01c6e763          	bltu	a3,t3,5ad4 <__umoddi3+0x288>
    5aca:	0066f563          	bgeu	a3,t1,5ad4 <__umoddi3+0x288>
    5ace:	ffe70613          	addi	a2,a4,-2
    5ad2:	96f2                	add	a3,a3,t3
    5ad4:	406686b3          	sub	a3,a3,t1
    5ad8:	03e6f333          	remu	t1,a3,t5
    5adc:	03e6d6b3          	divu	a3,a3,t5
    5ae0:	0342                	slli	t1,t1,0x10
    5ae2:	02d58733          	mul	a4,a1,a3
    5ae6:	01079593          	slli	a1,a5,0x10
    5aea:	81c1                	srli	a1,a1,0x10
    5aec:	00b365b3          	or	a1,t1,a1
    5af0:	87b6                	mv	a5,a3
    5af2:	00e5fc63          	bgeu	a1,a4,5b0a <__umoddi3+0x2be>
    5af6:	95f2                	add	a1,a1,t3
    5af8:	fff68793          	addi	a5,a3,-1
    5afc:	01c5e763          	bltu	a1,t3,5b0a <__umoddi3+0x2be>
    5b00:	00e5f563          	bgeu	a1,a4,5b0a <__umoddi3+0x2be>
    5b04:	ffe68793          	addi	a5,a3,-2
    5b08:	95f2                	add	a1,a1,t3
    5b0a:	0642                	slli	a2,a2,0x10
    5b0c:	6f41                	lui	t5,0x10
    5b0e:	8e5d                	or	a2,a2,a5
    5b10:	ffff0693          	addi	a3,t5,-1 # ffff <_global_impure_ptr+0x5a77>
    5b14:	00d67333          	and	t1,a2,a3
    5b18:	8d99                	sub	a1,a1,a4
    5b1a:	8241                	srli	a2,a2,0x10
    5b1c:	010ed713          	srli	a4,t4,0x10
    5b20:	00def6b3          	and	a3,t4,a3
    5b24:	02d307b3          	mul	a5,t1,a3
    5b28:	02d606b3          	mul	a3,a2,a3
    5b2c:	02e30333          	mul	t1,t1,a4
    5b30:	02e60633          	mul	a2,a2,a4
    5b34:	9336                	add	t1,t1,a3
    5b36:	0107d713          	srli	a4,a5,0x10
    5b3a:	971a                	add	a4,a4,t1
    5b3c:	00d77363          	bgeu	a4,a3,5b42 <__umoddi3+0x2f6>
    5b40:	967a                	add	a2,a2,t5
    5b42:	01075693          	srli	a3,a4,0x10
    5b46:	96b2                	add	a3,a3,a2
    5b48:	6641                	lui	a2,0x10
    5b4a:	167d                	addi	a2,a2,-1
    5b4c:	8f71                	and	a4,a4,a2
    5b4e:	0742                	slli	a4,a4,0x10
    5b50:	8ff1                	and	a5,a5,a2
    5b52:	97ba                	add	a5,a5,a4
    5b54:	00d5e663          	bltu	a1,a3,5b60 <__umoddi3+0x314>
    5b58:	00d59b63          	bne	a1,a3,5b6e <__umoddi3+0x322>
    5b5c:	00f57963          	bgeu	a0,a5,5b6e <__umoddi3+0x322>
    5b60:	41d78633          	sub	a2,a5,t4
    5b64:	00c7b7b3          	sltu	a5,a5,a2
    5b68:	97f2                	add	a5,a5,t3
    5b6a:	8e9d                	sub	a3,a3,a5
    5b6c:	87b2                	mv	a5,a2
    5b6e:	40f507b3          	sub	a5,a0,a5
    5b72:	00f53533          	sltu	a0,a0,a5
    5b76:	8d95                	sub	a1,a1,a3
    5b78:	8d89                	sub	a1,a1,a0
    5b7a:	011598b3          	sll	a7,a1,a7
    5b7e:	0107d533          	srl	a0,a5,a6
    5b82:	00a8e533          	or	a0,a7,a0
    5b86:	0105d5b3          	srl	a1,a1,a6
    5b8a:	bb8d                	j	58fc <__umoddi3+0xb0>

00005b8c <__adddf3>:
    5b8c:	1101                	addi	sp,sp,-32
    5b8e:	ce06                	sw	ra,28(sp)
    5b90:	cc22                	sw	s0,24(sp)
    5b92:	ca26                	sw	s1,20(sp)
    5b94:	c84a                	sw	s2,16(sp)
    5b96:	c64e                	sw	s3,12(sp)
    5b98:	c452                	sw	s4,8(sp)
    5b9a:	002029f3          	frrm	s3
    5b9e:	001008b7          	lui	a7,0x100
    5ba2:	18fd                	addi	a7,a7,-1
    5ba4:	00b8f733          	and	a4,a7,a1
    5ba8:	0145d413          	srli	s0,a1,0x14
    5bac:	01f5d493          	srli	s1,a1,0x1f
    5bb0:	0146d593          	srli	a1,a3,0x14
    5bb4:	00371793          	slli	a5,a4,0x3
    5bb8:	00d8f8b3          	and	a7,a7,a3
    5bbc:	01d55713          	srli	a4,a0,0x1d
    5bc0:	7ff47413          	andi	s0,s0,2047
    5bc4:	7ff5f593          	andi	a1,a1,2047
    5bc8:	8f5d                	or	a4,a4,a5
    5bca:	01f6d313          	srli	t1,a3,0x1f
    5bce:	00351793          	slli	a5,a0,0x3
    5bd2:	01d65693          	srli	a3,a2,0x1d
    5bd6:	088e                	slli	a7,a7,0x3
    5bd8:	40b40533          	sub	a0,s0,a1
    5bdc:	00361813          	slli	a6,a2,0x3
    5be0:	0116e6b3          	or	a3,a3,a7
    5be4:	862a                	mv	a2,a0
    5be6:	34649563          	bne	s1,t1,5f30 <__adddf3+0x3a4>
    5bea:	10a05a63          	blez	a0,5cfe <__adddf3+0x172>
    5bee:	04059463          	bnez	a1,5c36 <__adddf3+0xaa>
    5bf2:	0106e533          	or	a0,a3,a6
    5bf6:	e511                	bnez	a0,5c02 <__adddf3+0x76>
    5bf8:	7ff00693          	li	a3,2047
    5bfc:	2ad61c63          	bne	a2,a3,5eb4 <__adddf3+0x328>
    5c00:	a839                	j	5c1e <__adddf3+0x92>
    5c02:	fff60513          	addi	a0,a2,-1 # ffff <_global_impure_ptr+0x5a77>
    5c06:	e901                	bnez	a0,5c16 <__adddf3+0x8a>
    5c08:	983e                	add	a6,a6,a5
    5c0a:	96ba                	add	a3,a3,a4
    5c0c:	00f837b3          	sltu	a5,a6,a5
    5c10:	96be                	add	a3,a3,a5
    5c12:	4605                	li	a2,1
    5c14:	a059                	j	5c9a <__adddf3+0x10e>
    5c16:	7ff00893          	li	a7,2047
    5c1a:	05161163          	bne	a2,a7,5c5c <__adddf3+0xd0>
    5c1e:	00f766b3          	or	a3,a4,a5
    5c22:	70068063          	beqz	a3,6322 <__adddf3+0x796>
    5c26:	004006b7          	lui	a3,0x400
    5c2a:	8ef9                	and	a3,a3,a4
    5c2c:	4401                	li	s0,0
    5c2e:	20069263          	bnez	a3,5e32 <__adddf3+0x2a6>
    5c32:	45c1                	li	a1,16
    5c34:	aafd                	j	5e32 <__adddf3+0x2a6>
    5c36:	7ff00613          	li	a2,2047
    5c3a:	00c41e63          	bne	s0,a2,5c56 <__adddf3+0xca>
    5c3e:	00f766b3          	or	a3,a4,a5
    5c42:	6e068363          	beqz	a3,6328 <__adddf3+0x79c>
    5c46:	004006b7          	lui	a3,0x400
    5c4a:	8ef9                	and	a3,a3,a4
    5c4c:	12068563          	beqz	a3,5d76 <__adddf3+0x1ea>
    5c50:	7ff00613          	li	a2,2047
    5c54:	a485                	j	5eb4 <__adddf3+0x328>
    5c56:	00800637          	lui	a2,0x800
    5c5a:	8ed1                	or	a3,a3,a2
    5c5c:	03800613          	li	a2,56
    5c60:	08a64a63          	blt	a2,a0,5cf4 <__adddf3+0x168>
    5c64:	467d                	li	a2,31
    5c66:	06a64063          	blt	a2,a0,5cc6 <__adddf3+0x13a>
    5c6a:	02000613          	li	a2,32
    5c6e:	8e09                	sub	a2,a2,a0
    5c70:	00a858b3          	srl	a7,a6,a0
    5c74:	00c695b3          	sll	a1,a3,a2
    5c78:	00c81833          	sll	a6,a6,a2
    5c7c:	0115e5b3          	or	a1,a1,a7
    5c80:	01003833          	snez	a6,a6
    5c84:	0105e833          	or	a6,a1,a6
    5c88:	00a6d533          	srl	a0,a3,a0
    5c8c:	983e                	add	a6,a6,a5
    5c8e:	953a                	add	a0,a0,a4
    5c90:	00f837b3          	sltu	a5,a6,a5
    5c94:	00f506b3          	add	a3,a0,a5
    5c98:	8622                	mv	a2,s0
    5c9a:	008007b7          	lui	a5,0x800
    5c9e:	8ff5                	and	a5,a5,a3
    5ca0:	cbb5                	beqz	a5,5d14 <__adddf3+0x188>
    5ca2:	0605                	addi	a2,a2,1
    5ca4:	7ff00793          	li	a5,2047
    5ca8:	26f60363          	beq	a2,a5,5f0e <__adddf3+0x382>
    5cac:	ff800737          	lui	a4,0xff800
    5cb0:	177d                	addi	a4,a4,-1
    5cb2:	00185793          	srli	a5,a6,0x1
    5cb6:	8f75                	and	a4,a4,a3
    5cb8:	00187813          	andi	a6,a6,1
    5cbc:	0107e833          	or	a6,a5,a6
    5cc0:	01f71793          	slli	a5,a4,0x1f
    5cc4:	a2ed                	j	5eae <__adddf3+0x322>
    5cc6:	fe050593          	addi	a1,a0,-32
    5cca:	02000893          	li	a7,32
    5cce:	00b6d5b3          	srl	a1,a3,a1
    5cd2:	4601                	li	a2,0
    5cd4:	01150863          	beq	a0,a7,5ce4 <__adddf3+0x158>
    5cd8:	04000613          	li	a2,64
    5cdc:	40a60533          	sub	a0,a2,a0
    5ce0:	00a69633          	sll	a2,a3,a0
    5ce4:	01066833          	or	a6,a2,a6
    5ce8:	01003833          	snez	a6,a6
    5cec:	0105e833          	or	a6,a1,a6
    5cf0:	4501                	li	a0,0
    5cf2:	bf69                	j	5c8c <__adddf3+0x100>
    5cf4:	0106e833          	or	a6,a3,a6
    5cf8:	01003833          	snez	a6,a6
    5cfc:	bfd5                	j	5cf0 <__adddf3+0x164>
    5cfe:	c97d                	beqz	a0,5df4 <__adddf3+0x268>
    5d00:	40858633          	sub	a2,a1,s0
    5d04:	e821                	bnez	s0,5d54 <__adddf3+0x1c8>
    5d06:	00f76533          	or	a0,a4,a5
    5d0a:	e911                	bnez	a0,5d1e <__adddf3+0x192>
    5d0c:	7ff00793          	li	a5,2047
    5d10:	02f60663          	beq	a2,a5,5d3c <__adddf3+0x1b0>
    5d14:	8736                	mv	a4,a3
    5d16:	87c2                	mv	a5,a6
    5d18:	40060563          	beqz	a2,6122 <__adddf3+0x596>
    5d1c:	aa61                	j	5eb4 <__adddf3+0x328>
    5d1e:	fff60893          	addi	a7,a2,-1 # 7fffff <_global_impure_ptr+0x7f5a77>
    5d22:	00089963          	bnez	a7,5d34 <__adddf3+0x1a8>
    5d26:	97c2                	add	a5,a5,a6
    5d28:	0107b833          	sltu	a6,a5,a6
    5d2c:	96ba                	add	a3,a3,a4
    5d2e:	96c2                	add	a3,a3,a6
    5d30:	883e                	mv	a6,a5
    5d32:	b5c5                	j	5c12 <__adddf3+0x86>
    5d34:	7ff00513          	li	a0,2047
    5d38:	04a61563          	bne	a2,a0,5d82 <__adddf3+0x1f6>
    5d3c:	0106e7b3          	or	a5,a3,a6
    5d40:	5e078763          	beqz	a5,632e <__adddf3+0x7a2>
    5d44:	004007b7          	lui	a5,0x400
    5d48:	8ff5                	and	a5,a5,a3
    5d4a:	8736                	mv	a4,a3
    5d4c:	5e079363          	bnez	a5,6332 <__adddf3+0x7a6>
    5d50:	87c2                	mv	a5,a6
    5d52:	b5c5                	j	5c32 <__adddf3+0xa6>
    5d54:	7ff00513          	li	a0,2047
    5d58:	02a59163          	bne	a1,a0,5d7a <__adddf3+0x1ee>
    5d5c:	0106e7b3          	or	a5,a3,a6
    5d60:	5a078463          	beqz	a5,6308 <__adddf3+0x77c>
    5d64:	004007b7          	lui	a5,0x400
    5d68:	8ff5                	and	a5,a5,a3
    5d6a:	8736                	mv	a4,a3
    5d6c:	5a079363          	bnez	a5,6312 <__adddf3+0x786>
    5d70:	87c2                	mv	a5,a6
    5d72:	7ff00613          	li	a2,2047
    5d76:	4401                	li	s0,0
    5d78:	bd6d                	j	5c32 <__adddf3+0xa6>
    5d7a:	00800537          	lui	a0,0x800
    5d7e:	8f49                	or	a4,a4,a0
    5d80:	88b2                	mv	a7,a2
    5d82:	03800613          	li	a2,56
    5d86:	07164363          	blt	a2,a7,5dec <__adddf3+0x260>
    5d8a:	467d                	li	a2,31
    5d8c:	03164b63          	blt	a2,a7,5dc2 <__adddf3+0x236>
    5d90:	02000513          	li	a0,32
    5d94:	41150533          	sub	a0,a0,a7
    5d98:	00a71633          	sll	a2,a4,a0
    5d9c:	0117d333          	srl	t1,a5,a7
    5da0:	00a797b3          	sll	a5,a5,a0
    5da4:	00666633          	or	a2,a2,t1
    5da8:	00f037b3          	snez	a5,a5
    5dac:	8fd1                	or	a5,a5,a2
    5dae:	01175733          	srl	a4,a4,a7
    5db2:	97c2                	add	a5,a5,a6
    5db4:	9736                	add	a4,a4,a3
    5db6:	0107b6b3          	sltu	a3,a5,a6
    5dba:	96ba                	add	a3,a3,a4
    5dbc:	883e                	mv	a6,a5
    5dbe:	862e                	mv	a2,a1
    5dc0:	bde9                	j	5c9a <__adddf3+0x10e>
    5dc2:	fe088613          	addi	a2,a7,-32 # fffe0 <_global_impure_ptr+0xf5a58>
    5dc6:	02000313          	li	t1,32
    5dca:	00c75633          	srl	a2,a4,a2
    5dce:	4501                	li	a0,0
    5dd0:	00688863          	beq	a7,t1,5de0 <__adddf3+0x254>
    5dd4:	04000513          	li	a0,64
    5dd8:	41150533          	sub	a0,a0,a7
    5ddc:	00a71533          	sll	a0,a4,a0
    5de0:	8fc9                	or	a5,a5,a0
    5de2:	00f037b3          	snez	a5,a5
    5de6:	8fd1                	or	a5,a5,a2
    5de8:	4701                	li	a4,0
    5dea:	b7e1                	j	5db2 <__adddf3+0x226>
    5dec:	8fd9                	or	a5,a5,a4
    5dee:	00f037b3          	snez	a5,a5
    5df2:	bfdd                	j	5de8 <__adddf3+0x25c>
    5df4:	00140613          	addi	a2,s0,1
    5df8:	7fe67513          	andi	a0,a2,2046
    5dfc:	ed41                	bnez	a0,5e94 <__adddf3+0x308>
    5dfe:	00f76533          	or	a0,a4,a5
    5e02:	e421                	bnez	s0,5e4a <__adddf3+0x2be>
    5e04:	4c050563          	beqz	a0,62ce <__adddf3+0x742>
    5e08:	0106e633          	or	a2,a3,a6
    5e0c:	30060b63          	beqz	a2,6122 <__adddf3+0x596>
    5e10:	983e                	add	a6,a6,a5
    5e12:	00f837b3          	sltu	a5,a6,a5
    5e16:	9736                	add	a4,a4,a3
    5e18:	973e                	add	a4,a4,a5
    5e1a:	008007b7          	lui	a5,0x800
    5e1e:	8ff9                	and	a5,a5,a4
    5e20:	4a078863          	beqz	a5,62d0 <__adddf3+0x744>
    5e24:	ff8007b7          	lui	a5,0xff800
    5e28:	17fd                	addi	a5,a5,-1
    5e2a:	8f7d                	and	a4,a4,a5
    5e2c:	4581                	li	a1,0
    5e2e:	87c2                	mv	a5,a6
    5e30:	4605                	li	a2,1
    5e32:	0077f693          	andi	a3,a5,7
    5e36:	e6d5                	bnez	a3,5ee2 <__adddf3+0x356>
    5e38:	58040363          	beqz	s0,63be <__adddf3+0x832>
    5e3c:	0015f693          	andi	a3,a1,1
    5e40:	56068f63          	beqz	a3,63be <__adddf3+0x832>
    5e44:	0025e593          	ori	a1,a1,2
    5e48:	ab9d                	j	63be <__adddf3+0x832>
    5e4a:	7ff00613          	li	a2,2047
    5e4e:	02c41d63          	bne	s0,a2,5e88 <__adddf3+0x2fc>
    5e52:	5e050563          	beqz	a0,643c <__adddf3+0x8b0>
    5e56:	00400637          	lui	a2,0x400
    5e5a:	8e79                	and	a2,a2,a4
    5e5c:	00163613          	seqz	a2,a2
    5e60:	0612                	slli	a2,a2,0x4
    5e62:	54859363          	bne	a1,s0,63a8 <__adddf3+0x81c>
    5e66:	85b2                	mv	a1,a2
    5e68:	0106e633          	or	a2,a3,a6
    5e6c:	c611                	beqz	a2,5e78 <__adddf3+0x2ec>
    5e6e:	00400637          	lui	a2,0x400
    5e72:	8e75                	and	a2,a2,a3
    5e74:	e211                	bnez	a2,5e78 <__adddf3+0x2ec>
    5e76:	45c1                	li	a1,16
    5e78:	52051963          	bnez	a0,63aa <__adddf3+0x81e>
    5e7c:	8736                	mv	a4,a3
    5e7e:	87c2                	mv	a5,a6
    5e80:	4401                	li	s0,0
    5e82:	7ff00613          	li	a2,2047
    5e86:	b775                	j	5e32 <__adddf3+0x2a6>
    5e88:	00c59463          	bne	a1,a2,5e90 <__adddf3+0x304>
    5e8c:	4581                	li	a1,0
    5e8e:	bfe9                	j	5e68 <__adddf3+0x2dc>
    5e90:	4581                	li	a1,0
    5e92:	b7dd                	j	5e78 <__adddf3+0x2ec>
    5e94:	7ff00593          	li	a1,2047
    5e98:	02b60063          	beq	a2,a1,5eb8 <__adddf3+0x32c>
    5e9c:	983e                	add	a6,a6,a5
    5e9e:	00f837b3          	sltu	a5,a6,a5
    5ea2:	9736                	add	a4,a4,a3
    5ea4:	973e                	add	a4,a4,a5
    5ea6:	01f71793          	slli	a5,a4,0x1f
    5eaa:	00185813          	srli	a6,a6,0x1
    5eae:	0107e7b3          	or	a5,a5,a6
    5eb2:	8305                	srli	a4,a4,0x1
    5eb4:	4401                	li	s0,0
    5eb6:	a9bd                	j	6334 <__adddf3+0x7a8>
    5eb8:	00098763          	beqz	s3,5ec6 <__adddf3+0x33a>
    5ebc:	478d                	li	a5,3
    5ebe:	00f99763          	bne	s3,a5,5ecc <__adddf3+0x340>
    5ec2:	00049a63          	bnez	s1,5ed6 <__adddf3+0x34a>
    5ec6:	7ff00613          	li	a2,2047
    5eca:	a889                	j	5f1c <__adddf3+0x390>
    5ecc:	4789                	li	a5,2
    5ece:	00f99463          	bne	s3,a5,5ed6 <__adddf3+0x34a>
    5ed2:	fe049ae3          	bnez	s1,5ec6 <__adddf3+0x33a>
    5ed6:	4401                	li	s0,0
    5ed8:	577d                	li	a4,-1
    5eda:	57fd                	li	a5,-1
    5edc:	7fe00613          	li	a2,2046
    5ee0:	4595                	li	a1,5
    5ee2:	4689                	li	a3,2
    5ee4:	0015e593          	ori	a1,a1,1
    5ee8:	48d98763          	beq	s3,a3,6376 <__adddf3+0x7ea>
    5eec:	468d                	li	a3,3
    5eee:	48d98063          	beq	s3,a3,636e <__adddf3+0x7e2>
    5ef2:	48099363          	bnez	s3,6378 <__adddf3+0x7ec>
    5ef6:	00f7f693          	andi	a3,a5,15
    5efa:	4511                	li	a0,4
    5efc:	46a68e63          	beq	a3,a0,6378 <__adddf3+0x7ec>
    5f00:	00478693          	addi	a3,a5,4 # ff800004 <__kernel_stack+0xdf74000c>
    5f04:	00f6b7b3          	sltu	a5,a3,a5
    5f08:	973e                	add	a4,a4,a5
    5f0a:	87b6                	mv	a5,a3
    5f0c:	a1b5                	j	6378 <__adddf3+0x7ec>
    5f0e:	00098763          	beqz	s3,5f1c <__adddf3+0x390>
    5f12:	478d                	li	a5,3
    5f14:	00f99863          	bne	s3,a5,5f24 <__adddf3+0x398>
    5f18:	3e049f63          	bnez	s1,6316 <__adddf3+0x78a>
    5f1c:	4701                	li	a4,0
    5f1e:	4781                	li	a5,0
    5f20:	4595                	li	a1,5
    5f22:	a971                	j	63be <__adddf3+0x832>
    5f24:	4789                	li	a5,2
    5f26:	3ef99863          	bne	s3,a5,6316 <__adddf3+0x78a>
    5f2a:	fe0499e3          	bnez	s1,5f1c <__adddf3+0x390>
    5f2e:	b765                	j	5ed6 <__adddf3+0x34a>
    5f30:	0ca05763          	blez	a0,5ffe <__adddf3+0x472>
    5f34:	08059263          	bnez	a1,5fb8 <__adddf3+0x42c>
    5f38:	0106e533          	or	a0,a3,a6
    5f3c:	ca050ee3          	beqz	a0,5bf8 <__adddf3+0x6c>
    5f40:	fff60513          	addi	a0,a2,-1 # 3fffff <_global_impure_ptr+0x3f5a77>
    5f44:	e911                	bnez	a0,5f58 <__adddf3+0x3cc>
    5f46:	41078833          	sub	a6,a5,a6
    5f4a:	40d706b3          	sub	a3,a4,a3
    5f4e:	0107b7b3          	sltu	a5,a5,a6
    5f52:	8e9d                	sub	a3,a3,a5
    5f54:	4605                	li	a2,1
    5f56:	a0a9                	j	5fa0 <__adddf3+0x414>
    5f58:	7ff00893          	li	a7,2047
    5f5c:	cd1601e3          	beq	a2,a7,5c1e <__adddf3+0x92>
    5f60:	03800613          	li	a2,56
    5f64:	08a64863          	blt	a2,a0,5ff4 <__adddf3+0x468>
    5f68:	467d                	li	a2,31
    5f6a:	04a64f63          	blt	a2,a0,5fc8 <__adddf3+0x43c>
    5f6e:	02000613          	li	a2,32
    5f72:	8e09                	sub	a2,a2,a0
    5f74:	00c695b3          	sll	a1,a3,a2
    5f78:	00a858b3          	srl	a7,a6,a0
    5f7c:	00c81833          	sll	a6,a6,a2
    5f80:	0115e5b3          	or	a1,a1,a7
    5f84:	01003833          	snez	a6,a6
    5f88:	0105e833          	or	a6,a1,a6
    5f8c:	00a6d6b3          	srl	a3,a3,a0
    5f90:	41078833          	sub	a6,a5,a6
    5f94:	40d706b3          	sub	a3,a4,a3
    5f98:	0107b7b3          	sltu	a5,a5,a6
    5f9c:	8e9d                	sub	a3,a3,a5
    5f9e:	8622                	mv	a2,s0
    5fa0:	00800937          	lui	s2,0x800
    5fa4:	0126f7b3          	and	a5,a3,s2
    5fa8:	d60786e3          	beqz	a5,5d14 <__adddf3+0x188>
    5fac:	197d                	addi	s2,s2,-1
    5fae:	0126f933          	and	s2,a3,s2
    5fb2:	8a42                	mv	s4,a6
    5fb4:	8432                	mv	s0,a2
    5fb6:	a4b5                	j	6222 <__adddf3+0x696>
    5fb8:	7ff00613          	li	a2,2047
    5fbc:	c8c401e3          	beq	s0,a2,5c3e <__adddf3+0xb2>
    5fc0:	00800637          	lui	a2,0x800
    5fc4:	8ed1                	or	a3,a3,a2
    5fc6:	bf69                	j	5f60 <__adddf3+0x3d4>
    5fc8:	fe050593          	addi	a1,a0,-32 # 7fffe0 <_global_impure_ptr+0x7f5a58>
    5fcc:	02000893          	li	a7,32
    5fd0:	00b6d5b3          	srl	a1,a3,a1
    5fd4:	4601                	li	a2,0
    5fd6:	01150763          	beq	a0,a7,5fe4 <__adddf3+0x458>
    5fda:	04000613          	li	a2,64
    5fde:	8e09                	sub	a2,a2,a0
    5fe0:	00c69633          	sll	a2,a3,a2
    5fe4:	01066833          	or	a6,a2,a6
    5fe8:	01003833          	snez	a6,a6
    5fec:	0105e833          	or	a6,a1,a6
    5ff0:	4681                	li	a3,0
    5ff2:	bf79                	j	5f90 <__adddf3+0x404>
    5ff4:	0106e833          	or	a6,a3,a6
    5ff8:	01003833          	snez	a6,a6
    5ffc:	bfd5                	j	5ff0 <__adddf3+0x464>
    5ffe:	cd75                	beqz	a0,60fa <__adddf3+0x56e>
    6000:	40858633          	sub	a2,a1,s0
    6004:	e439                	bnez	s0,6052 <__adddf3+0x4c6>
    6006:	00f76533          	or	a0,a4,a5
    600a:	e509                	bnez	a0,6014 <__adddf3+0x488>
    600c:	7ff00793          	li	a5,2047
    6010:	849a                	mv	s1,t1
    6012:	b9fd                	j	5d10 <__adddf3+0x184>
    6014:	fff60893          	addi	a7,a2,-1 # 7fffff <_global_impure_ptr+0x7f5a77>
    6018:	00089c63          	bnez	a7,6030 <__adddf3+0x4a4>
    601c:	40f807b3          	sub	a5,a6,a5
    6020:	00f83833          	sltu	a6,a6,a5
    6024:	8e99                	sub	a3,a3,a4
    6026:	410686b3          	sub	a3,a3,a6
    602a:	849a                	mv	s1,t1
    602c:	883e                	mv	a6,a5
    602e:	b71d                	j	5f54 <__adddf3+0x3c8>
    6030:	7ff00513          	li	a0,2047
    6034:	04a61663          	bne	a2,a0,6080 <__adddf3+0x4f4>
    6038:	0106e7b3          	or	a5,a3,a6
    603c:	2e078e63          	beqz	a5,6338 <__adddf3+0x7ac>
    6040:	004007b7          	lui	a5,0x400
    6044:	8ff5                	and	a5,a5,a3
    6046:	8736                	mv	a4,a3
    6048:	2e079b63          	bnez	a5,633e <__adddf3+0x7b2>
    604c:	87c2                	mv	a5,a6
    604e:	849a                	mv	s1,t1
    6050:	b6cd                	j	5c32 <__adddf3+0xa6>
    6052:	7ff00513          	li	a0,2047
    6056:	02a59163          	bne	a1,a0,6078 <__adddf3+0x4ec>
    605a:	0106e7b3          	or	a5,a3,a6
    605e:	2e078363          	beqz	a5,6344 <__adddf3+0x7b8>
    6062:	004007b7          	lui	a5,0x400
    6066:	8ff5                	and	a5,a5,a3
    6068:	8736                	mv	a4,a3
    606a:	2e079163          	bnez	a5,634c <__adddf3+0x7c0>
    606e:	87c2                	mv	a5,a6
    6070:	7ff00613          	li	a2,2047
    6074:	849a                	mv	s1,t1
    6076:	b301                	j	5d76 <__adddf3+0x1ea>
    6078:	00800537          	lui	a0,0x800
    607c:	8f49                	or	a4,a4,a0
    607e:	88b2                	mv	a7,a2
    6080:	03800613          	li	a2,56
    6084:	07164763          	blt	a2,a7,60f2 <__adddf3+0x566>
    6088:	467d                	li	a2,31
    608a:	03164f63          	blt	a2,a7,60c8 <__adddf3+0x53c>
    608e:	02000513          	li	a0,32
    6092:	41150533          	sub	a0,a0,a7
    6096:	00a71633          	sll	a2,a4,a0
    609a:	0117de33          	srl	t3,a5,a7
    609e:	00a797b3          	sll	a5,a5,a0
    60a2:	01c66633          	or	a2,a2,t3
    60a6:	00f037b3          	snez	a5,a5
    60aa:	8fd1                	or	a5,a5,a2
    60ac:	01175733          	srl	a4,a4,a7
    60b0:	40f807b3          	sub	a5,a6,a5
    60b4:	40e68733          	sub	a4,a3,a4
    60b8:	00f836b3          	sltu	a3,a6,a5
    60bc:	40d706b3          	sub	a3,a4,a3
    60c0:	883e                	mv	a6,a5
    60c2:	862e                	mv	a2,a1
    60c4:	849a                	mv	s1,t1
    60c6:	bde9                	j	5fa0 <__adddf3+0x414>
    60c8:	fe088613          	addi	a2,a7,-32
    60cc:	02000e13          	li	t3,32
    60d0:	00c75633          	srl	a2,a4,a2
    60d4:	4501                	li	a0,0
    60d6:	01c88863          	beq	a7,t3,60e6 <__adddf3+0x55a>
    60da:	04000513          	li	a0,64
    60de:	41150533          	sub	a0,a0,a7
    60e2:	00a71533          	sll	a0,a4,a0
    60e6:	8fc9                	or	a5,a5,a0
    60e8:	00f037b3          	snez	a5,a5
    60ec:	8fd1                	or	a5,a5,a2
    60ee:	4701                	li	a4,0
    60f0:	b7c1                	j	60b0 <__adddf3+0x524>
    60f2:	8fd9                	or	a5,a5,a4
    60f4:	00f037b3          	snez	a5,a5
    60f8:	bfdd                	j	60ee <__adddf3+0x562>
    60fa:	00140613          	addi	a2,s0,1
    60fe:	7fe67613          	andi	a2,a2,2046
    6102:	ea7d                	bnez	a2,61f8 <__adddf3+0x66c>
    6104:	00f768b3          	or	a7,a4,a5
    6108:	0106e533          	or	a0,a3,a6
    610c:	e05d                	bnez	s0,61b2 <__adddf3+0x626>
    610e:	06089263          	bnez	a7,6172 <__adddf3+0x5e6>
    6112:	1c051163          	bnez	a0,62d4 <__adddf3+0x748>
    6116:	ffe98493          	addi	s1,s3,-2
    611a:	0014b493          	seqz	s1,s1
    611e:	4701                	li	a4,0
    6120:	4781                	li	a5,0
    6122:	00e7e6b3          	or	a3,a5,a4
    6126:	24068063          	beqz	a3,6366 <__adddf3+0x7da>
    612a:	01f7d693          	srli	a3,a5,0x1f
    612e:	00171413          	slli	s0,a4,0x1
    6132:	9436                	add	s0,s0,a3
    6134:	00179693          	slli	a3,a5,0x1
    6138:	0076f613          	andi	a2,a3,7
    613c:	4581                	li	a1,0
    613e:	c605                	beqz	a2,6166 <__adddf3+0x5da>
    6140:	4609                	li	a2,2
    6142:	1ac98963          	beq	s3,a2,62f4 <__adddf3+0x768>
    6146:	460d                	li	a2,3
    6148:	18c98c63          	beq	s3,a2,62e0 <__adddf3+0x754>
    614c:	4585                	li	a1,1
    614e:	00099c63          	bnez	s3,6166 <__adddf3+0x5da>
    6152:	00f6f613          	andi	a2,a3,15
    6156:	4511                	li	a0,4
    6158:	00a60763          	beq	a2,a0,6166 <__adddf3+0x5da>
    615c:	ffc6b693          	sltiu	a3,a3,-4
    6160:	0016c693          	xori	a3,a3,1
    6164:	9436                	add	s0,s0,a3
    6166:	8061                	srli	s0,s0,0x18
    6168:	00144413          	xori	s0,s0,1
    616c:	8805                	andi	s0,s0,1
    616e:	4601                	li	a2,0
    6170:	b1c9                	j	5e32 <__adddf3+0x2a6>
    6172:	d945                	beqz	a0,6122 <__adddf3+0x596>
    6174:	410785b3          	sub	a1,a5,a6
    6178:	00b7b533          	sltu	a0,a5,a1
    617c:	40d70633          	sub	a2,a4,a3
    6180:	8e09                	sub	a2,a2,a0
    6182:	00800537          	lui	a0,0x800
    6186:	8d71                	and	a0,a0,a2
    6188:	c919                	beqz	a0,619e <__adddf3+0x612>
    618a:	40f807b3          	sub	a5,a6,a5
    618e:	40e68733          	sub	a4,a3,a4
    6192:	00f83833          	sltu	a6,a6,a5
    6196:	41070733          	sub	a4,a4,a6
    619a:	849a                	mv	s1,t1
    619c:	b759                	j	6122 <__adddf3+0x596>
    619e:	00c5e7b3          	or	a5,a1,a2
    61a2:	12079c63          	bnez	a5,62da <__adddf3+0x74e>
    61a6:	ffe98493          	addi	s1,s3,-2
    61aa:	0014b493          	seqz	s1,s1
    61ae:	4701                	li	a4,0
    61b0:	bf8d                	j	6122 <__adddf3+0x596>
    61b2:	7ff00613          	li	a2,2047
    61b6:	00c41e63          	bne	s0,a2,61d2 <__adddf3+0x646>
    61ba:	26088963          	beqz	a7,642c <__adddf3+0x8a0>
    61be:	00400637          	lui	a2,0x400
    61c2:	8e79                	and	a2,a2,a4
    61c4:	00163613          	seqz	a2,a2
    61c8:	0612                	slli	a2,a2,0x4
    61ca:	26859563          	bne	a1,s0,6434 <__adddf3+0x8a8>
    61ce:	85b2                	mv	a1,a2
    61d0:	a021                	j	61d8 <__adddf3+0x64c>
    61d2:	02c59163          	bne	a1,a2,61f4 <__adddf3+0x668>
    61d6:	4581                	li	a1,0
    61d8:	c511                	beqz	a0,61e4 <__adddf3+0x658>
    61da:	00400637          	lui	a2,0x400
    61de:	8e75                	and	a2,a2,a3
    61e0:	e211                	bnez	a2,61e4 <__adddf3+0x658>
    61e2:	45c1                	li	a1,16
    61e4:	24089963          	bnez	a7,6436 <__adddf3+0x8aa>
    61e8:	16050763          	beqz	a0,6356 <__adddf3+0x7ca>
    61ec:	8736                	mv	a4,a3
    61ee:	87c2                	mv	a5,a6
    61f0:	849a                	mv	s1,t1
    61f2:	b179                	j	5e80 <__adddf3+0x2f4>
    61f4:	4581                	li	a1,0
    61f6:	b7fd                	j	61e4 <__adddf3+0x658>
    61f8:	41078a33          	sub	s4,a5,a6
    61fc:	0147b633          	sltu	a2,a5,s4
    6200:	40d70933          	sub	s2,a4,a3
    6204:	40c90933          	sub	s2,s2,a2
    6208:	00800637          	lui	a2,0x800
    620c:	00c97633          	and	a2,s2,a2
    6210:	c62d                	beqz	a2,627a <__adddf3+0x6ee>
    6212:	40f80a33          	sub	s4,a6,a5
    6216:	8e99                	sub	a3,a3,a4
    6218:	01483833          	sltu	a6,a6,s4
    621c:	41068933          	sub	s2,a3,a6
    6220:	849a                	mv	s1,t1
    6222:	06090063          	beqz	s2,6282 <__adddf3+0x6f6>
    6226:	854a                	mv	a0,s2
    6228:	337010ef          	jal	ra,7d5e <__clzsi2>
    622c:	ff850613          	addi	a2,a0,-8 # 7ffff8 <_global_impure_ptr+0x7f5a70>
    6230:	47fd                	li	a5,31
    6232:	04c7ce63          	blt	a5,a2,628e <__adddf3+0x702>
    6236:	02000693          	li	a3,32
    623a:	8e91                	sub	a3,a3,a2
    623c:	00c91733          	sll	a4,s2,a2
    6240:	00da56b3          	srl	a3,s4,a3
    6244:	8ed9                	or	a3,a3,a4
    6246:	00ca1833          	sll	a6,s4,a2
    624a:	06864b63          	blt	a2,s0,62c0 <__adddf3+0x734>
    624e:	8e01                	sub	a2,a2,s0
    6250:	00160713          	addi	a4,a2,1 # 800001 <_global_impure_ptr+0x7f5a79>
    6254:	47fd                	li	a5,31
    6256:	04e7c263          	blt	a5,a4,629a <__adddf3+0x70e>
    625a:	02000613          	li	a2,32
    625e:	8e19                	sub	a2,a2,a4
    6260:	00c697b3          	sll	a5,a3,a2
    6264:	00e85533          	srl	a0,a6,a4
    6268:	00c81633          	sll	a2,a6,a2
    626c:	8fc9                	or	a5,a5,a0
    626e:	00c03633          	snez	a2,a2
    6272:	8fd1                	or	a5,a5,a2
    6274:	00e6d733          	srl	a4,a3,a4
    6278:	b56d                	j	6122 <__adddf3+0x596>
    627a:	012a67b3          	or	a5,s4,s2
    627e:	f3d5                	bnez	a5,6222 <__adddf3+0x696>
    6280:	b71d                	j	61a6 <__adddf3+0x61a>
    6282:	8552                	mv	a0,s4
    6284:	2db010ef          	jal	ra,7d5e <__clzsi2>
    6288:	02050513          	addi	a0,a0,32
    628c:	b745                	j	622c <__adddf3+0x6a0>
    628e:	fd850693          	addi	a3,a0,-40
    6292:	00da16b3          	sll	a3,s4,a3
    6296:	4801                	li	a6,0
    6298:	bf4d                	j	624a <__adddf3+0x6be>
    629a:	1605                	addi	a2,a2,-31
    629c:	02000593          	li	a1,32
    62a0:	00c6d633          	srl	a2,a3,a2
    62a4:	4781                	li	a5,0
    62a6:	00b70763          	beq	a4,a1,62b4 <__adddf3+0x728>
    62aa:	04000793          	li	a5,64
    62ae:	8f99                	sub	a5,a5,a4
    62b0:	00f697b3          	sll	a5,a3,a5
    62b4:	00f867b3          	or	a5,a6,a5
    62b8:	00f037b3          	snez	a5,a5
    62bc:	8fd1                	or	a5,a5,a2
    62be:	bdc5                	j	61ae <__adddf3+0x622>
    62c0:	ff8007b7          	lui	a5,0xff800
    62c4:	17fd                	addi	a5,a5,-1
    62c6:	40c40633          	sub	a2,s0,a2
    62ca:	8efd                	and	a3,a3,a5
    62cc:	b4a1                	j	5d14 <__adddf3+0x188>
    62ce:	8736                	mv	a4,a3
    62d0:	87c2                	mv	a5,a6
    62d2:	bd81                	j	6122 <__adddf3+0x596>
    62d4:	8736                	mv	a4,a3
    62d6:	87c2                	mv	a5,a6
    62d8:	b5c9                	j	619a <__adddf3+0x60e>
    62da:	8732                	mv	a4,a2
    62dc:	87ae                	mv	a5,a1
    62de:	b591                	j	6122 <__adddf3+0x596>
    62e0:	85a6                	mv	a1,s1
    62e2:	e80492e3          	bnez	s1,6166 <__adddf3+0x5da>
    62e6:	ff86b693          	sltiu	a3,a3,-8
    62ea:	0016c693          	xori	a3,a3,1
    62ee:	9436                	add	s0,s0,a3
    62f0:	4585                	li	a1,1
    62f2:	bd95                	j	6166 <__adddf3+0x5da>
    62f4:	4585                	li	a1,1
    62f6:	e60488e3          	beqz	s1,6166 <__adddf3+0x5da>
    62fa:	ff86b693          	sltiu	a3,a3,-8
    62fe:	0016c693          	xori	a3,a3,1
    6302:	9436                	add	s0,s0,a3
    6304:	85a6                	mv	a1,s1
    6306:	b585                	j	6166 <__adddf3+0x5da>
    6308:	4701                	li	a4,0
    630a:	7ff00613          	li	a2,2047
    630e:	4581                	li	a1,0
    6310:	a07d                	j	63be <__adddf3+0x832>
    6312:	87c2                	mv	a5,a6
    6314:	ba35                	j	5c50 <__adddf3+0xc4>
    6316:	577d                	li	a4,-1
    6318:	57fd                	li	a5,-1
    631a:	7fe00613          	li	a2,2046
    631e:	4401                	li	s0,0
    6320:	b6c1                	j	5ee0 <__adddf3+0x354>
    6322:	4701                	li	a4,0
    6324:	4781                	li	a5,0
    6326:	a861                	j	63be <__adddf3+0x832>
    6328:	4701                	li	a4,0
    632a:	4781                	li	a5,0
    632c:	bff9                	j	630a <__adddf3+0x77e>
    632e:	4701                	li	a4,0
    6330:	bff9                	j	630e <__adddf3+0x782>
    6332:	87c2                	mv	a5,a6
    6334:	4581                	li	a1,0
    6336:	bcf5                	j	5e32 <__adddf3+0x2a6>
    6338:	4701                	li	a4,0
    633a:	849a                	mv	s1,t1
    633c:	bfc9                	j	630e <__adddf3+0x782>
    633e:	87c2                	mv	a5,a6
    6340:	849a                	mv	s1,t1
    6342:	bfcd                	j	6334 <__adddf3+0x7a8>
    6344:	4701                	li	a4,0
    6346:	7ff00613          	li	a2,2047
    634a:	bfc5                	j	633a <__adddf3+0x7ae>
    634c:	87c2                	mv	a5,a6
    634e:	7ff00613          	li	a2,2047
    6352:	849a                	mv	s1,t1
    6354:	b685                	j	5eb4 <__adddf3+0x328>
    6356:	4781                	li	a5,0
    6358:	4481                	li	s1,0
    635a:	00400737          	lui	a4,0x400
    635e:	7ff00613          	li	a2,2047
    6362:	45c1                	li	a1,16
    6364:	a8a9                	j	63be <__adddf3+0x832>
    6366:	4701                	li	a4,0
    6368:	4781                	li	a5,0
    636a:	4601                	li	a2,0
    636c:	b74d                	j	630e <__adddf3+0x782>
    636e:	e489                	bnez	s1,6378 <__adddf3+0x7ec>
    6370:	00878693          	addi	a3,a5,8 # ff800008 <__kernel_stack+0xdf740010>
    6374:	be41                	j	5f04 <__adddf3+0x378>
    6376:	fced                	bnez	s1,6370 <__adddf3+0x7e4>
    6378:	ac0416e3          	bnez	s0,5e44 <__adddf3+0x2b8>
    637c:	a089                	j	63be <__adddf3+0x832>
    637e:	4781                	li	a5,0
    6380:	02098063          	beqz	s3,63a0 <__adddf3+0x814>
    6384:	470d                	li	a4,3
    6386:	00e99863          	bne	s3,a4,6396 <__adddf3+0x80a>
    638a:	00048b63          	beqz	s1,63a0 <__adddf3+0x814>
    638e:	57fd                	li	a5,-1
    6390:	7fe00613          	li	a2,2046
    6394:	a031                	j	63a0 <__adddf3+0x814>
    6396:	4709                	li	a4,2
    6398:	fee99be3          	bne	s3,a4,638e <__adddf3+0x802>
    639c:	fe0489e3          	beqz	s1,638e <__adddf3+0x802>
    63a0:	0055e593          	ori	a1,a1,5
    63a4:	873e                	mv	a4,a5
    63a6:	a80d                	j	63d8 <__adddf3+0x84c>
    63a8:	85b2                	mv	a1,a2
    63aa:	0106e6b3          	or	a3,a3,a6
    63ae:	ac0689e3          	beqz	a3,5e80 <__adddf3+0x2f4>
    63b2:	4481                	li	s1,0
    63b4:	00400737          	lui	a4,0x400
    63b8:	4781                	li	a5,0
    63ba:	7ff00613          	li	a2,2047
    63be:	008006b7          	lui	a3,0x800
    63c2:	8ef9                	and	a3,a3,a4
    63c4:	ca91                	beqz	a3,63d8 <__adddf3+0x84c>
    63c6:	0605                	addi	a2,a2,1
    63c8:	7ff00693          	li	a3,2047
    63cc:	fad609e3          	beq	a2,a3,637e <__adddf3+0x7f2>
    63d0:	ff8006b7          	lui	a3,0xff800
    63d4:	16fd                	addi	a3,a3,-1
    63d6:	8f75                	and	a4,a4,a3
    63d8:	0037d513          	srli	a0,a5,0x3
    63dc:	7ff00693          	li	a3,2047
    63e0:	01d71793          	slli	a5,a4,0x1d
    63e4:	8fc9                	or	a5,a5,a0
    63e6:	830d                	srli	a4,a4,0x3
    63e8:	00d61963          	bne	a2,a3,63fa <__adddf3+0x86e>
    63ec:	8fd9                	or	a5,a5,a4
    63ee:	4701                	li	a4,0
    63f0:	c789                	beqz	a5,63fa <__adddf3+0x86e>
    63f2:	00080737          	lui	a4,0x80
    63f6:	4781                	li	a5,0
    63f8:	4481                	li	s1,0
    63fa:	7ff006b7          	lui	a3,0x7ff00
    63fe:	0652                	slli	a2,a2,0x14
    6400:	0732                	slli	a4,a4,0xc
    6402:	8e75                	and	a2,a2,a3
    6404:	8331                	srli	a4,a4,0xc
    6406:	8f51                	or	a4,a4,a2
    6408:	04fe                	slli	s1,s1,0x1f
    640a:	009766b3          	or	a3,a4,s1
    640e:	873e                	mv	a4,a5
    6410:	87b6                	mv	a5,a3
    6412:	c199                	beqz	a1,6418 <__adddf3+0x88c>
    6414:	0015a073          	csrs	fflags,a1
    6418:	40f2                	lw	ra,28(sp)
    641a:	4462                	lw	s0,24(sp)
    641c:	44d2                	lw	s1,20(sp)
    641e:	4942                	lw	s2,16(sp)
    6420:	49b2                	lw	s3,12(sp)
    6422:	4a22                	lw	s4,8(sp)
    6424:	853a                	mv	a0,a4
    6426:	85be                	mv	a1,a5
    6428:	6105                	addi	sp,sp,32
    642a:	8082                	ret
    642c:	da8585e3          	beq	a1,s0,61d6 <__adddf3+0x64a>
    6430:	4581                	li	a1,0
    6432:	bb5d                	j	61e8 <__adddf3+0x65c>
    6434:	85b2                	mv	a1,a2
    6436:	a40505e3          	beqz	a0,5e80 <__adddf3+0x2f4>
    643a:	bfa5                	j	63b2 <__adddf3+0x826>
    643c:	a48588e3          	beq	a1,s0,5e8c <__adddf3+0x300>
    6440:	4581                	li	a1,0
    6442:	bc2d                	j	5e7c <__adddf3+0x2f0>

00006444 <__divdf3>:
    6444:	7179                	addi	sp,sp,-48
    6446:	d422                	sw	s0,40(sp)
    6448:	ca56                	sw	s5,20(sp)
    644a:	c266                	sw	s9,4(sp)
    644c:	d606                	sw	ra,44(sp)
    644e:	d226                	sw	s1,36(sp)
    6450:	d04a                	sw	s2,32(sp)
    6452:	ce4e                	sw	s3,28(sp)
    6454:	cc52                	sw	s4,24(sp)
    6456:	c85a                	sw	s6,16(sp)
    6458:	c65e                	sw	s7,12(sp)
    645a:	c462                	sw	s8,8(sp)
    645c:	842a                	mv	s0,a0
    645e:	8cb2                	mv	s9,a2
    6460:	8ab6                	mv	s5,a3
    6462:	00202973          	frrm	s2
    6466:	0145db13          	srli	s6,a1,0x14
    646a:	00c59b93          	slli	s7,a1,0xc
    646e:	7ffb7b13          	andi	s6,s6,2047
    6472:	00cbdb93          	srli	s7,s7,0xc
    6476:	01f5da13          	srli	s4,a1,0x1f
    647a:	020b0663          	beqz	s6,64a6 <__divdf3+0x62>
    647e:	7ff00793          	li	a5,2047
    6482:	06fb0b63          	beq	s6,a5,64f8 <__divdf3+0xb4>
    6486:	01d55713          	srli	a4,a0,0x1d
    648a:	0b8e                	slli	s7,s7,0x3
    648c:	01776bb3          	or	s7,a4,s7
    6490:	008007b7          	lui	a5,0x800
    6494:	00fbebb3          	or	s7,s7,a5
    6498:	00351993          	slli	s3,a0,0x3
    649c:	c01b0b13          	addi	s6,s6,-1023
    64a0:	4c01                	li	s8,0
    64a2:	4481                	li	s1,0
    64a4:	a0bd                	j	6512 <__divdf3+0xce>
    64a6:	00abe7b3          	or	a5,s7,a0
    64aa:	c7e9                	beqz	a5,6574 <__divdf3+0x130>
    64ac:	020b8b63          	beqz	s7,64e2 <__divdf3+0x9e>
    64b0:	855e                	mv	a0,s7
    64b2:	0ad010ef          	jal	ra,7d5e <__clzsi2>
    64b6:	ff550713          	addi	a4,a0,-11
    64ba:	47f1                	li	a5,28
    64bc:	02e7c863          	blt	a5,a4,64ec <__divdf3+0xa8>
    64c0:	46f5                	li	a3,29
    64c2:	ff850993          	addi	s3,a0,-8
    64c6:	8e99                	sub	a3,a3,a4
    64c8:	013b9bb3          	sll	s7,s7,s3
    64cc:	00d456b3          	srl	a3,s0,a3
    64d0:	0176ebb3          	or	s7,a3,s7
    64d4:	013419b3          	sll	s3,s0,s3
    64d8:	c0d00593          	li	a1,-1011
    64dc:	40a58b33          	sub	s6,a1,a0
    64e0:	b7c1                	j	64a0 <__divdf3+0x5c>
    64e2:	07d010ef          	jal	ra,7d5e <__clzsi2>
    64e6:	02050513          	addi	a0,a0,32
    64ea:	b7f1                	j	64b6 <__divdf3+0x72>
    64ec:	fd850b93          	addi	s7,a0,-40
    64f0:	01741bb3          	sll	s7,s0,s7
    64f4:	4981                	li	s3,0
    64f6:	b7cd                	j	64d8 <__divdf3+0x94>
    64f8:	00abe433          	or	s0,s7,a0
    64fc:	c049                	beqz	s0,657e <__divdf3+0x13a>
    64fe:	000807b7          	lui	a5,0x80
    6502:	00fbf7b3          	and	a5,s7,a5
    6506:	89aa                	mv	s3,a0
    6508:	7ff00b13          	li	s6,2047
    650c:	4c0d                	li	s8,3
    650e:	44c1                	li	s1,16
    6510:	fbc9                	bnez	a5,64a2 <__divdf3+0x5e>
    6512:	00ca9513          	slli	a0,s5,0xc
    6516:	00c55413          	srli	s0,a0,0xc
    651a:	014ad513          	srli	a0,s5,0x14
    651e:	7ff57593          	andi	a1,a0,2047
    6522:	87e6                	mv	a5,s9
    6524:	01fada93          	srli	s5,s5,0x1f
    6528:	c1ad                	beqz	a1,658a <__divdf3+0x146>
    652a:	7ff00713          	li	a4,2047
    652e:	0ae58963          	beq	a1,a4,65e0 <__divdf3+0x19c>
    6532:	01dcd793          	srli	a5,s9,0x1d
    6536:	00341513          	slli	a0,s0,0x3
    653a:	8d5d                	or	a0,a0,a5
    653c:	00800437          	lui	s0,0x800
    6540:	8c49                	or	s0,s0,a0
    6542:	003c9793          	slli	a5,s9,0x3
    6546:	c0158513          	addi	a0,a1,-1023
    654a:	4701                	li	a4,0
    654c:	002c1693          	slli	a3,s8,0x2
    6550:	8ed9                	or	a3,a3,a4
    6552:	40ab05b3          	sub	a1,s6,a0
    6556:	16fd                	addi	a3,a3,-1
    6558:	4539                	li	a0,14
    655a:	015a4633          	xor	a2,s4,s5
    655e:	0ad56a63          	bltu	a0,a3,6612 <__divdf3+0x1ce>
    6562:	00004517          	auipc	a0,0x4
    6566:	e1650513          	addi	a0,a0,-490 # a378 <pow10.0+0x50>
    656a:	068a                	slli	a3,a3,0x2
    656c:	96aa                	add	a3,a3,a0
    656e:	4294                	lw	a3,0(a3)
    6570:	96aa                	add	a3,a3,a0
    6572:	8682                	jr	a3
    6574:	4b81                	li	s7,0
    6576:	4981                	li	s3,0
    6578:	4b01                	li	s6,0
    657a:	4c05                	li	s8,1
    657c:	b71d                	j	64a2 <__divdf3+0x5e>
    657e:	4b81                	li	s7,0
    6580:	4981                	li	s3,0
    6582:	7ff00b13          	li	s6,2047
    6586:	4c09                	li	s8,2
    6588:	bf29                	j	64a2 <__divdf3+0x5e>
    658a:	019467b3          	or	a5,s0,s9
    658e:	c7ad                	beqz	a5,65f8 <__divdf3+0x1b4>
    6590:	02040c63          	beqz	s0,65c8 <__divdf3+0x184>
    6594:	8522                	mv	a0,s0
    6596:	7c8010ef          	jal	ra,7d5e <__clzsi2>
    659a:	85aa                	mv	a1,a0
    659c:	ff558693          	addi	a3,a1,-11
    65a0:	47f1                	li	a5,28
    65a2:	02d7c963          	blt	a5,a3,65d4 <__divdf3+0x190>
    65a6:	4775                	li	a4,29
    65a8:	ff858793          	addi	a5,a1,-8
    65ac:	8f15                	sub	a4,a4,a3
    65ae:	00f41533          	sll	a0,s0,a5
    65b2:	00ecd733          	srl	a4,s9,a4
    65b6:	00a76433          	or	s0,a4,a0
    65ba:	00fc97b3          	sll	a5,s9,a5
    65be:	c0d00713          	li	a4,-1011
    65c2:	40b70533          	sub	a0,a4,a1
    65c6:	b751                	j	654a <__divdf3+0x106>
    65c8:	8566                	mv	a0,s9
    65ca:	794010ef          	jal	ra,7d5e <__clzsi2>
    65ce:	02050593          	addi	a1,a0,32
    65d2:	b7e9                	j	659c <__divdf3+0x158>
    65d4:	fd858513          	addi	a0,a1,-40
    65d8:	00ac9433          	sll	s0,s9,a0
    65dc:	4781                	li	a5,0
    65de:	b7c5                	j	65be <__divdf3+0x17a>
    65e0:	01946633          	or	a2,s0,s9
    65e4:	ce19                	beqz	a2,6602 <__divdf3+0x1be>
    65e6:	00080737          	lui	a4,0x80
    65ea:	8f61                	and	a4,a4,s0
    65ec:	7ff00513          	li	a0,2047
    65f0:	ef19                	bnez	a4,660e <__divdf3+0x1ca>
    65f2:	470d                	li	a4,3
    65f4:	44c1                	li	s1,16
    65f6:	bf99                	j	654c <__divdf3+0x108>
    65f8:	4401                	li	s0,0
    65fa:	4781                	li	a5,0
    65fc:	4501                	li	a0,0
    65fe:	4705                	li	a4,1
    6600:	b7b1                	j	654c <__divdf3+0x108>
    6602:	4401                	li	s0,0
    6604:	4781                	li	a5,0
    6606:	7ff00513          	li	a0,2047
    660a:	4709                	li	a4,2
    660c:	b781                	j	654c <__divdf3+0x108>
    660e:	470d                	li	a4,3
    6610:	bf35                	j	654c <__divdf3+0x108>
    6612:	01746663          	bltu	s0,s7,661e <__divdf3+0x1da>
    6616:	268b9463          	bne	s7,s0,687e <__divdf3+0x43a>
    661a:	26f9e263          	bltu	s3,a5,687e <__divdf3+0x43a>
    661e:	01fb9513          	slli	a0,s7,0x1f
    6622:	0019d713          	srli	a4,s3,0x1
    6626:	01f99693          	slli	a3,s3,0x1f
    662a:	001bdb93          	srli	s7,s7,0x1
    662e:	00e569b3          	or	s3,a0,a4
    6632:	00841513          	slli	a0,s0,0x8
    6636:	0187d813          	srli	a6,a5,0x18
    663a:	00a86833          	or	a6,a6,a0
    663e:	8141                	srli	a0,a0,0x10
    6640:	02abde33          	divu	t3,s7,a0
    6644:	01081f13          	slli	t5,a6,0x10
    6648:	010f5f13          	srli	t5,t5,0x10
    664c:	00879893          	slli	a7,a5,0x8
    6650:	0109d793          	srli	a5,s3,0x10
    6654:	02abfbb3          	remu	s7,s7,a0
    6658:	8372                	mv	t1,t3
    665a:	03cf0733          	mul	a4,t5,t3
    665e:	0bc2                	slli	s7,s7,0x10
    6660:	0177e7b3          	or	a5,a5,s7
    6664:	00e7fc63          	bgeu	a5,a4,667c <__divdf3+0x238>
    6668:	97c2                	add	a5,a5,a6
    666a:	fffe0313          	addi	t1,t3,-1
    666e:	0107e763          	bltu	a5,a6,667c <__divdf3+0x238>
    6672:	00e7f563          	bgeu	a5,a4,667c <__divdf3+0x238>
    6676:	ffee0313          	addi	t1,t3,-2
    667a:	97c2                	add	a5,a5,a6
    667c:	8f99                	sub	a5,a5,a4
    667e:	02a7deb3          	divu	t4,a5,a0
    6682:	01099713          	slli	a4,s3,0x10
    6686:	8341                	srli	a4,a4,0x10
    6688:	02a7f7b3          	remu	a5,a5,a0
    668c:	89f6                	mv	s3,t4
    668e:	03df0e33          	mul	t3,t5,t4
    6692:	07c2                	slli	a5,a5,0x10
    6694:	8f5d                	or	a4,a4,a5
    6696:	01c77c63          	bgeu	a4,t3,66ae <__divdf3+0x26a>
    669a:	9742                	add	a4,a4,a6
    669c:	fffe8993          	addi	s3,t4,-1
    66a0:	01076763          	bltu	a4,a6,66ae <__divdf3+0x26a>
    66a4:	01c77563          	bgeu	a4,t3,66ae <__divdf3+0x26a>
    66a8:	ffee8993          	addi	s3,t4,-2
    66ac:	9742                	add	a4,a4,a6
    66ae:	0342                	slli	t1,t1,0x10
    66b0:	013369b3          	or	s3,t1,s3
    66b4:	6341                	lui	t1,0x10
    66b6:	fff30e93          	addi	t4,t1,-1 # ffff <_global_impure_ptr+0x5a77>
    66ba:	0109d293          	srli	t0,s3,0x10
    66be:	0108df93          	srli	t6,a7,0x10
    66c2:	41c70733          	sub	a4,a4,t3
    66c6:	01d9fe33          	and	t3,s3,t4
    66ca:	01d8feb3          	and	t4,a7,t4
    66ce:	03de07b3          	mul	a5,t3,t4
    66d2:	03d28433          	mul	s0,t0,t4
    66d6:	03cf8e33          	mul	t3,t6,t3
    66da:	008e03b3          	add	t2,t3,s0
    66de:	0107de13          	srli	t3,a5,0x10
    66e2:	9e1e                	add	t3,t3,t2
    66e4:	03f282b3          	mul	t0,t0,t6
    66e8:	008e7363          	bgeu	t3,s0,66ee <__divdf3+0x2aa>
    66ec:	929a                	add	t0,t0,t1
    66ee:	63c1                	lui	t2,0x10
    66f0:	010e5313          	srli	t1,t3,0x10
    66f4:	13fd                	addi	t2,t2,-1
    66f6:	929a                	add	t0,t0,t1
    66f8:	007e7333          	and	t1,t3,t2
    66fc:	0342                	slli	t1,t1,0x10
    66fe:	0077f7b3          	and	a5,a5,t2
    6702:	933e                	add	t1,t1,a5
    6704:	00576763          	bltu	a4,t0,6712 <__divdf3+0x2ce>
    6708:	844e                	mv	s0,s3
    670a:	02571e63          	bne	a4,t0,6746 <__divdf3+0x302>
    670e:	0266fc63          	bgeu	a3,t1,6746 <__divdf3+0x302>
    6712:	96c6                	add	a3,a3,a7
    6714:	0116b7b3          	sltu	a5,a3,a7
    6718:	97c2                	add	a5,a5,a6
    671a:	973e                	add	a4,a4,a5
    671c:	fff98413          	addi	s0,s3,-1
    6720:	00e86663          	bltu	a6,a4,672c <__divdf3+0x2e8>
    6724:	02e81163          	bne	a6,a4,6746 <__divdf3+0x302>
    6728:	0116ef63          	bltu	a3,a7,6746 <__divdf3+0x302>
    672c:	00576663          	bltu	a4,t0,6738 <__divdf3+0x2f4>
    6730:	00e29b63          	bne	t0,a4,6746 <__divdf3+0x302>
    6734:	0066f963          	bgeu	a3,t1,6746 <__divdf3+0x302>
    6738:	96c6                	add	a3,a3,a7
    673a:	0116b7b3          	sltu	a5,a3,a7
    673e:	97c2                	add	a5,a5,a6
    6740:	ffe98413          	addi	s0,s3,-2
    6744:	973e                	add	a4,a4,a5
    6746:	40668333          	sub	t1,a3,t1
    674a:	40570733          	sub	a4,a4,t0
    674e:	0066b6b3          	sltu	a3,a3,t1
    6752:	8f15                	sub	a4,a4,a3
    6754:	57fd                	li	a5,-1
    6756:	0ee80763          	beq	a6,a4,6844 <__divdf3+0x400>
    675a:	02a752b3          	divu	t0,a4,a0
    675e:	01035793          	srli	a5,t1,0x10
    6762:	02a77733          	remu	a4,a4,a0
    6766:	8696                	mv	a3,t0
    6768:	025f0e33          	mul	t3,t5,t0
    676c:	0742                	slli	a4,a4,0x10
    676e:	8f5d                	or	a4,a4,a5
    6770:	01c77c63          	bgeu	a4,t3,6788 <__divdf3+0x344>
    6774:	9742                	add	a4,a4,a6
    6776:	fff28693          	addi	a3,t0,-1
    677a:	01076763          	bltu	a4,a6,6788 <__divdf3+0x344>
    677e:	01c77563          	bgeu	a4,t3,6788 <__divdf3+0x344>
    6782:	ffe28693          	addi	a3,t0,-2
    6786:	9742                	add	a4,a4,a6
    6788:	41c70733          	sub	a4,a4,t3
    678c:	02a75e33          	divu	t3,a4,a0
    6790:	01031793          	slli	a5,t1,0x10
    6794:	83c1                	srli	a5,a5,0x10
    6796:	02a77733          	remu	a4,a4,a0
    679a:	03cf0f33          	mul	t5,t5,t3
    679e:	0742                	slli	a4,a4,0x10
    67a0:	8f5d                	or	a4,a4,a5
    67a2:	87f2                	mv	a5,t3
    67a4:	01e77c63          	bgeu	a4,t5,67bc <__divdf3+0x378>
    67a8:	9742                	add	a4,a4,a6
    67aa:	fffe0793          	addi	a5,t3,-1
    67ae:	01076763          	bltu	a4,a6,67bc <__divdf3+0x378>
    67b2:	01e77563          	bgeu	a4,t5,67bc <__divdf3+0x378>
    67b6:	ffee0793          	addi	a5,t3,-2
    67ba:	9742                	add	a4,a4,a6
    67bc:	06c2                	slli	a3,a3,0x10
    67be:	8edd                	or	a3,a3,a5
    67c0:	01069793          	slli	a5,a3,0x10
    67c4:	83c1                	srli	a5,a5,0x10
    67c6:	0106d313          	srli	t1,a3,0x10
    67ca:	026f8e33          	mul	t3,t6,t1
    67ce:	41e70733          	sub	a4,a4,t5
    67d2:	02ff8fb3          	mul	t6,t6,a5
    67d6:	02fe8f33          	mul	t5,t4,a5
    67da:	03d30eb3          	mul	t4,t1,t4
    67de:	010f5793          	srli	a5,t5,0x10
    67e2:	9ff6                	add	t6,t6,t4
    67e4:	97fe                	add	a5,a5,t6
    67e6:	01d7f463          	bgeu	a5,t4,67ee <__divdf3+0x3aa>
    67ea:	6541                	lui	a0,0x10
    67ec:	9e2a                	add	t3,t3,a0
    67ee:	0107d313          	srli	t1,a5,0x10
    67f2:	9372                	add	t1,t1,t3
    67f4:	6e41                	lui	t3,0x10
    67f6:	1e7d                	addi	t3,t3,-1
    67f8:	01c7f533          	and	a0,a5,t3
    67fc:	0542                	slli	a0,a0,0x10
    67fe:	01cf7f33          	and	t5,t5,t3
    6802:	957a                	add	a0,a0,t5
    6804:	00676663          	bltu	a4,t1,6810 <__divdf3+0x3cc>
    6808:	2c671263          	bne	a4,t1,6acc <__divdf3+0x688>
    680c:	87b6                	mv	a5,a3
    680e:	c91d                	beqz	a0,6844 <__divdf3+0x400>
    6810:	9742                	add	a4,a4,a6
    6812:	fff68793          	addi	a5,a3,-1 # 7fefffff <__kernel_stack+0x5fe40007>
    6816:	03076163          	bltu	a4,a6,6838 <__divdf3+0x3f4>
    681a:	00676663          	bltu	a4,t1,6826 <__divdf3+0x3e2>
    681e:	2a671663          	bne	a4,t1,6aca <__divdf3+0x686>
    6822:	00a8fd63          	bgeu	a7,a0,683c <__divdf3+0x3f8>
    6826:	ffe68793          	addi	a5,a3,-2
    682a:	00189693          	slli	a3,a7,0x1
    682e:	0116b8b3          	sltu	a7,a3,a7
    6832:	9846                	add	a6,a6,a7
    6834:	9742                	add	a4,a4,a6
    6836:	88b6                	mv	a7,a3
    6838:	00671463          	bne	a4,t1,6840 <__divdf3+0x3fc>
    683c:	00a88463          	beq	a7,a0,6844 <__divdf3+0x400>
    6840:	0017e793          	ori	a5,a5,1
    6844:	3ff58813          	addi	a6,a1,1023
    6848:	11005863          	blez	a6,6958 <__divdf3+0x514>
    684c:	0077f713          	andi	a4,a5,7
    6850:	cf25                	beqz	a4,68c8 <__divdf3+0x484>
    6852:	4709                	li	a4,2
    6854:	0014e493          	ori	s1,s1,1
    6858:	06e90763          	beq	s2,a4,68c6 <__divdf3+0x482>
    685c:	470d                	li	a4,3
    685e:	06e90063          	beq	s2,a4,68be <__divdf3+0x47a>
    6862:	06091363          	bnez	s2,68c8 <__divdf3+0x484>
    6866:	00f7f713          	andi	a4,a5,15
    686a:	4691                	li	a3,4
    686c:	04d70e63          	beq	a4,a3,68c8 <__divdf3+0x484>
    6870:	00478713          	addi	a4,a5,4 # 80004 <_global_impure_ptr+0x75a7c>
    6874:	00f737b3          	sltu	a5,a4,a5
    6878:	943e                	add	s0,s0,a5
    687a:	87ba                	mv	a5,a4
    687c:	a0b1                	j	68c8 <__divdf3+0x484>
    687e:	15fd                	addi	a1,a1,-1
    6880:	4681                	li	a3,0
    6882:	bb45                	j	6632 <__divdf3+0x1ee>
    6884:	8652                	mv	a2,s4
    6886:	845e                	mv	s0,s7
    6888:	87ce                	mv	a5,s3
    688a:	8762                	mv	a4,s8
    688c:	468d                	li	a3,3
    688e:	22d70763          	beq	a4,a3,6abc <__divdf3+0x678>
    6892:	4685                	li	a3,1
    6894:	22d70163          	beq	a4,a3,6ab6 <__divdf3+0x672>
    6898:	4689                	li	a3,2
    689a:	fad715e3          	bne	a4,a3,6844 <__divdf3+0x400>
    689e:	a029                	j	68a8 <__divdf3+0x464>
    68a0:	8656                	mv	a2,s5
    68a2:	b7ed                	j	688c <__divdf3+0x448>
    68a4:	0084e493          	ori	s1,s1,8
    68a8:	4501                	li	a0,0
    68aa:	4781                	li	a5,0
    68ac:	7ff00713          	li	a4,2047
    68b0:	a091                	j	68f4 <__divdf3+0x4b0>
    68b2:	00080437          	lui	s0,0x80
    68b6:	4781                	li	a5,0
    68b8:	4601                	li	a2,0
    68ba:	470d                	li	a4,3
    68bc:	bfc1                	j	688c <__divdf3+0x448>
    68be:	e609                	bnez	a2,68c8 <__divdf3+0x484>
    68c0:	00878713          	addi	a4,a5,8
    68c4:	bf45                	j	6874 <__divdf3+0x430>
    68c6:	fe6d                	bnez	a2,68c0 <__divdf3+0x47c>
    68c8:	01000737          	lui	a4,0x1000
    68cc:	8f61                	and	a4,a4,s0
    68ce:	c719                	beqz	a4,68dc <__divdf3+0x498>
    68d0:	ff000737          	lui	a4,0xff000
    68d4:	177d                	addi	a4,a4,-1
    68d6:	8c79                	and	s0,s0,a4
    68d8:	40058813          	addi	a6,a1,1024
    68dc:	7fe00713          	li	a4,2046
    68e0:	05074663          	blt	a4,a6,692c <__divdf3+0x4e8>
    68e4:	0037d713          	srli	a4,a5,0x3
    68e8:	01d41793          	slli	a5,s0,0x1d
    68ec:	8fd9                	or	a5,a5,a4
    68ee:	00345513          	srli	a0,s0,0x3
    68f2:	8742                	mv	a4,a6
    68f4:	0752                	slli	a4,a4,0x14
    68f6:	7ff006b7          	lui	a3,0x7ff00
    68fa:	0532                	slli	a0,a0,0xc
    68fc:	8f75                	and	a4,a4,a3
    68fe:	8131                	srli	a0,a0,0xc
    6900:	8d59                	or	a0,a0,a4
    6902:	067e                	slli	a2,a2,0x1f
    6904:	00c56733          	or	a4,a0,a2
    6908:	85ba                	mv	a1,a4
    690a:	853e                	mv	a0,a5
    690c:	c099                	beqz	s1,6912 <__divdf3+0x4ce>
    690e:	0014a073          	csrs	fflags,s1
    6912:	50b2                	lw	ra,44(sp)
    6914:	5422                	lw	s0,40(sp)
    6916:	5492                	lw	s1,36(sp)
    6918:	5902                	lw	s2,32(sp)
    691a:	49f2                	lw	s3,28(sp)
    691c:	4a62                	lw	s4,24(sp)
    691e:	4ad2                	lw	s5,20(sp)
    6920:	4b42                	lw	s6,16(sp)
    6922:	4bb2                	lw	s7,12(sp)
    6924:	4c22                	lw	s8,8(sp)
    6926:	4c92                	lw	s9,4(sp)
    6928:	6145                	addi	sp,sp,48
    692a:	8082                	ret
    692c:	4789                	li	a5,2
    692e:	02f90363          	beq	s2,a5,6954 <__divdf3+0x510>
    6932:	478d                	li	a5,3
    6934:	00f90863          	beq	s2,a5,6944 <__divdf3+0x500>
    6938:	00091763          	bnez	s2,6946 <__divdf3+0x502>
    693c:	4781                	li	a5,0
    693e:	7ff00713          	li	a4,2047
    6942:	a029                	j	694c <__divdf3+0x508>
    6944:	de65                	beqz	a2,693c <__divdf3+0x4f8>
    6946:	57fd                	li	a5,-1
    6948:	7fe00713          	li	a4,2046
    694c:	0054e493          	ori	s1,s1,5
    6950:	853e                	mv	a0,a5
    6952:	b74d                	j	68f4 <__divdf3+0x4b0>
    6954:	f665                	bnez	a2,693c <__divdf3+0x4f8>
    6956:	bfc5                	j	6946 <__divdf3+0x502>
    6958:	4705                	li	a4,1
    695a:	04081463          	bnez	a6,69a2 <__divdf3+0x55e>
    695e:	0077f693          	andi	a3,a5,7
    6962:	8722                	mv	a4,s0
    6964:	ca9d                	beqz	a3,699a <__divdf3+0x556>
    6966:	4689                	li	a3,2
    6968:	0014e493          	ori	s1,s1,1
    696c:	02d90663          	beq	s2,a3,6998 <__divdf3+0x554>
    6970:	468d                	li	a3,3
    6972:	00d90f63          	beq	s2,a3,6990 <__divdf3+0x54c>
    6976:	02091263          	bnez	s2,699a <__divdf3+0x556>
    697a:	00f7f693          	andi	a3,a5,15
    697e:	4511                	li	a0,4
    6980:	00a68d63          	beq	a3,a0,699a <__divdf3+0x556>
    6984:	ffc7b713          	sltiu	a4,a5,-4
    6988:	00174713          	xori	a4,a4,1
    698c:	9722                	add	a4,a4,s0
    698e:	a031                	j	699a <__divdf3+0x556>
    6990:	e609                	bnez	a2,699a <__divdf3+0x556>
    6992:	ff87b713          	sltiu	a4,a5,-8
    6996:	bfcd                	j	6988 <__divdf3+0x544>
    6998:	fe6d                	bnez	a2,6992 <__divdf3+0x54e>
    699a:	8361                	srli	a4,a4,0x18
    699c:	00174713          	xori	a4,a4,1
    69a0:	8b05                	andi	a4,a4,1
    69a2:	4505                	li	a0,1
    69a4:	41050533          	sub	a0,a0,a6
    69a8:	03800693          	li	a3,56
    69ac:	0ca6c263          	blt	a3,a0,6a70 <__divdf3+0x62c>
    69b0:	46fd                	li	a3,31
    69b2:	04a6ca63          	blt	a3,a0,6a06 <__divdf3+0x5c2>
    69b6:	41e58593          	addi	a1,a1,1054
    69ba:	00a7d833          	srl	a6,a5,a0
    69be:	00b416b3          	sll	a3,s0,a1
    69c2:	00b797b3          	sll	a5,a5,a1
    69c6:	0106e6b3          	or	a3,a3,a6
    69ca:	00f037b3          	snez	a5,a5
    69ce:	8fd5                	or	a5,a5,a3
    69d0:	00a45533          	srl	a0,s0,a0
    69d4:	0077f693          	andi	a3,a5,7
    69d8:	c2ad                	beqz	a3,6a3a <__divdf3+0x5f6>
    69da:	4689                	li	a3,2
    69dc:	0014e493          	ori	s1,s1,1
    69e0:	04d90c63          	beq	s2,a3,6a38 <__divdf3+0x5f4>
    69e4:	468d                	li	a3,3
    69e6:	04d90563          	beq	s2,a3,6a30 <__divdf3+0x5ec>
    69ea:	04091863          	bnez	s2,6a3a <__divdf3+0x5f6>
    69ee:	00f7f693          	andi	a3,a5,15
    69f2:	4591                	li	a1,4
    69f4:	04b68363          	beq	a3,a1,6a3a <__divdf3+0x5f6>
    69f8:	00478693          	addi	a3,a5,4
    69fc:	00f6b7b3          	sltu	a5,a3,a5
    6a00:	953e                	add	a0,a0,a5
    6a02:	87b6                	mv	a5,a3
    6a04:	a81d                	j	6a3a <__divdf3+0x5f6>
    6a06:	5685                	li	a3,-31
    6a08:	410686b3          	sub	a3,a3,a6
    6a0c:	02000893          	li	a7,32
    6a10:	00d456b3          	srl	a3,s0,a3
    6a14:	4801                	li	a6,0
    6a16:	01150663          	beq	a0,a7,6a22 <__divdf3+0x5de>
    6a1a:	43e58593          	addi	a1,a1,1086
    6a1e:	00b41833          	sll	a6,s0,a1
    6a22:	00f867b3          	or	a5,a6,a5
    6a26:	00f037b3          	snez	a5,a5
    6a2a:	8fd5                	or	a5,a5,a3
    6a2c:	4501                	li	a0,0
    6a2e:	b75d                	j	69d4 <__divdf3+0x590>
    6a30:	e609                	bnez	a2,6a3a <__divdf3+0x5f6>
    6a32:	00878693          	addi	a3,a5,8
    6a36:	b7d9                	j	69fc <__divdf3+0x5b8>
    6a38:	fe6d                	bnez	a2,6a32 <__divdf3+0x5ee>
    6a3a:	008006b7          	lui	a3,0x800
    6a3e:	8ee9                	and	a3,a3,a0
    6a40:	ca81                	beqz	a3,6a50 <__divdf3+0x60c>
    6a42:	0014e493          	ori	s1,s1,1
    6a46:	4501                	li	a0,0
    6a48:	4781                	li	a5,0
    6a4a:	e305                	bnez	a4,6a6a <__divdf3+0x626>
    6a4c:	4705                	li	a4,1
    6a4e:	b55d                	j	68f4 <__divdf3+0x4b0>
    6a50:	0037d693          	srli	a3,a5,0x3
    6a54:	01d51793          	slli	a5,a0,0x1d
    6a58:	8fd5                	or	a5,a5,a3
    6a5a:	810d                	srli	a0,a0,0x3
    6a5c:	e8070ce3          	beqz	a4,68f4 <__divdf3+0x4b0>
    6a60:	0014f713          	andi	a4,s1,1
    6a64:	e80708e3          	beqz	a4,68f4 <__divdf3+0x4b0>
    6a68:	4701                	li	a4,0
    6a6a:	0024e493          	ori	s1,s1,2
    6a6e:	b559                	j	68f4 <__divdf3+0x4b0>
    6a70:	8fc1                	or	a5,a5,s0
    6a72:	cf91                	beqz	a5,6a8e <__divdf3+0x64a>
    6a74:	4789                	li	a5,2
    6a76:	0014e493          	ori	s1,s1,1
    6a7a:	02f90363          	beq	s2,a5,6aa0 <__divdf3+0x65c>
    6a7e:	478d                	li	a5,3
    6a80:	00f90c63          	beq	s2,a5,6a98 <__divdf3+0x654>
    6a84:	4785                	li	a5,1
    6a86:	00091363          	bnez	s2,6a8c <__divdf3+0x648>
    6a8a:	4795                	li	a5,5
    6a8c:	838d                	srli	a5,a5,0x3
    6a8e:	0024e493          	ori	s1,s1,2
    6a92:	4501                	li	a0,0
    6a94:	4701                	li	a4,0
    6a96:	bdb9                	j	68f4 <__divdf3+0x4b0>
    6a98:	47a5                	li	a5,9
    6a9a:	da6d                	beqz	a2,6a8c <__divdf3+0x648>
    6a9c:	4785                	li	a5,1
    6a9e:	b7fd                	j	6a8c <__divdf3+0x648>
    6aa0:	47a5                	li	a5,9
    6aa2:	f66d                	bnez	a2,6a8c <__divdf3+0x648>
    6aa4:	bfe5                	j	6a9c <__divdf3+0x658>
    6aa6:	00080537          	lui	a0,0x80
    6aaa:	4781                	li	a5,0
    6aac:	7ff00713          	li	a4,2047
    6ab0:	4601                	li	a2,0
    6ab2:	44c1                	li	s1,16
    6ab4:	b581                	j	68f4 <__divdf3+0x4b0>
    6ab6:	4501                	li	a0,0
    6ab8:	4781                	li	a5,0
    6aba:	bfe9                	j	6a94 <__divdf3+0x650>
    6abc:	00080537          	lui	a0,0x80
    6ac0:	4781                	li	a5,0
    6ac2:	7ff00713          	li	a4,2047
    6ac6:	4601                	li	a2,0
    6ac8:	b535                	j	68f4 <__divdf3+0x4b0>
    6aca:	86be                	mv	a3,a5
    6acc:	87b6                	mv	a5,a3
    6ace:	bb8d                	j	6840 <__divdf3+0x3fc>

00006ad0 <__eqdf2>:
    6ad0:	882a                	mv	a6,a0
    6ad2:	002027f3          	frrm	a5
    6ad6:	001007b7          	lui	a5,0x100
    6ada:	0145d893          	srli	a7,a1,0x14
    6ade:	17fd                	addi	a5,a5,-1
    6ae0:	0146d313          	srli	t1,a3,0x14
    6ae4:	8e2a                	mv	t3,a0
    6ae6:	7ff8f893          	andi	a7,a7,2047
    6aea:	7ff00513          	li	a0,2047
    6aee:	00b7f733          	and	a4,a5,a1
    6af2:	8eb2                	mv	t4,a2
    6af4:	8ff5                	and	a5,a5,a3
    6af6:	81fd                	srli	a1,a1,0x1f
    6af8:	7ff37313          	andi	t1,t1,2047
    6afc:	82fd                	srli	a3,a3,0x1f
    6afe:	00a89863          	bne	a7,a0,6b0e <__eqdf2+0x3e>
    6b02:	01076533          	or	a0,a4,a6
    6b06:	e531                	bnez	a0,6b52 <__eqdf2+0x82>
    6b08:	07131463          	bne	t1,a7,6b70 <__eqdf2+0xa0>
    6b0c:	a019                	j	6b12 <__eqdf2+0x42>
    6b0e:	00a31563          	bne	t1,a0,6b18 <__eqdf2+0x48>
    6b12:	00c7e533          	or	a0,a5,a2
    6b16:	e515                	bnez	a0,6b42 <__eqdf2+0x72>
    6b18:	4505                	li	a0,1
    6b1a:	04689c63          	bne	a7,t1,6b72 <__eqdf2+0xa2>
    6b1e:	04f71a63          	bne	a4,a5,6b72 <__eqdf2+0xa2>
    6b22:	05de1863          	bne	t3,t4,6b72 <__eqdf2+0xa2>
    6b26:	00d58c63          	beq	a1,a3,6b3e <__eqdf2+0x6e>
    6b2a:	04089463          	bnez	a7,6b72 <__eqdf2+0xa2>
    6b2e:	01076733          	or	a4,a4,a6
    6b32:	00e03533          	snez	a0,a4
    6b36:	8082                	ret
    6b38:	00186073          	csrsi	fflags,16
    6b3c:	a815                	j	6b70 <__eqdf2+0xa0>
    6b3e:	4501                	li	a0,0
    6b40:	8082                	ret
    6b42:	7ff00693          	li	a3,2047
    6b46:	02d89163          	bne	a7,a3,6b68 <__eqdf2+0x98>
    6b4a:	01076833          	or	a6,a4,a6
    6b4e:	00080d63          	beqz	a6,6b68 <__eqdf2+0x98>
    6b52:	000806b7          	lui	a3,0x80
    6b56:	8f75                	and	a4,a4,a3
    6b58:	d365                	beqz	a4,6b38 <__eqdf2+0x68>
    6b5a:	7ff00713          	li	a4,2047
    6b5e:	4505                	li	a0,1
    6b60:	00e31963          	bne	t1,a4,6b72 <__eqdf2+0xa2>
    6b64:	8e5d                	or	a2,a2,a5
    6b66:	c611                	beqz	a2,6b72 <__eqdf2+0xa2>
    6b68:	00080737          	lui	a4,0x80
    6b6c:	8ff9                	and	a5,a5,a4
    6b6e:	d7e9                	beqz	a5,6b38 <__eqdf2+0x68>
    6b70:	4505                	li	a0,1
    6b72:	8082                	ret

00006b74 <__gedf2>:
    6b74:	87aa                	mv	a5,a0
    6b76:	00202773          	frrm	a4
    6b7a:	00100737          	lui	a4,0x100
    6b7e:	177d                	addi	a4,a4,-1
    6b80:	0145d813          	srli	a6,a1,0x14
    6b84:	00b778b3          	and	a7,a4,a1
    6b88:	832a                	mv	t1,a0
    6b8a:	7ff87813          	andi	a6,a6,2047
    6b8e:	01f5d513          	srli	a0,a1,0x1f
    6b92:	7ff00e93          	li	t4,2047
    6b96:	0146d593          	srli	a1,a3,0x14
    6b9a:	8f75                	and	a4,a4,a3
    6b9c:	8e32                	mv	t3,a2
    6b9e:	7ff5f593          	andi	a1,a1,2047
    6ba2:	82fd                	srli	a3,a3,0x1f
    6ba4:	01d81a63          	bne	a6,t4,6bb8 <__gedf2+0x44>
    6ba8:	00f8eeb3          	or	t4,a7,a5
    6bac:	060e8963          	beqz	t4,6c1e <__gedf2+0xaa>
    6bb0:	00186073          	csrsi	fflags,16
    6bb4:	5579                	li	a0,-2
    6bb6:	8082                	ret
    6bb8:	01d59663          	bne	a1,t4,6bc4 <__gedf2+0x50>
    6bbc:	00c76eb3          	or	t4,a4,a2
    6bc0:	fe0e98e3          	bnez	t4,6bb0 <__gedf2+0x3c>
    6bc4:	04081f63          	bnez	a6,6c22 <__gedf2+0xae>
    6bc8:	00f8e7b3          	or	a5,a7,a5
    6bcc:	0017b793          	seqz	a5,a5
    6bd0:	e199                	bnez	a1,6bd6 <__gedf2+0x62>
    6bd2:	8e59                	or	a2,a2,a4
    6bd4:	c221                	beqz	a2,6c14 <__gedf2+0xa0>
    6bd6:	00079a63          	bnez	a5,6bea <__gedf2+0x76>
    6bda:	00d51463          	bne	a0,a3,6be2 <__gedf2+0x6e>
    6bde:	0105da63          	bge	a1,a6,6bf2 <__gedf2+0x7e>
    6be2:	02050763          	beqz	a0,6c10 <__gedf2+0x9c>
    6be6:	557d                	li	a0,-1
    6be8:	8082                	ret
    6bea:	557d                	li	a0,-1
    6bec:	c699                	beqz	a3,6bfa <__gedf2+0x86>
    6bee:	8536                	mv	a0,a3
    6bf0:	8082                	ret
    6bf2:	00b85563          	bge	a6,a1,6bfc <__gedf2+0x88>
    6bf6:	fe0508e3          	beqz	a0,6be6 <__gedf2+0x72>
    6bfa:	8082                	ret
    6bfc:	ff1763e3          	bltu	a4,a7,6be2 <__gedf2+0x6e>
    6c00:	00e89c63          	bne	a7,a4,6c18 <__gedf2+0xa4>
    6c04:	fc6e6fe3          	bltu	t3,t1,6be2 <__gedf2+0x6e>
    6c08:	ffc367e3          	bltu	t1,t3,6bf6 <__gedf2+0x82>
    6c0c:	4501                	li	a0,0
    6c0e:	8082                	ret
    6c10:	4505                	li	a0,1
    6c12:	8082                	ret
    6c14:	ffe5                	bnez	a5,6c0c <__gedf2+0x98>
    6c16:	b7f1                	j	6be2 <__gedf2+0x6e>
    6c18:	fce8efe3          	bltu	a7,a4,6bf6 <__gedf2+0x82>
    6c1c:	bfc5                	j	6c0c <__gedf2+0x98>
    6c1e:	f9058fe3          	beq	a1,a6,6bbc <__gedf2+0x48>
    6c22:	fa059ce3          	bnez	a1,6bda <__gedf2+0x66>
    6c26:	4781                	li	a5,0
    6c28:	b76d                	j	6bd2 <__gedf2+0x5e>

00006c2a <__ledf2>:
    6c2a:	87aa                	mv	a5,a0
    6c2c:	00202773          	frrm	a4
    6c30:	00100737          	lui	a4,0x100
    6c34:	177d                	addi	a4,a4,-1
    6c36:	0145d813          	srli	a6,a1,0x14
    6c3a:	00b778b3          	and	a7,a4,a1
    6c3e:	832a                	mv	t1,a0
    6c40:	7ff87813          	andi	a6,a6,2047
    6c44:	01f5d513          	srli	a0,a1,0x1f
    6c48:	7ff00e93          	li	t4,2047
    6c4c:	0146d593          	srli	a1,a3,0x14
    6c50:	8f75                	and	a4,a4,a3
    6c52:	8e32                	mv	t3,a2
    6c54:	7ff5f593          	andi	a1,a1,2047
    6c58:	82fd                	srli	a3,a3,0x1f
    6c5a:	01d81a63          	bne	a6,t4,6c6e <__ledf2+0x44>
    6c5e:	00f8eeb3          	or	t4,a7,a5
    6c62:	060e8963          	beqz	t4,6cd4 <__ledf2+0xaa>
    6c66:	00186073          	csrsi	fflags,16
    6c6a:	4509                	li	a0,2
    6c6c:	8082                	ret
    6c6e:	01d59663          	bne	a1,t4,6c7a <__ledf2+0x50>
    6c72:	00c76eb3          	or	t4,a4,a2
    6c76:	fe0e98e3          	bnez	t4,6c66 <__ledf2+0x3c>
    6c7a:	04081f63          	bnez	a6,6cd8 <__ledf2+0xae>
    6c7e:	00f8e7b3          	or	a5,a7,a5
    6c82:	0017b793          	seqz	a5,a5
    6c86:	e199                	bnez	a1,6c8c <__ledf2+0x62>
    6c88:	8e59                	or	a2,a2,a4
    6c8a:	c221                	beqz	a2,6cca <__ledf2+0xa0>
    6c8c:	00079a63          	bnez	a5,6ca0 <__ledf2+0x76>
    6c90:	00d51463          	bne	a0,a3,6c98 <__ledf2+0x6e>
    6c94:	0105da63          	bge	a1,a6,6ca8 <__ledf2+0x7e>
    6c98:	02050763          	beqz	a0,6cc6 <__ledf2+0x9c>
    6c9c:	557d                	li	a0,-1
    6c9e:	8082                	ret
    6ca0:	557d                	li	a0,-1
    6ca2:	c699                	beqz	a3,6cb0 <__ledf2+0x86>
    6ca4:	8536                	mv	a0,a3
    6ca6:	8082                	ret
    6ca8:	00b85563          	bge	a6,a1,6cb2 <__ledf2+0x88>
    6cac:	fe0508e3          	beqz	a0,6c9c <__ledf2+0x72>
    6cb0:	8082                	ret
    6cb2:	ff1763e3          	bltu	a4,a7,6c98 <__ledf2+0x6e>
    6cb6:	00e89c63          	bne	a7,a4,6cce <__ledf2+0xa4>
    6cba:	fc6e6fe3          	bltu	t3,t1,6c98 <__ledf2+0x6e>
    6cbe:	ffc367e3          	bltu	t1,t3,6cac <__ledf2+0x82>
    6cc2:	4501                	li	a0,0
    6cc4:	8082                	ret
    6cc6:	4505                	li	a0,1
    6cc8:	8082                	ret
    6cca:	ffe5                	bnez	a5,6cc2 <__ledf2+0x98>
    6ccc:	b7f1                	j	6c98 <__ledf2+0x6e>
    6cce:	fce8efe3          	bltu	a7,a4,6cac <__ledf2+0x82>
    6cd2:	bfc5                	j	6cc2 <__ledf2+0x98>
    6cd4:	f9058fe3          	beq	a1,a6,6c72 <__ledf2+0x48>
    6cd8:	fa059ce3          	bnez	a1,6c90 <__ledf2+0x66>
    6cdc:	4781                	li	a5,0
    6cde:	b76d                	j	6c88 <__ledf2+0x5e>

00006ce0 <__muldf3>:
    6ce0:	7179                	addi	sp,sp,-48
    6ce2:	d422                	sw	s0,40(sp)
    6ce4:	ca56                	sw	s5,20(sp)
    6ce6:	c266                	sw	s9,4(sp)
    6ce8:	d606                	sw	ra,44(sp)
    6cea:	d226                	sw	s1,36(sp)
    6cec:	d04a                	sw	s2,32(sp)
    6cee:	ce4e                	sw	s3,28(sp)
    6cf0:	cc52                	sw	s4,24(sp)
    6cf2:	c85a                	sw	s6,16(sp)
    6cf4:	c65e                	sw	s7,12(sp)
    6cf6:	c462                	sw	s8,8(sp)
    6cf8:	842a                	mv	s0,a0
    6cfa:	8cb2                	mv	s9,a2
    6cfc:	8ab6                	mv	s5,a3
    6cfe:	00202973          	frrm	s2
    6d02:	0145db93          	srli	s7,a1,0x14
    6d06:	00c59993          	slli	s3,a1,0xc
    6d0a:	7ffbfb93          	andi	s7,s7,2047
    6d0e:	00c9d993          	srli	s3,s3,0xc
    6d12:	01f5db13          	srli	s6,a1,0x1f
    6d16:	020b8663          	beqz	s7,6d42 <__muldf3+0x62>
    6d1a:	7ff00793          	li	a5,2047
    6d1e:	06fb8b63          	beq	s7,a5,6d94 <__muldf3+0xb4>
    6d22:	01d55793          	srli	a5,a0,0x1d
    6d26:	098e                	slli	s3,s3,0x3
    6d28:	0137e9b3          	or	s3,a5,s3
    6d2c:	008007b7          	lui	a5,0x800
    6d30:	00f9e9b3          	or	s3,s3,a5
    6d34:	00351a13          	slli	s4,a0,0x3
    6d38:	c01b8b93          	addi	s7,s7,-1023
    6d3c:	4c01                	li	s8,0
    6d3e:	4481                	li	s1,0
    6d40:	a0bd                	j	6dae <__muldf3+0xce>
    6d42:	00a9e7b3          	or	a5,s3,a0
    6d46:	c7e1                	beqz	a5,6e0e <__muldf3+0x12e>
    6d48:	02098b63          	beqz	s3,6d7e <__muldf3+0x9e>
    6d4c:	854e                	mv	a0,s3
    6d4e:	010010ef          	jal	ra,7d5e <__clzsi2>
    6d52:	ff550713          	addi	a4,a0,-11 # 7fff5 <_global_impure_ptr+0x75a6d>
    6d56:	47f1                	li	a5,28
    6d58:	02e7c863          	blt	a5,a4,6d88 <__muldf3+0xa8>
    6d5c:	47f5                	li	a5,29
    6d5e:	ff850a13          	addi	s4,a0,-8
    6d62:	8f99                	sub	a5,a5,a4
    6d64:	014999b3          	sll	s3,s3,s4
    6d68:	00f457b3          	srl	a5,s0,a5
    6d6c:	0137e9b3          	or	s3,a5,s3
    6d70:	01441a33          	sll	s4,s0,s4
    6d74:	c0d00b93          	li	s7,-1011
    6d78:	40ab8bb3          	sub	s7,s7,a0
    6d7c:	b7c1                	j	6d3c <__muldf3+0x5c>
    6d7e:	7e1000ef          	jal	ra,7d5e <__clzsi2>
    6d82:	02050513          	addi	a0,a0,32
    6d86:	b7f1                	j	6d52 <__muldf3+0x72>
    6d88:	fd850993          	addi	s3,a0,-40
    6d8c:	013419b3          	sll	s3,s0,s3
    6d90:	4a01                	li	s4,0
    6d92:	b7cd                	j	6d74 <__muldf3+0x94>
    6d94:	00a9e433          	or	s0,s3,a0
    6d98:	c041                	beqz	s0,6e18 <__muldf3+0x138>
    6d9a:	000807b7          	lui	a5,0x80
    6d9e:	00f9f7b3          	and	a5,s3,a5
    6da2:	8a2a                	mv	s4,a0
    6da4:	7ff00b93          	li	s7,2047
    6da8:	4c0d                	li	s8,3
    6daa:	44c1                	li	s1,16
    6dac:	fbc9                	bnez	a5,6d3e <__muldf3+0x5e>
    6dae:	014ad513          	srli	a0,s5,0x14
    6db2:	00ca9413          	slli	s0,s5,0xc
    6db6:	7ff57513          	andi	a0,a0,2047
    6dba:	87e6                	mv	a5,s9
    6dbc:	8031                	srli	s0,s0,0xc
    6dbe:	01fada93          	srli	s5,s5,0x1f
    6dc2:	c12d                	beqz	a0,6e24 <__muldf3+0x144>
    6dc4:	7ff00713          	li	a4,2047
    6dc8:	0ae50763          	beq	a0,a4,6e76 <__muldf3+0x196>
    6dcc:	01dcd793          	srli	a5,s9,0x1d
    6dd0:	040e                	slli	s0,s0,0x3
    6dd2:	8c5d                	or	s0,s0,a5
    6dd4:	008007b7          	lui	a5,0x800
    6dd8:	8c5d                	or	s0,s0,a5
    6dda:	c0150513          	addi	a0,a0,-1023
    6dde:	003c9793          	slli	a5,s9,0x3
    6de2:	4701                	li	a4,0
    6de4:	002c1693          	slli	a3,s8,0x2
    6de8:	8ed9                	or	a3,a3,a4
    6dea:	9baa                	add	s7,s7,a0
    6dec:	16fd                	addi	a3,a3,-1
    6dee:	4639                	li	a2,14
    6df0:	015b45b3          	xor	a1,s6,s5
    6df4:	001b8513          	addi	a0,s7,1
    6df8:	0ed66b63          	bltu	a2,a3,6eee <__muldf3+0x20e>
    6dfc:	00003617          	auipc	a2,0x3
    6e00:	5b860613          	addi	a2,a2,1464 # a3b4 <pow10.0+0x8c>
    6e04:	068a                	slli	a3,a3,0x2
    6e06:	96b2                	add	a3,a3,a2
    6e08:	4294                	lw	a3,0(a3)
    6e0a:	96b2                	add	a3,a3,a2
    6e0c:	8682                	jr	a3
    6e0e:	4981                	li	s3,0
    6e10:	4a01                	li	s4,0
    6e12:	4b81                	li	s7,0
    6e14:	4c05                	li	s8,1
    6e16:	b725                	j	6d3e <__muldf3+0x5e>
    6e18:	4981                	li	s3,0
    6e1a:	4a01                	li	s4,0
    6e1c:	7ff00b93          	li	s7,2047
    6e20:	4c09                	li	s8,2
    6e22:	bf31                	j	6d3e <__muldf3+0x5e>
    6e24:	019467b3          	or	a5,s0,s9
    6e28:	c3bd                	beqz	a5,6e8e <__muldf3+0x1ae>
    6e2a:	02040a63          	beqz	s0,6e5e <__muldf3+0x17e>
    6e2e:	8522                	mv	a0,s0
    6e30:	72f000ef          	jal	ra,7d5e <__clzsi2>
    6e34:	ff550693          	addi	a3,a0,-11
    6e38:	47f1                	li	a5,28
    6e3a:	02d7c863          	blt	a5,a3,6e6a <__muldf3+0x18a>
    6e3e:	4775                	li	a4,29
    6e40:	ff850793          	addi	a5,a0,-8
    6e44:	8f15                	sub	a4,a4,a3
    6e46:	00f41433          	sll	s0,s0,a5
    6e4a:	00ecd733          	srl	a4,s9,a4
    6e4e:	8c59                	or	s0,s0,a4
    6e50:	00fc97b3          	sll	a5,s9,a5
    6e54:	c0d00713          	li	a4,-1011
    6e58:	40a70533          	sub	a0,a4,a0
    6e5c:	b759                	j	6de2 <__muldf3+0x102>
    6e5e:	8566                	mv	a0,s9
    6e60:	6ff000ef          	jal	ra,7d5e <__clzsi2>
    6e64:	02050513          	addi	a0,a0,32
    6e68:	b7f1                	j	6e34 <__muldf3+0x154>
    6e6a:	fd850413          	addi	s0,a0,-40
    6e6e:	008c9433          	sll	s0,s9,s0
    6e72:	4781                	li	a5,0
    6e74:	b7c5                	j	6e54 <__muldf3+0x174>
    6e76:	01946633          	or	a2,s0,s9
    6e7a:	ce19                	beqz	a2,6e98 <__muldf3+0x1b8>
    6e7c:	00080737          	lui	a4,0x80
    6e80:	8f61                	and	a4,a4,s0
    6e82:	7ff00513          	li	a0,2047
    6e86:	ef19                	bnez	a4,6ea4 <__muldf3+0x1c4>
    6e88:	470d                	li	a4,3
    6e8a:	44c1                	li	s1,16
    6e8c:	bfa1                	j	6de4 <__muldf3+0x104>
    6e8e:	4401                	li	s0,0
    6e90:	4781                	li	a5,0
    6e92:	4501                	li	a0,0
    6e94:	4705                	li	a4,1
    6e96:	b7b9                	j	6de4 <__muldf3+0x104>
    6e98:	4401                	li	s0,0
    6e9a:	4781                	li	a5,0
    6e9c:	7ff00513          	li	a0,2047
    6ea0:	4709                	li	a4,2
    6ea2:	b789                	j	6de4 <__muldf3+0x104>
    6ea4:	470d                	li	a4,3
    6ea6:	bf3d                	j	6de4 <__muldf3+0x104>
    6ea8:	00080437          	lui	s0,0x80
    6eac:	4781                	li	a5,0
    6eae:	7ff00713          	li	a4,2047
    6eb2:	4581                	li	a1,0
    6eb4:	44c1                	li	s1,16
    6eb6:	0752                	slli	a4,a4,0x14
    6eb8:	7ff006b7          	lui	a3,0x7ff00
    6ebc:	0432                	slli	s0,s0,0xc
    6ebe:	8f75                	and	a4,a4,a3
    6ec0:	8031                	srli	s0,s0,0xc
    6ec2:	05fe                	slli	a1,a1,0x1f
    6ec4:	8c59                	or	s0,s0,a4
    6ec6:	00b46733          	or	a4,s0,a1
    6eca:	853e                	mv	a0,a5
    6ecc:	85ba                	mv	a1,a4
    6ece:	c099                	beqz	s1,6ed4 <__muldf3+0x1f4>
    6ed0:	0014a073          	csrs	fflags,s1
    6ed4:	50b2                	lw	ra,44(sp)
    6ed6:	5422                	lw	s0,40(sp)
    6ed8:	5492                	lw	s1,36(sp)
    6eda:	5902                	lw	s2,32(sp)
    6edc:	49f2                	lw	s3,28(sp)
    6ede:	4a62                	lw	s4,24(sp)
    6ee0:	4ad2                	lw	s5,20(sp)
    6ee2:	4b42                	lw	s6,16(sp)
    6ee4:	4bb2                	lw	s7,12(sp)
    6ee6:	4c22                	lw	s8,8(sp)
    6ee8:	4c92                	lw	s9,4(sp)
    6eea:	6145                	addi	sp,sp,48
    6eec:	8082                	ret
    6eee:	6ec1                	lui	t4,0x10
    6ef0:	fffe8e13          	addi	t3,t4,-1 # ffff <_global_impure_ptr+0x5a77>
    6ef4:	010a5713          	srli	a4,s4,0x10
    6ef8:	0107d893          	srli	a7,a5,0x10
    6efc:	01ca7a33          	and	s4,s4,t3
    6f00:	01c7f7b3          	and	a5,a5,t3
    6f04:	03488833          	mul	a6,a7,s4
    6f08:	034786b3          	mul	a3,a5,s4
    6f0c:	02f70f33          	mul	t5,a4,a5
    6f10:	01e80333          	add	t1,a6,t5
    6f14:	0106d813          	srli	a6,a3,0x10
    6f18:	981a                	add	a6,a6,t1
    6f1a:	03170633          	mul	a2,a4,a7
    6f1e:	01e87363          	bgeu	a6,t5,6f24 <__muldf3+0x244>
    6f22:	9676                	add	a2,a2,t4
    6f24:	01085f93          	srli	t6,a6,0x10
    6f28:	01c87833          	and	a6,a6,t3
    6f2c:	01c6f6b3          	and	a3,a3,t3
    6f30:	01045e93          	srli	t4,s0,0x10
    6f34:	01c47e33          	and	t3,s0,t3
    6f38:	0842                	slli	a6,a6,0x10
    6f3a:	9836                	add	a6,a6,a3
    6f3c:	03c70f33          	mul	t5,a4,t3
    6f40:	03ca06b3          	mul	a3,s4,t3
    6f44:	034e8a33          	mul	s4,t4,s4
    6f48:	01ea0333          	add	t1,s4,t5
    6f4c:	0106da13          	srli	s4,a3,0x10
    6f50:	9a1a                	add	s4,s4,t1
    6f52:	03d70733          	mul	a4,a4,t4
    6f56:	01ea7463          	bgeu	s4,t5,6f5e <__muldf3+0x27e>
    6f5a:	6341                	lui	t1,0x10
    6f5c:	971a                	add	a4,a4,t1
    6f5e:	010a5313          	srli	t1,s4,0x10
    6f62:	933a                	add	t1,t1,a4
    6f64:	6741                	lui	a4,0x10
    6f66:	fff70f13          	addi	t5,a4,-1 # ffff <_global_impure_ptr+0x5a77>
    6f6a:	01ea7a33          	and	s4,s4,t5
    6f6e:	01e6f6b3          	and	a3,a3,t5
    6f72:	0109d413          	srli	s0,s3,0x10
    6f76:	0a42                	slli	s4,s4,0x10
    6f78:	01e9f9b3          	and	s3,s3,t5
    6f7c:	03378f33          	mul	t5,a5,s3
    6f80:	9a36                	add	s4,s4,a3
    6f82:	9fd2                	add	t6,t6,s4
    6f84:	033886b3          	mul	a3,a7,s3
    6f88:	02f407b3          	mul	a5,s0,a5
    6f8c:	028882b3          	mul	t0,a7,s0
    6f90:	00f688b3          	add	a7,a3,a5
    6f94:	010f5693          	srli	a3,t5,0x10
    6f98:	96c6                	add	a3,a3,a7
    6f9a:	00f6f363          	bgeu	a3,a5,6fa0 <__muldf3+0x2c0>
    6f9e:	92ba                	add	t0,t0,a4
    6fa0:	6741                	lui	a4,0x10
    6fa2:	fff70793          	addi	a5,a4,-1 # ffff <_global_impure_ptr+0x5a77>
    6fa6:	00ff7f33          	and	t5,t5,a5
    6faa:	0106d893          	srli	a7,a3,0x10
    6fae:	8efd                	and	a3,a3,a5
    6fb0:	03c987b3          	mul	a5,s3,t3
    6fb4:	06c2                	slli	a3,a3,0x10
    6fb6:	96fa                	add	a3,a3,t5
    6fb8:	9896                	add	a7,a7,t0
    6fba:	03c40e33          	mul	t3,s0,t3
    6fbe:	033e89b3          	mul	s3,t4,s3
    6fc2:	028e8f33          	mul	t5,t4,s0
    6fc6:	99f2                	add	s3,s3,t3
    6fc8:	0107d413          	srli	s0,a5,0x10
    6fcc:	99a2                	add	s3,s3,s0
    6fce:	01c9f363          	bgeu	s3,t3,6fd4 <__muldf3+0x2f4>
    6fd2:	9f3a                	add	t5,t5,a4
    6fd4:	6e41                	lui	t3,0x10
    6fd6:	1e7d                	addi	t3,t3,-1
    6fd8:	01c9f733          	and	a4,s3,t3
    6fdc:	01c7f7b3          	and	a5,a5,t3
    6fe0:	0742                	slli	a4,a4,0x10
    6fe2:	967e                	add	a2,a2,t6
    6fe4:	973e                	add	a4,a4,a5
    6fe6:	01463a33          	sltu	s4,a2,s4
    6fea:	971a                	add	a4,a4,t1
    6fec:	01470433          	add	s0,a4,s4
    6ff0:	9636                	add	a2,a2,a3
    6ff2:	00d636b3          	sltu	a3,a2,a3
    6ff6:	01140e33          	add	t3,s0,a7
    6ffa:	00de0eb3          	add	t4,t3,a3
    6ffe:	00673733          	sltu	a4,a4,t1
    7002:	01443433          	sltu	s0,s0,s4
    7006:	8c59                	or	s0,s0,a4
    7008:	00deb6b3          	sltu	a3,t4,a3
    700c:	0109d993          	srli	s3,s3,0x10
    7010:	011e38b3          	sltu	a7,t3,a7
    7014:	944e                	add	s0,s0,s3
    7016:	00d8e6b3          	or	a3,a7,a3
    701a:	9436                	add	s0,s0,a3
    701c:	947a                	add	s0,s0,t5
    701e:	017ed793          	srli	a5,t4,0x17
    7022:	0426                	slli	s0,s0,0x9
    7024:	8c5d                	or	s0,s0,a5
    7026:	00961793          	slli	a5,a2,0x9
    702a:	0107e7b3          	or	a5,a5,a6
    702e:	00f037b3          	snez	a5,a5
    7032:	825d                	srli	a2,a2,0x17
    7034:	01000737          	lui	a4,0x1000
    7038:	8fd1                	or	a5,a5,a2
    703a:	0ea6                	slli	t4,t4,0x9
    703c:	8f61                	and	a4,a4,s0
    703e:	01d7e7b3          	or	a5,a5,t4
    7042:	cb25                	beqz	a4,70b2 <__muldf3+0x3d2>
    7044:	0017d713          	srli	a4,a5,0x1
    7048:	8b85                	andi	a5,a5,1
    704a:	8fd9                	or	a5,a5,a4
    704c:	01f41713          	slli	a4,s0,0x1f
    7050:	8fd9                	or	a5,a5,a4
    7052:	8005                	srli	s0,s0,0x1
    7054:	3ff50813          	addi	a6,a0,1023
    7058:	0d005063          	blez	a6,7118 <__muldf3+0x438>
    705c:	0077f713          	andi	a4,a5,7
    7060:	c325                	beqz	a4,70c0 <__muldf3+0x3e0>
    7062:	4709                	li	a4,2
    7064:	0014e493          	ori	s1,s1,1
    7068:	04e90b63          	beq	s2,a4,70be <__muldf3+0x3de>
    706c:	470d                	li	a4,3
    706e:	04e90463          	beq	s2,a4,70b6 <__muldf3+0x3d6>
    7072:	04091763          	bnez	s2,70c0 <__muldf3+0x3e0>
    7076:	00f7f713          	andi	a4,a5,15
    707a:	4691                	li	a3,4
    707c:	04d70263          	beq	a4,a3,70c0 <__muldf3+0x3e0>
    7080:	00478713          	addi	a4,a5,4 # 800004 <_global_impure_ptr+0x7f5a7c>
    7084:	00f737b3          	sltu	a5,a4,a5
    7088:	943e                	add	s0,s0,a5
    708a:	87ba                	mv	a5,a4
    708c:	a815                	j	70c0 <__muldf3+0x3e0>
    708e:	85da                	mv	a1,s6
    7090:	844e                	mv	s0,s3
    7092:	87d2                	mv	a5,s4
    7094:	8762                	mv	a4,s8
    7096:	4689                	li	a3,2
    7098:	1cd70763          	beq	a4,a3,7266 <__muldf3+0x586>
    709c:	468d                	li	a3,3
    709e:	1cd70963          	beq	a4,a3,7270 <__muldf3+0x590>
    70a2:	4685                	li	a3,1
    70a4:	fad718e3          	bne	a4,a3,7054 <__muldf3+0x374>
    70a8:	4401                	li	s0,0
    70aa:	4781                	li	a5,0
    70ac:	a265                	j	7254 <__muldf3+0x574>
    70ae:	85d6                	mv	a1,s5
    70b0:	b7dd                	j	7096 <__muldf3+0x3b6>
    70b2:	855e                	mv	a0,s7
    70b4:	b745                	j	7054 <__muldf3+0x374>
    70b6:	e589                	bnez	a1,70c0 <__muldf3+0x3e0>
    70b8:	00878713          	addi	a4,a5,8
    70bc:	b7e1                	j	7084 <__muldf3+0x3a4>
    70be:	fded                	bnez	a1,70b8 <__muldf3+0x3d8>
    70c0:	01000737          	lui	a4,0x1000
    70c4:	8f61                	and	a4,a4,s0
    70c6:	c719                	beqz	a4,70d4 <__muldf3+0x3f4>
    70c8:	ff000737          	lui	a4,0xff000
    70cc:	177d                	addi	a4,a4,-1
    70ce:	8c79                	and	s0,s0,a4
    70d0:	40050813          	addi	a6,a0,1024
    70d4:	7fe00713          	li	a4,2046
    70d8:	01074a63          	blt	a4,a6,70ec <__muldf3+0x40c>
    70dc:	0037d713          	srli	a4,a5,0x3
    70e0:	01d41793          	slli	a5,s0,0x1d
    70e4:	8fd9                	or	a5,a5,a4
    70e6:	800d                	srli	s0,s0,0x3
    70e8:	8742                	mv	a4,a6
    70ea:	b3f1                	j	6eb6 <__muldf3+0x1d6>
    70ec:	4789                	li	a5,2
    70ee:	02f90363          	beq	s2,a5,7114 <__muldf3+0x434>
    70f2:	478d                	li	a5,3
    70f4:	00f90863          	beq	s2,a5,7104 <__muldf3+0x424>
    70f8:	00091763          	bnez	s2,7106 <__muldf3+0x426>
    70fc:	4781                	li	a5,0
    70fe:	7ff00713          	li	a4,2047
    7102:	a029                	j	710c <__muldf3+0x42c>
    7104:	dde5                	beqz	a1,70fc <__muldf3+0x41c>
    7106:	57fd                	li	a5,-1
    7108:	7fe00713          	li	a4,2046
    710c:	0054e493          	ori	s1,s1,5
    7110:	843e                	mv	s0,a5
    7112:	b355                	j	6eb6 <__muldf3+0x1d6>
    7114:	f5e5                	bnez	a1,70fc <__muldf3+0x41c>
    7116:	bfc5                	j	7106 <__muldf3+0x426>
    7118:	4705                	li	a4,1
    711a:	04081463          	bnez	a6,7162 <__muldf3+0x482>
    711e:	0077f693          	andi	a3,a5,7
    7122:	8722                	mv	a4,s0
    7124:	ca9d                	beqz	a3,715a <__muldf3+0x47a>
    7126:	4689                	li	a3,2
    7128:	0014e493          	ori	s1,s1,1
    712c:	02d90663          	beq	s2,a3,7158 <__muldf3+0x478>
    7130:	468d                	li	a3,3
    7132:	00d90f63          	beq	s2,a3,7150 <__muldf3+0x470>
    7136:	02091263          	bnez	s2,715a <__muldf3+0x47a>
    713a:	00f7f693          	andi	a3,a5,15
    713e:	4611                	li	a2,4
    7140:	00c68d63          	beq	a3,a2,715a <__muldf3+0x47a>
    7144:	ffc7b713          	sltiu	a4,a5,-4
    7148:	00174713          	xori	a4,a4,1
    714c:	9722                	add	a4,a4,s0
    714e:	a031                	j	715a <__muldf3+0x47a>
    7150:	e589                	bnez	a1,715a <__muldf3+0x47a>
    7152:	ff87b713          	sltiu	a4,a5,-8
    7156:	bfcd                	j	7148 <__muldf3+0x468>
    7158:	fded                	bnez	a1,7152 <__muldf3+0x472>
    715a:	8361                	srli	a4,a4,0x18
    715c:	00174713          	xori	a4,a4,1
    7160:	8b05                	andi	a4,a4,1
    7162:	4685                	li	a3,1
    7164:	410686b3          	sub	a3,a3,a6
    7168:	03800613          	li	a2,56
    716c:	0cd64263          	blt	a2,a3,7230 <__muldf3+0x550>
    7170:	467d                	li	a2,31
    7172:	04d64a63          	blt	a2,a3,71c6 <__muldf3+0x4e6>
    7176:	41e50513          	addi	a0,a0,1054
    717a:	00a41633          	sll	a2,s0,a0
    717e:	00d7d833          	srl	a6,a5,a3
    7182:	00a797b3          	sll	a5,a5,a0
    7186:	01066633          	or	a2,a2,a6
    718a:	00f037b3          	snez	a5,a5
    718e:	8fd1                	or	a5,a5,a2
    7190:	00d45433          	srl	s0,s0,a3
    7194:	0077f693          	andi	a3,a5,7
    7198:	c2ad                	beqz	a3,71fa <__muldf3+0x51a>
    719a:	4689                	li	a3,2
    719c:	0014e493          	ori	s1,s1,1
    71a0:	04d90c63          	beq	s2,a3,71f8 <__muldf3+0x518>
    71a4:	468d                	li	a3,3
    71a6:	04d90563          	beq	s2,a3,71f0 <__muldf3+0x510>
    71aa:	04091863          	bnez	s2,71fa <__muldf3+0x51a>
    71ae:	00f7f693          	andi	a3,a5,15
    71b2:	4611                	li	a2,4
    71b4:	04c68363          	beq	a3,a2,71fa <__muldf3+0x51a>
    71b8:	00478693          	addi	a3,a5,4
    71bc:	00f6b7b3          	sltu	a5,a3,a5
    71c0:	943e                	add	s0,s0,a5
    71c2:	87b6                	mv	a5,a3
    71c4:	a81d                	j	71fa <__muldf3+0x51a>
    71c6:	5605                	li	a2,-31
    71c8:	41060633          	sub	a2,a2,a6
    71cc:	02000893          	li	a7,32
    71d0:	00c45633          	srl	a2,s0,a2
    71d4:	4801                	li	a6,0
    71d6:	01168663          	beq	a3,a7,71e2 <__muldf3+0x502>
    71da:	43e50513          	addi	a0,a0,1086
    71de:	00a41833          	sll	a6,s0,a0
    71e2:	00f867b3          	or	a5,a6,a5
    71e6:	00f037b3          	snez	a5,a5
    71ea:	8fd1                	or	a5,a5,a2
    71ec:	4401                	li	s0,0
    71ee:	b75d                	j	7194 <__muldf3+0x4b4>
    71f0:	e589                	bnez	a1,71fa <__muldf3+0x51a>
    71f2:	00878693          	addi	a3,a5,8
    71f6:	b7d9                	j	71bc <__muldf3+0x4dc>
    71f8:	fded                	bnez	a1,71f2 <__muldf3+0x512>
    71fa:	008006b7          	lui	a3,0x800
    71fe:	8ee1                	and	a3,a3,s0
    7200:	ca81                	beqz	a3,7210 <__muldf3+0x530>
    7202:	0014e493          	ori	s1,s1,1
    7206:	4401                	li	s0,0
    7208:	4781                	li	a5,0
    720a:	e305                	bnez	a4,722a <__muldf3+0x54a>
    720c:	4705                	li	a4,1
    720e:	b165                	j	6eb6 <__muldf3+0x1d6>
    7210:	0037d693          	srli	a3,a5,0x3
    7214:	01d41793          	slli	a5,s0,0x1d
    7218:	8fd5                	or	a5,a5,a3
    721a:	800d                	srli	s0,s0,0x3
    721c:	c8070de3          	beqz	a4,6eb6 <__muldf3+0x1d6>
    7220:	0014f713          	andi	a4,s1,1
    7224:	c80709e3          	beqz	a4,6eb6 <__muldf3+0x1d6>
    7228:	4701                	li	a4,0
    722a:	0024e493          	ori	s1,s1,2
    722e:	b161                	j	6eb6 <__muldf3+0x1d6>
    7230:	8fc1                	or	a5,a5,s0
    7232:	cf91                	beqz	a5,724e <__muldf3+0x56e>
    7234:	4789                	li	a5,2
    7236:	0014e493          	ori	s1,s1,1
    723a:	02f90363          	beq	s2,a5,7260 <__muldf3+0x580>
    723e:	478d                	li	a5,3
    7240:	00f90c63          	beq	s2,a5,7258 <__muldf3+0x578>
    7244:	4785                	li	a5,1
    7246:	00091363          	bnez	s2,724c <__muldf3+0x56c>
    724a:	4795                	li	a5,5
    724c:	838d                	srli	a5,a5,0x3
    724e:	0024e493          	ori	s1,s1,2
    7252:	4401                	li	s0,0
    7254:	4701                	li	a4,0
    7256:	b185                	j	6eb6 <__muldf3+0x1d6>
    7258:	47a5                	li	a5,9
    725a:	d9ed                	beqz	a1,724c <__muldf3+0x56c>
    725c:	4785                	li	a5,1
    725e:	b7fd                	j	724c <__muldf3+0x56c>
    7260:	47a5                	li	a5,9
    7262:	f5ed                	bnez	a1,724c <__muldf3+0x56c>
    7264:	bfe5                	j	725c <__muldf3+0x57c>
    7266:	4401                	li	s0,0
    7268:	4781                	li	a5,0
    726a:	7ff00713          	li	a4,2047
    726e:	b1a1                	j	6eb6 <__muldf3+0x1d6>
    7270:	00080437          	lui	s0,0x80
    7274:	4781                	li	a5,0
    7276:	7ff00713          	li	a4,2047
    727a:	4581                	li	a1,0
    727c:	b92d                	j	6eb6 <__muldf3+0x1d6>

0000727e <__subdf3>:
    727e:	1101                	addi	sp,sp,-32
    7280:	ce06                	sw	ra,28(sp)
    7282:	cc22                	sw	s0,24(sp)
    7284:	ca26                	sw	s1,20(sp)
    7286:	c84a                	sw	s2,16(sp)
    7288:	c64e                	sw	s3,12(sp)
    728a:	c452                	sw	s4,8(sp)
    728c:	002029f3          	frrm	s3
    7290:	001008b7          	lui	a7,0x100
    7294:	18fd                	addi	a7,a7,-1
    7296:	00b8f733          	and	a4,a7,a1
    729a:	0145d413          	srli	s0,a1,0x14
    729e:	00d8f8b3          	and	a7,a7,a3
    72a2:	01f5d493          	srli	s1,a1,0x1f
    72a6:	0146d593          	srli	a1,a3,0x14
    72aa:	00371793          	slli	a5,a4,0x3
    72ae:	01f6d313          	srli	t1,a3,0x1f
    72b2:	01d55713          	srli	a4,a0,0x1d
    72b6:	01d65693          	srli	a3,a2,0x1d
    72ba:	088e                	slli	a7,a7,0x3
    72bc:	00361813          	slli	a6,a2,0x3
    72c0:	7ff5f593          	andi	a1,a1,2047
    72c4:	7ff00613          	li	a2,2047
    72c8:	8f5d                	or	a4,a4,a5
    72ca:	7ff47413          	andi	s0,s0,2047
    72ce:	00351793          	slli	a5,a0,0x3
    72d2:	0116e6b3          	or	a3,a3,a7
    72d6:	00c59563          	bne	a1,a2,72e0 <__subdf3+0x62>
    72da:	0106e633          	or	a2,a3,a6
    72de:	e219                	bnez	a2,72e4 <__subdf3+0x66>
    72e0:	00134313          	xori	t1,t1,1
    72e4:	40b40633          	sub	a2,s0,a1
    72e8:	3c931c63          	bne	t1,s1,76c0 <__subdf3+0x442>
    72ec:	12c05163          	blez	a2,740e <__subdf3+0x190>
    72f0:	04059a63          	bnez	a1,7344 <__subdf3+0xc6>
    72f4:	0106e533          	or	a0,a3,a6
    72f8:	e10d                	bnez	a0,731a <__subdf3+0x9c>
    72fa:	7ff00693          	li	a3,2047
    72fe:	4401                	li	s0,0
    7300:	24d61363          	bne	a2,a3,7546 <__subdf3+0x2c8>
    7304:	00f766b3          	or	a3,a4,a5
    7308:	7a068763          	beqz	a3,7ab6 <__subdf3+0x838>
    730c:	00400437          	lui	s0,0x400
    7310:	8c79                	and	s0,s0,a4
    7312:	00143413          	seqz	s0,s0
    7316:	0412                	slli	s0,s0,0x4
    7318:	a43d                	j	7546 <__subdf3+0x2c8>
    731a:	fff60513          	addi	a0,a2,-1
    731e:	e901                	bnez	a0,732e <__subdf3+0xb0>
    7320:	983e                	add	a6,a6,a5
    7322:	96ba                	add	a3,a3,a4
    7324:	00f837b3          	sltu	a5,a6,a5
    7328:	96be                	add	a3,a3,a5
    732a:	4605                	li	a2,1
    732c:	a041                	j	73ac <__subdf3+0x12e>
    732e:	7ff00893          	li	a7,2047
    7332:	03161f63          	bne	a2,a7,7370 <__subdf3+0xf2>
    7336:	00f766b3          	or	a3,a4,a5
    733a:	fae9                	bnez	a3,730c <__subdf3+0x8e>
    733c:	4701                	li	a4,0
    733e:	4781                	li	a5,0
    7340:	4401                	li	s0,0
    7342:	ac9d                	j	75b8 <__subdf3+0x33a>
    7344:	7ff00593          	li	a1,2047
    7348:	02b41063          	bne	s0,a1,7368 <__subdf3+0xea>
    734c:	00f766b3          	or	a3,a4,a5
    7350:	76068663          	beqz	a3,7abc <__subdf3+0x83e>
    7354:	004006b7          	lui	a3,0x400
    7358:	8ef9                	and	a3,a3,a4
    735a:	7ff00613          	li	a2,2047
    735e:	4581                	li	a1,0
    7360:	2e069263          	bnez	a3,7644 <__subdf3+0x3c6>
    7364:	4441                	li	s0,16
    7366:	a2c5                	j	7546 <__subdf3+0x2c8>
    7368:	008005b7          	lui	a1,0x800
    736c:	8ecd                	or	a3,a3,a1
    736e:	8532                	mv	a0,a2
    7370:	03800613          	li	a2,56
    7374:	08a64863          	blt	a2,a0,7404 <__subdf3+0x186>
    7378:	467d                	li	a2,31
    737a:	04a64f63          	blt	a2,a0,73d8 <__subdf3+0x15a>
    737e:	02000613          	li	a2,32
    7382:	8e09                	sub	a2,a2,a0
    7384:	00c695b3          	sll	a1,a3,a2
    7388:	00a858b3          	srl	a7,a6,a0
    738c:	00c81833          	sll	a6,a6,a2
    7390:	0115e5b3          	or	a1,a1,a7
    7394:	01003833          	snez	a6,a6
    7398:	0105e833          	or	a6,a1,a6
    739c:	00a6d6b3          	srl	a3,a3,a0
    73a0:	983e                	add	a6,a6,a5
    73a2:	96ba                	add	a3,a3,a4
    73a4:	00f837b3          	sltu	a5,a6,a5
    73a8:	96be                	add	a3,a3,a5
    73aa:	8622                	mv	a2,s0
    73ac:	008007b7          	lui	a5,0x800
    73b0:	8ff5                	and	a5,a5,a3
    73b2:	cbad                	beqz	a5,7424 <__subdf3+0x1a6>
    73b4:	0605                	addi	a2,a2,1
    73b6:	7ff00793          	li	a5,2047
    73ba:	2ef60263          	beq	a2,a5,769e <__subdf3+0x420>
    73be:	ff800737          	lui	a4,0xff800
    73c2:	177d                	addi	a4,a4,-1
    73c4:	00185793          	srli	a5,a6,0x1
    73c8:	8f75                	and	a4,a4,a3
    73ca:	00187813          	andi	a6,a6,1
    73ce:	0107e833          	or	a6,a5,a6
    73d2:	01f71793          	slli	a5,a4,0x1f
    73d6:	a49d                	j	763c <__subdf3+0x3be>
    73d8:	fe050593          	addi	a1,a0,-32
    73dc:	02000893          	li	a7,32
    73e0:	00b6d5b3          	srl	a1,a3,a1
    73e4:	4601                	li	a2,0
    73e6:	01150763          	beq	a0,a7,73f4 <__subdf3+0x176>
    73ea:	04000613          	li	a2,64
    73ee:	8e09                	sub	a2,a2,a0
    73f0:	00c69633          	sll	a2,a3,a2
    73f4:	01066833          	or	a6,a2,a6
    73f8:	01003833          	snez	a6,a6
    73fc:	0105e833          	or	a6,a1,a6
    7400:	4681                	li	a3,0
    7402:	bf79                	j	73a0 <__subdf3+0x122>
    7404:	0106e833          	or	a6,a3,a6
    7408:	01003833          	snez	a6,a6
    740c:	bfd5                	j	7400 <__subdf3+0x182>
    740e:	ce65                	beqz	a2,7506 <__subdf3+0x288>
    7410:	40858633          	sub	a2,a1,s0
    7414:	e829                	bnez	s0,7466 <__subdf3+0x1e8>
    7416:	00f76533          	or	a0,a4,a5
    741a:	e911                	bnez	a0,742e <__subdf3+0x1b0>
    741c:	7ff00793          	li	a5,2047
    7420:	02f60663          	beq	a2,a5,744c <__subdf3+0x1ce>
    7424:	8736                	mv	a4,a3
    7426:	87c2                	mv	a5,a6
    7428:	48060563          	beqz	a2,78b2 <__subdf3+0x634>
    742c:	ac19                	j	7642 <__subdf3+0x3c4>
    742e:	fff60893          	addi	a7,a2,-1
    7432:	00089963          	bnez	a7,7444 <__subdf3+0x1c6>
    7436:	97c2                	add	a5,a5,a6
    7438:	0107b833          	sltu	a6,a5,a6
    743c:	96ba                	add	a3,a3,a4
    743e:	96c2                	add	a3,a3,a6
    7440:	883e                	mv	a6,a5
    7442:	b5e5                	j	732a <__subdf3+0xac>
    7444:	7ff00513          	li	a0,2047
    7448:	04a61663          	bne	a2,a0,7494 <__subdf3+0x216>
    744c:	0106e7b3          	or	a5,a3,a6
    7450:	4701                	li	a4,0
    7452:	16078363          	beqz	a5,75b8 <__subdf3+0x33a>
    7456:	004007b7          	lui	a5,0x400
    745a:	8ff5                	and	a5,a5,a3
    745c:	8736                	mv	a4,a3
    745e:	66079263          	bnez	a5,7ac2 <__subdf3+0x844>
    7462:	87c2                	mv	a5,a6
    7464:	a015                	j	7488 <__subdf3+0x20a>
    7466:	7ff00513          	li	a0,2047
    746a:	02a59163          	bne	a1,a0,748c <__subdf3+0x20e>
    746e:	0106e7b3          	or	a5,a3,a6
    7472:	62078463          	beqz	a5,7a9a <__subdf3+0x81c>
    7476:	004007b7          	lui	a5,0x400
    747a:	8ff5                	and	a5,a5,a3
    747c:	8736                	mv	a4,a3
    747e:	62079263          	bnez	a5,7aa2 <__subdf3+0x824>
    7482:	87c2                	mv	a5,a6
    7484:	7ff00613          	li	a2,2047
    7488:	4581                	li	a1,0
    748a:	bde9                	j	7364 <__subdf3+0xe6>
    748c:	00800537          	lui	a0,0x800
    7490:	8f49                	or	a4,a4,a0
    7492:	88b2                	mv	a7,a2
    7494:	03800613          	li	a2,56
    7498:	07164363          	blt	a2,a7,74fe <__subdf3+0x280>
    749c:	467d                	li	a2,31
    749e:	03164b63          	blt	a2,a7,74d4 <__subdf3+0x256>
    74a2:	02000513          	li	a0,32
    74a6:	41150533          	sub	a0,a0,a7
    74aa:	00a71633          	sll	a2,a4,a0
    74ae:	0117d333          	srl	t1,a5,a7
    74b2:	00a797b3          	sll	a5,a5,a0
    74b6:	00666633          	or	a2,a2,t1
    74ba:	00f037b3          	snez	a5,a5
    74be:	8fd1                	or	a5,a5,a2
    74c0:	01175733          	srl	a4,a4,a7
    74c4:	97c2                	add	a5,a5,a6
    74c6:	9736                	add	a4,a4,a3
    74c8:	0107b6b3          	sltu	a3,a5,a6
    74cc:	96ba                	add	a3,a3,a4
    74ce:	883e                	mv	a6,a5
    74d0:	862e                	mv	a2,a1
    74d2:	bde9                	j	73ac <__subdf3+0x12e>
    74d4:	fe088613          	addi	a2,a7,-32 # fffe0 <_global_impure_ptr+0xf5a58>
    74d8:	02000313          	li	t1,32
    74dc:	00c75633          	srl	a2,a4,a2
    74e0:	4501                	li	a0,0
    74e2:	00688863          	beq	a7,t1,74f2 <__subdf3+0x274>
    74e6:	04000513          	li	a0,64
    74ea:	41150533          	sub	a0,a0,a7
    74ee:	00a71533          	sll	a0,a4,a0
    74f2:	8fc9                	or	a5,a5,a0
    74f4:	00f037b3          	snez	a5,a5
    74f8:	8fd1                	or	a5,a5,a2
    74fa:	4701                	li	a4,0
    74fc:	b7e1                	j	74c4 <__subdf3+0x246>
    74fe:	8fd9                	or	a5,a5,a4
    7500:	00f037b3          	snez	a5,a5
    7504:	bfdd                	j	74fa <__subdf3+0x27c>
    7506:	00140613          	addi	a2,s0,1 # 400001 <_global_impure_ptr+0x3f5a79>
    750a:	7fe67513          	andi	a0,a2,2046
    750e:	10051a63          	bnez	a0,7622 <__subdf3+0x3a4>
    7512:	00f76633          	or	a2,a4,a5
    7516:	e421                	bnez	s0,755e <__subdf3+0x2e0>
    7518:	54060463          	beqz	a2,7a60 <__subdf3+0x7e2>
    751c:	0106e633          	or	a2,a3,a6
    7520:	38060963          	beqz	a2,78b2 <__subdf3+0x634>
    7524:	983e                	add	a6,a6,a5
    7526:	00f837b3          	sltu	a5,a6,a5
    752a:	9736                	add	a4,a4,a3
    752c:	973e                	add	a4,a4,a5
    752e:	008007b7          	lui	a5,0x800
    7532:	8ff9                	and	a5,a5,a4
    7534:	52078763          	beqz	a5,7a62 <__subdf3+0x7e4>
    7538:	ff8007b7          	lui	a5,0xff800
    753c:	17fd                	addi	a5,a5,-1
    753e:	8f7d                	and	a4,a4,a5
    7540:	4581                	li	a1,0
    7542:	87c2                	mv	a5,a6
    7544:	4605                	li	a2,1
    7546:	0077f693          	andi	a3,a5,7
    754a:	12069463          	bnez	a3,7672 <__subdf3+0x3f4>
    754e:	06058563          	beqz	a1,75b8 <__subdf3+0x33a>
    7552:	00147693          	andi	a3,s0,1
    7556:	c2ad                	beqz	a3,75b8 <__subdf3+0x33a>
    7558:	00246413          	ori	s0,s0,2
    755c:	a8b1                	j	75b8 <__subdf3+0x33a>
    755e:	7ff00513          	li	a0,2047
    7562:	02a41563          	bne	s0,a0,758c <__subdf3+0x30e>
    7566:	5c060e63          	beqz	a2,7b42 <__subdf3+0x8c4>
    756a:	00400437          	lui	s0,0x400
    756e:	8c79                	and	s0,s0,a4
    7570:	00143413          	seqz	s0,s0
    7574:	0412                	slli	s0,s0,0x4
    7576:	02a59863          	bne	a1,a0,75a6 <__subdf3+0x328>
    757a:	0106e5b3          	or	a1,a3,a6
    757e:	c991                	beqz	a1,7592 <__subdf3+0x314>
    7580:	004005b7          	lui	a1,0x400
    7584:	8df5                	and	a1,a1,a3
    7586:	e591                	bnez	a1,7592 <__subdf3+0x314>
    7588:	4441                	li	s0,16
    758a:	a021                	j	7592 <__subdf3+0x314>
    758c:	4401                	li	s0,0
    758e:	fea586e3          	beq	a1,a0,757a <__subdf3+0x2fc>
    7592:	00061a63          	bnez	a2,75a6 <__subdf3+0x328>
    7596:	8736                	mv	a4,a3
    7598:	87c2                	mv	a5,a6
    759a:	4581                	li	a1,0
    759c:	7ff00613          	li	a2,2047
    75a0:	b75d                	j	7546 <__subdf3+0x2c8>
    75a2:	4401                	li	s0,0
    75a4:	bfd9                	j	757a <__subdf3+0x2fc>
    75a6:	0106e6b3          	or	a3,a3,a6
    75aa:	dae5                	beqz	a3,759a <__subdf3+0x31c>
    75ac:	4481                	li	s1,0
    75ae:	00400737          	lui	a4,0x400
    75b2:	4781                	li	a5,0
    75b4:	7ff00613          	li	a2,2047
    75b8:	008006b7          	lui	a3,0x800
    75bc:	8ef9                	and	a3,a3,a4
    75be:	ca91                	beqz	a3,75d2 <__subdf3+0x354>
    75c0:	0605                	addi	a2,a2,1
    75c2:	7ff00693          	li	a3,2047
    75c6:	54d60563          	beq	a2,a3,7b10 <__subdf3+0x892>
    75ca:	ff8006b7          	lui	a3,0xff800
    75ce:	16fd                	addi	a3,a3,-1
    75d0:	8f75                	and	a4,a4,a3
    75d2:	0037d513          	srli	a0,a5,0x3
    75d6:	7ff00693          	li	a3,2047
    75da:	01d71793          	slli	a5,a4,0x1d
    75de:	8fc9                	or	a5,a5,a0
    75e0:	830d                	srli	a4,a4,0x3
    75e2:	00d61963          	bne	a2,a3,75f4 <__subdf3+0x376>
    75e6:	8fd9                	or	a5,a5,a4
    75e8:	4701                	li	a4,0
    75ea:	c789                	beqz	a5,75f4 <__subdf3+0x376>
    75ec:	00080737          	lui	a4,0x80
    75f0:	4781                	li	a5,0
    75f2:	4481                	li	s1,0
    75f4:	7ff006b7          	lui	a3,0x7ff00
    75f8:	0652                	slli	a2,a2,0x14
    75fa:	0732                	slli	a4,a4,0xc
    75fc:	8e75                	and	a2,a2,a3
    75fe:	8331                	srli	a4,a4,0xc
    7600:	8f51                	or	a4,a4,a2
    7602:	04fe                	slli	s1,s1,0x1f
    7604:	009766b3          	or	a3,a4,s1
    7608:	853e                	mv	a0,a5
    760a:	85b6                	mv	a1,a3
    760c:	c019                	beqz	s0,7612 <__subdf3+0x394>
    760e:	00142073          	csrs	fflags,s0
    7612:	40f2                	lw	ra,28(sp)
    7614:	4462                	lw	s0,24(sp)
    7616:	44d2                	lw	s1,20(sp)
    7618:	4942                	lw	s2,16(sp)
    761a:	49b2                	lw	s3,12(sp)
    761c:	4a22                	lw	s4,8(sp)
    761e:	6105                	addi	sp,sp,32
    7620:	8082                	ret
    7622:	7ff00593          	li	a1,2047
    7626:	02b60163          	beq	a2,a1,7648 <__subdf3+0x3ca>
    762a:	983e                	add	a6,a6,a5
    762c:	00f837b3          	sltu	a5,a6,a5
    7630:	9736                	add	a4,a4,a3
    7632:	973e                	add	a4,a4,a5
    7634:	01f71793          	slli	a5,a4,0x1f
    7638:	00185813          	srli	a6,a6,0x1
    763c:	0107e7b3          	or	a5,a5,a6
    7640:	8305                	srli	a4,a4,0x1
    7642:	4581                	li	a1,0
    7644:	4401                	li	s0,0
    7646:	b701                	j	7546 <__subdf3+0x2c8>
    7648:	00098763          	beqz	s3,7656 <__subdf3+0x3d8>
    764c:	478d                	li	a5,3
    764e:	00f99763          	bne	s3,a5,765c <__subdf3+0x3de>
    7652:	00049a63          	bnez	s1,7666 <__subdf3+0x3e8>
    7656:	7ff00613          	li	a2,2047
    765a:	a889                	j	76ac <__subdf3+0x42e>
    765c:	4789                	li	a5,2
    765e:	00f99463          	bne	s3,a5,7666 <__subdf3+0x3e8>
    7662:	fe049ae3          	bnez	s1,7656 <__subdf3+0x3d8>
    7666:	4581                	li	a1,0
    7668:	577d                	li	a4,-1
    766a:	57fd                	li	a5,-1
    766c:	7fe00613          	li	a2,2046
    7670:	4415                	li	s0,5
    7672:	4689                	li	a3,2
    7674:	00146413          	ori	s0,s0,1
    7678:	48d98863          	beq	s3,a3,7b08 <__subdf3+0x88a>
    767c:	468d                	li	a3,3
    767e:	48d98163          	beq	s3,a3,7b00 <__subdf3+0x882>
    7682:	48099463          	bnez	s3,7b0a <__subdf3+0x88c>
    7686:	00f7f693          	andi	a3,a5,15
    768a:	4511                	li	a0,4
    768c:	46a68f63          	beq	a3,a0,7b0a <__subdf3+0x88c>
    7690:	00478693          	addi	a3,a5,4 # ff800004 <__kernel_stack+0xdf74000c>
    7694:	00f6b7b3          	sltu	a5,a3,a5
    7698:	973e                	add	a4,a4,a5
    769a:	87b6                	mv	a5,a3
    769c:	a1bd                	j	7b0a <__subdf3+0x88c>
    769e:	00098763          	beqz	s3,76ac <__subdf3+0x42e>
    76a2:	478d                	li	a5,3
    76a4:	00f99863          	bne	s3,a5,76b4 <__subdf3+0x436>
    76a8:	40049163          	bnez	s1,7aaa <__subdf3+0x82c>
    76ac:	4701                	li	a4,0
    76ae:	4781                	li	a5,0
    76b0:	4415                	li	s0,5
    76b2:	b719                	j	75b8 <__subdf3+0x33a>
    76b4:	4789                	li	a5,2
    76b6:	3ef99a63          	bne	s3,a5,7aaa <__subdf3+0x82c>
    76ba:	fe0499e3          	bnez	s1,76ac <__subdf3+0x42e>
    76be:	b765                	j	7666 <__subdf3+0x3e8>
    76c0:	0cc05863          	blez	a2,7790 <__subdf3+0x512>
    76c4:	08059263          	bnez	a1,7748 <__subdf3+0x4ca>
    76c8:	0106e533          	or	a0,a3,a6
    76cc:	c20507e3          	beqz	a0,72fa <__subdf3+0x7c>
    76d0:	fff60513          	addi	a0,a2,-1
    76d4:	e911                	bnez	a0,76e8 <__subdf3+0x46a>
    76d6:	41078833          	sub	a6,a5,a6
    76da:	40d706b3          	sub	a3,a4,a3
    76de:	0107b7b3          	sltu	a5,a5,a6
    76e2:	8e9d                	sub	a3,a3,a5
    76e4:	4605                	li	a2,1
    76e6:	a0a9                	j	7730 <__subdf3+0x4b2>
    76e8:	7ff00893          	li	a7,2047
    76ec:	c51605e3          	beq	a2,a7,7336 <__subdf3+0xb8>
    76f0:	03800613          	li	a2,56
    76f4:	08a64963          	blt	a2,a0,7786 <__subdf3+0x508>
    76f8:	467d                	li	a2,31
    76fa:	06a64063          	blt	a2,a0,775a <__subdf3+0x4dc>
    76fe:	02000613          	li	a2,32
    7702:	8e09                	sub	a2,a2,a0
    7704:	00c695b3          	sll	a1,a3,a2
    7708:	00a858b3          	srl	a7,a6,a0
    770c:	00c81833          	sll	a6,a6,a2
    7710:	0115e5b3          	or	a1,a1,a7
    7714:	01003833          	snez	a6,a6
    7718:	0105e833          	or	a6,a1,a6
    771c:	00a6d6b3          	srl	a3,a3,a0
    7720:	41078833          	sub	a6,a5,a6
    7724:	40d706b3          	sub	a3,a4,a3
    7728:	0107b7b3          	sltu	a5,a5,a6
    772c:	8e9d                	sub	a3,a3,a5
    772e:	8622                	mv	a2,s0
    7730:	00800937          	lui	s2,0x800
    7734:	0126f7b3          	and	a5,a3,s2
    7738:	ce0786e3          	beqz	a5,7424 <__subdf3+0x1a6>
    773c:	197d                	addi	s2,s2,-1
    773e:	0126f933          	and	s2,a3,s2
    7742:	8a42                	mv	s4,a6
    7744:	8432                	mv	s0,a2
    7746:	ac8d                	j	79b8 <__subdf3+0x73a>
    7748:	7ff00593          	li	a1,2047
    774c:	c0b400e3          	beq	s0,a1,734c <__subdf3+0xce>
    7750:	008005b7          	lui	a1,0x800
    7754:	8ecd                	or	a3,a3,a1
    7756:	8532                	mv	a0,a2
    7758:	bf61                	j	76f0 <__subdf3+0x472>
    775a:	fe050593          	addi	a1,a0,-32 # 7fffe0 <_global_impure_ptr+0x7f5a58>
    775e:	02000893          	li	a7,32
    7762:	00b6d5b3          	srl	a1,a3,a1
    7766:	4601                	li	a2,0
    7768:	01150763          	beq	a0,a7,7776 <__subdf3+0x4f8>
    776c:	04000613          	li	a2,64
    7770:	8e09                	sub	a2,a2,a0
    7772:	00c69633          	sll	a2,a3,a2
    7776:	01066833          	or	a6,a2,a6
    777a:	01003833          	snez	a6,a6
    777e:	0105e833          	or	a6,a1,a6
    7782:	4681                	li	a3,0
    7784:	bf71                	j	7720 <__subdf3+0x4a2>
    7786:	0106e833          	or	a6,a3,a6
    778a:	01003833          	snez	a6,a6
    778e:	bfd5                	j	7782 <__subdf3+0x504>
    7790:	ce6d                	beqz	a2,788a <__subdf3+0x60c>
    7792:	40858633          	sub	a2,a1,s0
    7796:	e439                	bnez	s0,77e4 <__subdf3+0x566>
    7798:	00f76533          	or	a0,a4,a5
    779c:	e509                	bnez	a0,77a6 <__subdf3+0x528>
    779e:	7ff00793          	li	a5,2047
    77a2:	849a                	mv	s1,t1
    77a4:	b9b5                	j	7420 <__subdf3+0x1a2>
    77a6:	fff60893          	addi	a7,a2,-1
    77aa:	00089c63          	bnez	a7,77c2 <__subdf3+0x544>
    77ae:	40f807b3          	sub	a5,a6,a5
    77b2:	00f83833          	sltu	a6,a6,a5
    77b6:	8e99                	sub	a3,a3,a4
    77b8:	410686b3          	sub	a3,a3,a6
    77bc:	849a                	mv	s1,t1
    77be:	883e                	mv	a6,a5
    77c0:	b715                	j	76e4 <__subdf3+0x466>
    77c2:	7ff00513          	li	a0,2047
    77c6:	04a61563          	bne	a2,a0,7810 <__subdf3+0x592>
    77ca:	0106e7b3          	or	a5,a3,a6
    77ce:	2e078d63          	beqz	a5,7ac8 <__subdf3+0x84a>
    77d2:	004007b7          	lui	a5,0x400
    77d6:	8ff5                	and	a5,a5,a3
    77d8:	8736                	mv	a4,a3
    77da:	2e079a63          	bnez	a5,7ace <__subdf3+0x850>
    77de:	87c2                	mv	a5,a6
    77e0:	849a                	mv	s1,t1
    77e2:	b15d                	j	7488 <__subdf3+0x20a>
    77e4:	7ff00513          	li	a0,2047
    77e8:	02a59063          	bne	a1,a0,7808 <__subdf3+0x58a>
    77ec:	0106e7b3          	or	a5,a3,a6
    77f0:	2e078263          	beqz	a5,7ad4 <__subdf3+0x856>
    77f4:	004007b7          	lui	a5,0x400
    77f8:	8ff5                	and	a5,a5,a3
    77fa:	8736                	mv	a4,a3
    77fc:	2e079163          	bnez	a5,7ade <__subdf3+0x860>
    7800:	87c2                	mv	a5,a6
    7802:	7ff00613          	li	a2,2047
    7806:	bfe9                	j	77e0 <__subdf3+0x562>
    7808:	00800537          	lui	a0,0x800
    780c:	8f49                	or	a4,a4,a0
    780e:	88b2                	mv	a7,a2
    7810:	03800613          	li	a2,56
    7814:	07164763          	blt	a2,a7,7882 <__subdf3+0x604>
    7818:	467d                	li	a2,31
    781a:	03164f63          	blt	a2,a7,7858 <__subdf3+0x5da>
    781e:	02000513          	li	a0,32
    7822:	41150533          	sub	a0,a0,a7
    7826:	00a71633          	sll	a2,a4,a0
    782a:	0117de33          	srl	t3,a5,a7
    782e:	00a797b3          	sll	a5,a5,a0
    7832:	01c66633          	or	a2,a2,t3
    7836:	00f037b3          	snez	a5,a5
    783a:	8fd1                	or	a5,a5,a2
    783c:	01175733          	srl	a4,a4,a7
    7840:	40f807b3          	sub	a5,a6,a5
    7844:	40e68733          	sub	a4,a3,a4
    7848:	00f836b3          	sltu	a3,a6,a5
    784c:	40d706b3          	sub	a3,a4,a3
    7850:	883e                	mv	a6,a5
    7852:	862e                	mv	a2,a1
    7854:	849a                	mv	s1,t1
    7856:	bde9                	j	7730 <__subdf3+0x4b2>
    7858:	fe088613          	addi	a2,a7,-32
    785c:	02000e13          	li	t3,32
    7860:	00c75633          	srl	a2,a4,a2
    7864:	4501                	li	a0,0
    7866:	01c88863          	beq	a7,t3,7876 <__subdf3+0x5f8>
    786a:	04000513          	li	a0,64
    786e:	41150533          	sub	a0,a0,a7
    7872:	00a71533          	sll	a0,a4,a0
    7876:	8fc9                	or	a5,a5,a0
    7878:	00f037b3          	snez	a5,a5
    787c:	8fd1                	or	a5,a5,a2
    787e:	4701                	li	a4,0
    7880:	b7c1                	j	7840 <__subdf3+0x5c2>
    7882:	8fd9                	or	a5,a5,a4
    7884:	00f037b3          	snez	a5,a5
    7888:	bfdd                	j	787e <__subdf3+0x600>
    788a:	00140613          	addi	a2,s0,1 # 400001 <_global_impure_ptr+0x3f5a79>
    788e:	7fe67613          	andi	a2,a2,2046
    7892:	ee75                	bnez	a2,798e <__subdf3+0x710>
    7894:	00f76533          	or	a0,a4,a5
    7898:	0106e633          	or	a2,a3,a6
    789c:	e05d                	bnez	s0,7942 <__subdf3+0x6c4>
    789e:	06051263          	bnez	a0,7902 <__subdf3+0x684>
    78a2:	1c061263          	bnez	a2,7a66 <__subdf3+0x7e8>
    78a6:	ffe98493          	addi	s1,s3,-2
    78aa:	0014b493          	seqz	s1,s1
    78ae:	4701                	li	a4,0
    78b0:	4781                	li	a5,0
    78b2:	00e7e6b3          	or	a3,a5,a4
    78b6:	24068163          	beqz	a3,7af8 <__subdf3+0x87a>
    78ba:	01f7d693          	srli	a3,a5,0x1f
    78be:	00171593          	slli	a1,a4,0x1
    78c2:	95b6                	add	a1,a1,a3
    78c4:	00179693          	slli	a3,a5,0x1
    78c8:	0076f613          	andi	a2,a3,7
    78cc:	4401                	li	s0,0
    78ce:	c605                	beqz	a2,78f6 <__subdf3+0x678>
    78d0:	4609                	li	a2,2
    78d2:	1ac98a63          	beq	s3,a2,7a86 <__subdf3+0x808>
    78d6:	460d                	li	a2,3
    78d8:	18c98d63          	beq	s3,a2,7a72 <__subdf3+0x7f4>
    78dc:	4405                	li	s0,1
    78de:	00099c63          	bnez	s3,78f6 <__subdf3+0x678>
    78e2:	00f6f613          	andi	a2,a3,15
    78e6:	4511                	li	a0,4
    78e8:	00a60763          	beq	a2,a0,78f6 <__subdf3+0x678>
    78ec:	ffc6b693          	sltiu	a3,a3,-4
    78f0:	0016c693          	xori	a3,a3,1
    78f4:	95b6                	add	a1,a1,a3
    78f6:	81e1                	srli	a1,a1,0x18
    78f8:	0015c593          	xori	a1,a1,1
    78fc:	8985                	andi	a1,a1,1
    78fe:	4601                	li	a2,0
    7900:	b199                	j	7546 <__subdf3+0x2c8>
    7902:	da45                	beqz	a2,78b2 <__subdf3+0x634>
    7904:	410785b3          	sub	a1,a5,a6
    7908:	00b7b533          	sltu	a0,a5,a1
    790c:	40d70633          	sub	a2,a4,a3
    7910:	8e09                	sub	a2,a2,a0
    7912:	00800537          	lui	a0,0x800
    7916:	8d71                	and	a0,a0,a2
    7918:	c919                	beqz	a0,792e <__subdf3+0x6b0>
    791a:	40f807b3          	sub	a5,a6,a5
    791e:	40e68733          	sub	a4,a3,a4
    7922:	00f83833          	sltu	a6,a6,a5
    7926:	41070733          	sub	a4,a4,a6
    792a:	849a                	mv	s1,t1
    792c:	b759                	j	78b2 <__subdf3+0x634>
    792e:	00c5e7b3          	or	a5,a1,a2
    7932:	12079d63          	bnez	a5,7a6c <__subdf3+0x7ee>
    7936:	ffe98493          	addi	s1,s3,-2
    793a:	0014b493          	seqz	s1,s1
    793e:	4701                	li	a4,0
    7940:	bf8d                	j	78b2 <__subdf3+0x634>
    7942:	7ff00893          	li	a7,2047
    7946:	03141463          	bne	s0,a7,796e <__subdf3+0x6f0>
    794a:	1e050863          	beqz	a0,7b3a <__subdf3+0x8bc>
    794e:	00400437          	lui	s0,0x400
    7952:	8c79                	and	s0,s0,a4
    7954:	00143413          	seqz	s0,s0
    7958:	0412                	slli	s0,s0,0x4
    795a:	03159763          	bne	a1,a7,7988 <__subdf3+0x70a>
    795e:	00060b63          	beqz	a2,7974 <__subdf3+0x6f6>
    7962:	004005b7          	lui	a1,0x400
    7966:	8df5                	and	a1,a1,a3
    7968:	e591                	bnez	a1,7974 <__subdf3+0x6f6>
    796a:	4441                	li	s0,16
    796c:	a021                	j	7974 <__subdf3+0x6f6>
    796e:	4401                	li	s0,0
    7970:	ff1587e3          	beq	a1,a7,795e <__subdf3+0x6e0>
    7974:	00051a63          	bnez	a0,7988 <__subdf3+0x70a>
    7978:	16060863          	beqz	a2,7ae8 <__subdf3+0x86a>
    797c:	8736                	mv	a4,a3
    797e:	87c2                	mv	a5,a6
    7980:	849a                	mv	s1,t1
    7982:	b921                	j	759a <__subdf3+0x31c>
    7984:	4401                	li	s0,0
    7986:	bfe1                	j	795e <__subdf3+0x6e0>
    7988:	c00609e3          	beqz	a2,759a <__subdf3+0x31c>
    798c:	b105                	j	75ac <__subdf3+0x32e>
    798e:	41078a33          	sub	s4,a5,a6
    7992:	0147b633          	sltu	a2,a5,s4
    7996:	40d70933          	sub	s2,a4,a3
    799a:	40c90933          	sub	s2,s2,a2
    799e:	00800637          	lui	a2,0x800
    79a2:	00c97633          	and	a2,s2,a2
    79a6:	c625                	beqz	a2,7a0e <__subdf3+0x790>
    79a8:	40f80a33          	sub	s4,a6,a5
    79ac:	8e99                	sub	a3,a3,a4
    79ae:	01483833          	sltu	a6,a6,s4
    79b2:	41068933          	sub	s2,a3,a6
    79b6:	849a                	mv	s1,t1
    79b8:	04090f63          	beqz	s2,7a16 <__subdf3+0x798>
    79bc:	854a                	mv	a0,s2
    79be:	2645                	jal	7d5e <__clzsi2>
    79c0:	ff850613          	addi	a2,a0,-8 # 7ffff8 <_global_impure_ptr+0x7f5a70>
    79c4:	47fd                	li	a5,31
    79c6:	04c7cd63          	blt	a5,a2,7a20 <__subdf3+0x7a2>
    79ca:	02000693          	li	a3,32
    79ce:	8e91                	sub	a3,a3,a2
    79d0:	00c91733          	sll	a4,s2,a2
    79d4:	00da56b3          	srl	a3,s4,a3
    79d8:	8ed9                	or	a3,a3,a4
    79da:	00ca1833          	sll	a6,s4,a2
    79de:	06864a63          	blt	a2,s0,7a52 <__subdf3+0x7d4>
    79e2:	8e01                	sub	a2,a2,s0
    79e4:	00160713          	addi	a4,a2,1 # 800001 <_global_impure_ptr+0x7f5a79>
    79e8:	47fd                	li	a5,31
    79ea:	04e7c163          	blt	a5,a4,7a2c <__subdf3+0x7ae>
    79ee:	02000613          	li	a2,32
    79f2:	8e19                	sub	a2,a2,a4
    79f4:	00c697b3          	sll	a5,a3,a2
    79f8:	00e85533          	srl	a0,a6,a4
    79fc:	00c81633          	sll	a2,a6,a2
    7a00:	8fc9                	or	a5,a5,a0
    7a02:	00c03633          	snez	a2,a2
    7a06:	8fd1                	or	a5,a5,a2
    7a08:	00e6d733          	srl	a4,a3,a4
    7a0c:	b55d                	j	78b2 <__subdf3+0x634>
    7a0e:	012a67b3          	or	a5,s4,s2
    7a12:	f3dd                	bnez	a5,79b8 <__subdf3+0x73a>
    7a14:	b70d                	j	7936 <__subdf3+0x6b8>
    7a16:	8552                	mv	a0,s4
    7a18:	2699                	jal	7d5e <__clzsi2>
    7a1a:	02050513          	addi	a0,a0,32
    7a1e:	b74d                	j	79c0 <__subdf3+0x742>
    7a20:	fd850693          	addi	a3,a0,-40
    7a24:	00da16b3          	sll	a3,s4,a3
    7a28:	4801                	li	a6,0
    7a2a:	bf55                	j	79de <__subdf3+0x760>
    7a2c:	1605                	addi	a2,a2,-31
    7a2e:	02000593          	li	a1,32
    7a32:	00c6d633          	srl	a2,a3,a2
    7a36:	4781                	li	a5,0
    7a38:	00b70763          	beq	a4,a1,7a46 <__subdf3+0x7c8>
    7a3c:	04000793          	li	a5,64
    7a40:	8f99                	sub	a5,a5,a4
    7a42:	00f697b3          	sll	a5,a3,a5
    7a46:	00f867b3          	or	a5,a6,a5
    7a4a:	00f037b3          	snez	a5,a5
    7a4e:	8fd1                	or	a5,a5,a2
    7a50:	b5fd                	j	793e <__subdf3+0x6c0>
    7a52:	ff8007b7          	lui	a5,0xff800
    7a56:	17fd                	addi	a5,a5,-1
    7a58:	40c40633          	sub	a2,s0,a2
    7a5c:	8efd                	and	a3,a3,a5
    7a5e:	b2d9                	j	7424 <__subdf3+0x1a6>
    7a60:	8736                	mv	a4,a3
    7a62:	87c2                	mv	a5,a6
    7a64:	b5b9                	j	78b2 <__subdf3+0x634>
    7a66:	8736                	mv	a4,a3
    7a68:	87c2                	mv	a5,a6
    7a6a:	b5c1                	j	792a <__subdf3+0x6ac>
    7a6c:	8732                	mv	a4,a2
    7a6e:	87ae                	mv	a5,a1
    7a70:	b589                	j	78b2 <__subdf3+0x634>
    7a72:	8426                	mv	s0,s1
    7a74:	e80491e3          	bnez	s1,78f6 <__subdf3+0x678>
    7a78:	ff86b693          	sltiu	a3,a3,-8
    7a7c:	0016c693          	xori	a3,a3,1
    7a80:	95b6                	add	a1,a1,a3
    7a82:	4405                	li	s0,1
    7a84:	bd8d                	j	78f6 <__subdf3+0x678>
    7a86:	4405                	li	s0,1
    7a88:	e60487e3          	beqz	s1,78f6 <__subdf3+0x678>
    7a8c:	ff86b693          	sltiu	a3,a3,-8
    7a90:	0016c693          	xori	a3,a3,1
    7a94:	95b6                	add	a1,a1,a3
    7a96:	8426                	mv	s0,s1
    7a98:	bdb9                	j	78f6 <__subdf3+0x678>
    7a9a:	4701                	li	a4,0
    7a9c:	7ff00613          	li	a2,2047
    7aa0:	b045                	j	7340 <__subdf3+0xc2>
    7aa2:	87c2                	mv	a5,a6
    7aa4:	7ff00613          	li	a2,2047
    7aa8:	be69                	j	7642 <__subdf3+0x3c4>
    7aaa:	577d                	li	a4,-1
    7aac:	57fd                	li	a5,-1
    7aae:	7fe00613          	li	a2,2046
    7ab2:	4581                	li	a1,0
    7ab4:	be75                	j	7670 <__subdf3+0x3f2>
    7ab6:	4701                	li	a4,0
    7ab8:	4781                	li	a5,0
    7aba:	bcfd                	j	75b8 <__subdf3+0x33a>
    7abc:	4701                	li	a4,0
    7abe:	4781                	li	a5,0
    7ac0:	bff1                	j	7a9c <__subdf3+0x81e>
    7ac2:	87c2                	mv	a5,a6
    7ac4:	4581                	li	a1,0
    7ac6:	b441                	j	7546 <__subdf3+0x2c8>
    7ac8:	4701                	li	a4,0
    7aca:	849a                	mv	s1,t1
    7acc:	b4f5                	j	75b8 <__subdf3+0x33a>
    7ace:	87c2                	mv	a5,a6
    7ad0:	849a                	mv	s1,t1
    7ad2:	bfcd                	j	7ac4 <__subdf3+0x846>
    7ad4:	4701                	li	a4,0
    7ad6:	7ff00613          	li	a2,2047
    7ada:	849a                	mv	s1,t1
    7adc:	b095                	j	7340 <__subdf3+0xc2>
    7ade:	87c2                	mv	a5,a6
    7ae0:	7ff00613          	li	a2,2047
    7ae4:	849a                	mv	s1,t1
    7ae6:	beb1                	j	7642 <__subdf3+0x3c4>
    7ae8:	4781                	li	a5,0
    7aea:	4481                	li	s1,0
    7aec:	00400737          	lui	a4,0x400
    7af0:	7ff00613          	li	a2,2047
    7af4:	4441                	li	s0,16
    7af6:	b4c9                	j	75b8 <__subdf3+0x33a>
    7af8:	4701                	li	a4,0
    7afa:	4781                	li	a5,0
    7afc:	4601                	li	a2,0
    7afe:	b089                	j	7340 <__subdf3+0xc2>
    7b00:	e489                	bnez	s1,7b0a <__subdf3+0x88c>
    7b02:	00878693          	addi	a3,a5,8 # ff800008 <__kernel_stack+0xdf740010>
    7b06:	b679                	j	7694 <__subdf3+0x416>
    7b08:	fced                	bnez	s1,7b02 <__subdf3+0x884>
    7b0a:	a40597e3          	bnez	a1,7558 <__subdf3+0x2da>
    7b0e:	b46d                	j	75b8 <__subdf3+0x33a>
    7b10:	4781                	li	a5,0
    7b12:	02098063          	beqz	s3,7b32 <__subdf3+0x8b4>
    7b16:	470d                	li	a4,3
    7b18:	00e99863          	bne	s3,a4,7b28 <__subdf3+0x8aa>
    7b1c:	00048b63          	beqz	s1,7b32 <__subdf3+0x8b4>
    7b20:	57fd                	li	a5,-1
    7b22:	7fe00613          	li	a2,2046
    7b26:	a031                	j	7b32 <__subdf3+0x8b4>
    7b28:	4709                	li	a4,2
    7b2a:	fee99be3          	bne	s3,a4,7b20 <__subdf3+0x8a2>
    7b2e:	fe0489e3          	beqz	s1,7b20 <__subdf3+0x8a2>
    7b32:	00546413          	ori	s0,s0,5
    7b36:	873e                	mv	a4,a5
    7b38:	bc69                	j	75d2 <__subdf3+0x354>
    7b3a:	e48585e3          	beq	a1,s0,7984 <__subdf3+0x706>
    7b3e:	4401                	li	s0,0
    7b40:	bd25                	j	7978 <__subdf3+0x6fa>
    7b42:	a68580e3          	beq	a1,s0,75a2 <__subdf3+0x324>
    7b46:	4401                	li	s0,0
    7b48:	b4b9                	j	7596 <__subdf3+0x318>

00007b4a <__fixdfsi>:
    7b4a:	882a                	mv	a6,a0
    7b4c:	002027f3          	frrm	a5
    7b50:	001007b7          	lui	a5,0x100
    7b54:	0145d693          	srli	a3,a1,0x14
    7b58:	fff78613          	addi	a2,a5,-1 # fffff <_global_impure_ptr+0xf5a77>
    7b5c:	7ff6f693          	andi	a3,a3,2047
    7b60:	3fe00713          	li	a4,1022
    7b64:	8e6d                	and	a2,a2,a1
    7b66:	81fd                	srli	a1,a1,0x1f
    7b68:	00d74763          	blt	a4,a3,7b76 <__fixdfsi+0x2c>
    7b6c:	08069b63          	bnez	a3,7c02 <__fixdfsi+0xb8>
    7b70:	8d51                	or	a0,a0,a2
    7b72:	e941                	bnez	a0,7c02 <__fixdfsi+0xb8>
    7b74:	8082                	ret
    7b76:	41d00713          	li	a4,1053
    7b7a:	02d75863          	bge	a4,a3,7baa <__fixdfsi+0x60>
    7b7e:	80000737          	lui	a4,0x80000
    7b82:	fff74713          	not	a4,a4
    7b86:	00e58533          	add	a0,a1,a4
    7b8a:	cdbd                	beqz	a1,7c08 <__fixdfsi+0xbe>
    7b8c:	41e00793          	li	a5,1054
    7b90:	4741                	li	a4,16
    7b92:	04f69263          	bne	a3,a5,7bd6 <__fixdfsi+0x8c>
    7b96:	00b61793          	slli	a5,a2,0xb
    7b9a:	01585613          	srli	a2,a6,0x15
    7b9e:	8fd1                	or	a5,a5,a2
    7ba0:	eb9d                	bnez	a5,7bd6 <__fixdfsi+0x8c>
    7ba2:	00b81713          	slli	a4,a6,0xb
    7ba6:	e33d                	bnez	a4,7c0c <__fixdfsi+0xc2>
    7ba8:	8082                	ret
    7baa:	43300513          	li	a0,1075
    7bae:	8d15                	sub	a0,a0,a3
    7bb0:	477d                	li	a4,31
    7bb2:	8fd1                	or	a5,a5,a2
    7bb4:	02a74463          	blt	a4,a0,7bdc <__fixdfsi+0x92>
    7bb8:	bed68613          	addi	a2,a3,-1043 # 7feffbed <__kernel_stack+0x5fe3fbf5>
    7bbc:	00c816b3          	sll	a3,a6,a2
    7bc0:	00c797b3          	sll	a5,a5,a2
    7bc4:	00a85533          	srl	a0,a6,a0
    7bc8:	00d03733          	snez	a4,a3
    7bcc:	8d5d                	or	a0,a0,a5
    7bce:	c199                	beqz	a1,7bd4 <__fixdfsi+0x8a>
    7bd0:	40a00533          	neg	a0,a0
    7bd4:	c319                	beqz	a4,7bda <__fixdfsi+0x90>
    7bd6:	00172073          	csrs	fflags,a4
    7bda:	8082                	ret
    7bdc:	02000613          	li	a2,32
    7be0:	4701                	li	a4,0
    7be2:	00c50663          	beq	a0,a2,7bee <__fixdfsi+0xa4>
    7be6:	c0d68713          	addi	a4,a3,-1011
    7bea:	00e79733          	sll	a4,a5,a4
    7bee:	41300513          	li	a0,1043
    7bf2:	01076733          	or	a4,a4,a6
    7bf6:	8d15                	sub	a0,a0,a3
    7bf8:	00e03733          	snez	a4,a4
    7bfc:	00a7d533          	srl	a0,a5,a0
    7c00:	b7f9                	j	7bce <__fixdfsi+0x84>
    7c02:	4501                	li	a0,0
    7c04:	4705                	li	a4,1
    7c06:	bfc1                	j	7bd6 <__fixdfsi+0x8c>
    7c08:	4741                	li	a4,16
    7c0a:	b7f1                	j	7bd6 <__fixdfsi+0x8c>
    7c0c:	872e                	mv	a4,a1
    7c0e:	b7e1                	j	7bd6 <__fixdfsi+0x8c>

00007c10 <__fixunsdfsi>:
    7c10:	86aa                	mv	a3,a0
    7c12:	002027f3          	frrm	a5
    7c16:	00100837          	lui	a6,0x100
    7c1a:	0145d793          	srli	a5,a1,0x14
    7c1e:	fff80513          	addi	a0,a6,-1 # fffff <_global_impure_ptr+0xf5a77>
    7c22:	7ff7f793          	andi	a5,a5,2047
    7c26:	3fe00613          	li	a2,1022
    7c2a:	8d6d                	and	a0,a0,a1
    7c2c:	01f5d713          	srli	a4,a1,0x1f
    7c30:	00f64763          	blt	a2,a5,7c3e <__fixunsdfsi+0x2e>
    7c34:	06079763          	bnez	a5,7ca2 <__fixunsdfsi+0x92>
    7c38:	8d55                	or	a0,a0,a3
    7c3a:	e525                	bnez	a0,7ca2 <__fixunsdfsi+0x92>
    7c3c:	8082                	ret
    7c3e:	41f00613          	li	a2,1055
    7c42:	8e19                	sub	a2,a2,a4
    7c44:	02c7d863          	bge	a5,a2,7c74 <__fixunsdfsi+0x64>
    7c48:	04071f63          	bnez	a4,7ca6 <__fixunsdfsi+0x96>
    7c4c:	010565b3          	or	a1,a0,a6
    7c50:	43300513          	li	a0,1075
    7c54:	8d1d                	sub	a0,a0,a5
    7c56:	477d                	li	a4,31
    7c58:	02a74463          	blt	a4,a0,7c80 <__fixunsdfsi+0x70>
    7c5c:	bed78793          	addi	a5,a5,-1043
    7c60:	00f595b3          	sll	a1,a1,a5
    7c64:	00a6d533          	srl	a0,a3,a0
    7c68:	00f697b3          	sll	a5,a3,a5
    7c6c:	8d4d                	or	a0,a0,a1
    7c6e:	cb8d                	beqz	a5,7ca0 <__fixunsdfsi+0x90>
    7c70:	4785                	li	a5,1
    7c72:	a021                	j	7c7a <__fixunsdfsi+0x6a>
    7c74:	fff70513          	addi	a0,a4,-1 # 7fffffff <__kernel_stack+0x5ff40007>
    7c78:	47c1                	li	a5,16
    7c7a:	0017a073          	csrs	fflags,a5
    7c7e:	a00d                	j	7ca0 <__fixunsdfsi+0x90>
    7c80:	02000613          	li	a2,32
    7c84:	4701                	li	a4,0
    7c86:	00c50663          	beq	a0,a2,7c92 <__fixunsdfsi+0x82>
    7c8a:	c0d78713          	addi	a4,a5,-1011
    7c8e:	00e59733          	sll	a4,a1,a4
    7c92:	41300513          	li	a0,1043
    7c96:	8d1d                	sub	a0,a0,a5
    7c98:	8f55                	or	a4,a4,a3
    7c9a:	00a5d533          	srl	a0,a1,a0
    7c9e:	fb69                	bnez	a4,7c70 <__fixunsdfsi+0x60>
    7ca0:	8082                	ret
    7ca2:	4501                	li	a0,0
    7ca4:	b7f1                	j	7c70 <__fixunsdfsi+0x60>
    7ca6:	4501                	li	a0,0
    7ca8:	bfc1                	j	7c78 <__fixunsdfsi+0x68>

00007caa <__floatsidf>:
    7caa:	1141                	addi	sp,sp,-16
    7cac:	c606                	sw	ra,12(sp)
    7cae:	c422                	sw	s0,8(sp)
    7cb0:	c226                	sw	s1,4(sp)
    7cb2:	cd21                	beqz	a0,7d0a <__floatsidf+0x60>
    7cb4:	41f55793          	srai	a5,a0,0x1f
    7cb8:	00a7c433          	xor	s0,a5,a0
    7cbc:	8c1d                	sub	s0,s0,a5
    7cbe:	01f55493          	srli	s1,a0,0x1f
    7cc2:	8522                	mv	a0,s0
    7cc4:	2869                	jal	7d5e <__clzsi2>
    7cc6:	41e00713          	li	a4,1054
    7cca:	47a9                	li	a5,10
    7ccc:	8f09                	sub	a4,a4,a0
    7cce:	02a7c863          	blt	a5,a0,7cfe <__floatsidf+0x54>
    7cd2:	47ad                	li	a5,11
    7cd4:	8f89                	sub	a5,a5,a0
    7cd6:	0555                	addi	a0,a0,21
    7cd8:	00f457b3          	srl	a5,s0,a5
    7cdc:	00a41433          	sll	s0,s0,a0
    7ce0:	8526                	mv	a0,s1
    7ce2:	07b2                	slli	a5,a5,0xc
    7ce4:	0752                	slli	a4,a4,0x14
    7ce6:	83b1                	srli	a5,a5,0xc
    7ce8:	057e                	slli	a0,a0,0x1f
    7cea:	8fd9                	or	a5,a5,a4
    7cec:	40b2                	lw	ra,12(sp)
    7cee:	00a7e733          	or	a4,a5,a0
    7cf2:	8522                	mv	a0,s0
    7cf4:	4422                	lw	s0,8(sp)
    7cf6:	4492                	lw	s1,4(sp)
    7cf8:	85ba                	mv	a1,a4
    7cfa:	0141                	addi	sp,sp,16
    7cfc:	8082                	ret
    7cfe:	1555                	addi	a0,a0,-11
    7d00:	00a417b3          	sll	a5,s0,a0
    7d04:	8526                	mv	a0,s1
    7d06:	4401                	li	s0,0
    7d08:	bfe9                	j	7ce2 <__floatsidf+0x38>
    7d0a:	4701                	li	a4,0
    7d0c:	4781                	li	a5,0
    7d0e:	bfe5                	j	7d06 <__floatsidf+0x5c>

00007d10 <__floatunsidf>:
    7d10:	1141                	addi	sp,sp,-16
    7d12:	c422                	sw	s0,8(sp)
    7d14:	c606                	sw	ra,12(sp)
    7d16:	842a                	mv	s0,a0
    7d18:	c121                	beqz	a0,7d58 <__floatunsidf+0x48>
    7d1a:	2091                	jal	7d5e <__clzsi2>
    7d1c:	41e00713          	li	a4,1054
    7d20:	47a9                	li	a5,10
    7d22:	8f09                	sub	a4,a4,a0
    7d24:	02a7c463          	blt	a5,a0,7d4c <__floatunsidf+0x3c>
    7d28:	47ad                	li	a5,11
    7d2a:	8f89                	sub	a5,a5,a0
    7d2c:	0555                	addi	a0,a0,21
    7d2e:	00f457b3          	srl	a5,s0,a5
    7d32:	00a41433          	sll	s0,s0,a0
    7d36:	40b2                	lw	ra,12(sp)
    7d38:	8522                	mv	a0,s0
    7d3a:	07b2                	slli	a5,a5,0xc
    7d3c:	4422                	lw	s0,8(sp)
    7d3e:	0752                	slli	a4,a4,0x14
    7d40:	83b1                	srli	a5,a5,0xc
    7d42:	00f766b3          	or	a3,a4,a5
    7d46:	85b6                	mv	a1,a3
    7d48:	0141                	addi	sp,sp,16
    7d4a:	8082                	ret
    7d4c:	ff550793          	addi	a5,a0,-11
    7d50:	00f417b3          	sll	a5,s0,a5
    7d54:	4401                	li	s0,0
    7d56:	b7c5                	j	7d36 <__floatunsidf+0x26>
    7d58:	4781                	li	a5,0
    7d5a:	4701                	li	a4,0
    7d5c:	bfe9                	j	7d36 <__floatunsidf+0x26>

00007d5e <__clzsi2>:
    7d5e:	67c1                	lui	a5,0x10
    7d60:	02f57663          	bgeu	a0,a5,7d8c <__clzsi2+0x2e>
    7d64:	0ff00793          	li	a5,255
    7d68:	00a7b7b3          	sltu	a5,a5,a0
    7d6c:	078e                	slli	a5,a5,0x3
    7d6e:	02000713          	li	a4,32
    7d72:	8f1d                	sub	a4,a4,a5
    7d74:	00f55533          	srl	a0,a0,a5
    7d78:	00002797          	auipc	a5,0x2
    7d7c:	67878793          	addi	a5,a5,1656 # a3f0 <__clz_tab>
    7d80:	953e                	add	a0,a0,a5
    7d82:	00054503          	lbu	a0,0(a0)
    7d86:	40a70533          	sub	a0,a4,a0
    7d8a:	8082                	ret
    7d8c:	01000737          	lui	a4,0x1000
    7d90:	47c1                	li	a5,16
    7d92:	fce56ee3          	bltu	a0,a4,7d6e <__clzsi2+0x10>
    7d96:	47e1                	li	a5,24
    7d98:	bfd9                	j	7d6e <__clzsi2+0x10>

00007d9a <malloc>:
    7d9a:	85aa                	mv	a1,a0
    7d9c:	1fff9517          	auipc	a0,0x1fff9
    7da0:	b2052503          	lw	a0,-1248(a0) # 200008bc <_impure_ptr>
    7da4:	a801                	j	7db4 <_malloc_r>

00007da6 <free>:
    7da6:	85aa                	mv	a1,a0
    7da8:	1fff9517          	auipc	a0,0x1fff9
    7dac:	b1452503          	lw	a0,-1260(a0) # 200008bc <_impure_ptr>
    7db0:	02d0006f          	j	85dc <_free_r>

00007db4 <_malloc_r>:
    7db4:	7179                	addi	sp,sp,-48
    7db6:	d04a                	sw	s2,32(sp)
    7db8:	d606                	sw	ra,44(sp)
    7dba:	d422                	sw	s0,40(sp)
    7dbc:	d226                	sw	s1,36(sp)
    7dbe:	ce4e                	sw	s3,28(sp)
    7dc0:	cc52                	sw	s4,24(sp)
    7dc2:	ca56                	sw	s5,20(sp)
    7dc4:	c85a                	sw	s6,16(sp)
    7dc6:	c65e                	sw	s7,12(sp)
    7dc8:	c462                	sw	s8,8(sp)
    7dca:	c266                	sw	s9,4(sp)
    7dcc:	00b58793          	addi	a5,a1,11 # 40000b <_global_impure_ptr+0x3f5a83>
    7dd0:	4759                	li	a4,22
    7dd2:	892a                	mv	s2,a0
    7dd4:	04f76363          	bltu	a4,a5,7e1a <_malloc_r+0x66>
    7dd8:	47c1                	li	a5,16
    7dda:	16b7e363          	bltu	a5,a1,7f40 <_malloc_r+0x18c>
    7dde:	25b1                	jal	842a <__malloc_lock>
    7de0:	44c1                	li	s1,16
    7de2:	47e1                	li	a5,24
    7de4:	4609                	li	a2,2
    7de6:	1fff8997          	auipc	s3,0x1fff8
    7dea:	23e98993          	addi	s3,s3,574 # 20000024 <__malloc_av_>
    7dee:	97ce                	add	a5,a5,s3
    7df0:	43c0                	lw	s0,4(a5)
    7df2:	ff878713          	addi	a4,a5,-8
    7df6:	16e40d63          	beq	s0,a4,7f70 <_malloc_r+0x1bc>
    7dfa:	405c                	lw	a5,4(s0)
    7dfc:	4454                	lw	a3,12(s0)
    7dfe:	4410                	lw	a2,8(s0)
    7e00:	9bf1                	andi	a5,a5,-4
    7e02:	97a2                	add	a5,a5,s0
    7e04:	43d8                	lw	a4,4(a5)
    7e06:	c654                	sw	a3,12(a2)
    7e08:	c690                	sw	a2,8(a3)
    7e0a:	00176713          	ori	a4,a4,1
    7e0e:	854a                	mv	a0,s2
    7e10:	c3d8                	sw	a4,4(a5)
    7e12:	2d29                	jal	842c <__malloc_unlock>
    7e14:	00840513          	addi	a0,s0,8 # 400008 <_global_impure_ptr+0x3f5a80>
    7e18:	aa05                	j	7f48 <_malloc_r+0x194>
    7e1a:	ff87f493          	andi	s1,a5,-8
    7e1e:	1207c163          	bltz	a5,7f40 <_malloc_r+0x18c>
    7e22:	10b4ef63          	bltu	s1,a1,7f40 <_malloc_r+0x18c>
    7e26:	2511                	jal	842a <__malloc_lock>
    7e28:	1f700793          	li	a5,503
    7e2c:	3497f963          	bgeu	a5,s1,817e <_malloc_r+0x3ca>
    7e30:	0094d793          	srli	a5,s1,0x9
    7e34:	12078763          	beqz	a5,7f62 <_malloc_r+0x1ae>
    7e38:	4711                	li	a4,4
    7e3a:	2ef76263          	bltu	a4,a5,811e <_malloc_r+0x36a>
    7e3e:	0064d793          	srli	a5,s1,0x6
    7e42:	03978613          	addi	a2,a5,57
    7e46:	03878513          	addi	a0,a5,56
    7e4a:	00361693          	slli	a3,a2,0x3
    7e4e:	1fff8997          	auipc	s3,0x1fff8
    7e52:	1d698993          	addi	s3,s3,470 # 20000024 <__malloc_av_>
    7e56:	96ce                	add	a3,a3,s3
    7e58:	42c0                	lw	s0,4(a3)
    7e5a:	16e1                	addi	a3,a3,-8
    7e5c:	02868063          	beq	a3,s0,7e7c <_malloc_r+0xc8>
    7e60:	45bd                	li	a1,15
    7e62:	a031                	j	7e6e <_malloc_r+0xba>
    7e64:	26075963          	bgez	a4,80d6 <_malloc_r+0x322>
    7e68:	4440                	lw	s0,12(s0)
    7e6a:	00868963          	beq	a3,s0,7e7c <_malloc_r+0xc8>
    7e6e:	405c                	lw	a5,4(s0)
    7e70:	9bf1                	andi	a5,a5,-4
    7e72:	40978733          	sub	a4,a5,s1
    7e76:	fee5d7e3          	bge	a1,a4,7e64 <_malloc_r+0xb0>
    7e7a:	862a                	mv	a2,a0
    7e7c:	0109a403          	lw	s0,16(s3)
    7e80:	1fff8897          	auipc	a7,0x1fff8
    7e84:	1ac88893          	addi	a7,a7,428 # 2000002c <__malloc_av_+0x8>
    7e88:	11140063          	beq	s0,a7,7f88 <_malloc_r+0x1d4>
    7e8c:	4048                	lw	a0,4(s0)
    7e8e:	46bd                	li	a3,15
    7e90:	9971                	andi	a0,a0,-4
    7e92:	409507b3          	sub	a5,a0,s1
    7e96:	30f6c463          	blt	a3,a5,819e <_malloc_r+0x3ea>
    7e9a:	0119aa23          	sw	a7,20(s3)
    7e9e:	0119a823          	sw	a7,16(s3)
    7ea2:	2e07d363          	bgez	a5,8188 <_malloc_r+0x3d4>
    7ea6:	1ff00793          	li	a5,511
    7eaa:	22a7e963          	bltu	a5,a0,80dc <_malloc_r+0x328>
    7eae:	ff857793          	andi	a5,a0,-8
    7eb2:	07a1                	addi	a5,a5,8
    7eb4:	0049a583          	lw	a1,4(s3)
    7eb8:	97ce                	add	a5,a5,s3
    7eba:	4394                	lw	a3,0(a5)
    7ebc:	8115                	srli	a0,a0,0x5
    7ebe:	4705                	li	a4,1
    7ec0:	00a71733          	sll	a4,a4,a0
    7ec4:	8f4d                	or	a4,a4,a1
    7ec6:	ff878593          	addi	a1,a5,-8
    7eca:	c44c                	sw	a1,12(s0)
    7ecc:	c414                	sw	a3,8(s0)
    7ece:	00e9a223          	sw	a4,4(s3)
    7ed2:	c380                	sw	s0,0(a5)
    7ed4:	c6c0                	sw	s0,12(a3)
    7ed6:	40265793          	srai	a5,a2,0x2
    7eda:	4585                	li	a1,1
    7edc:	00f595b3          	sll	a1,a1,a5
    7ee0:	0ab76d63          	bltu	a4,a1,7f9a <_malloc_r+0x1e6>
    7ee4:	00e5f7b3          	and	a5,a1,a4
    7ee8:	ef81                	bnez	a5,7f00 <_malloc_r+0x14c>
    7eea:	0586                	slli	a1,a1,0x1
    7eec:	9a71                	andi	a2,a2,-4
    7eee:	00e5f7b3          	and	a5,a1,a4
    7ef2:	0611                	addi	a2,a2,4
    7ef4:	e791                	bnez	a5,7f00 <_malloc_r+0x14c>
    7ef6:	0586                	slli	a1,a1,0x1
    7ef8:	00e5f7b3          	and	a5,a1,a4
    7efc:	0611                	addi	a2,a2,4
    7efe:	dfe5                	beqz	a5,7ef6 <_malloc_r+0x142>
    7f00:	483d                	li	a6,15
    7f02:	00361313          	slli	t1,a2,0x3
    7f06:	934e                	add	t1,t1,s3
    7f08:	851a                	mv	a0,t1
    7f0a:	455c                	lw	a5,12(a0)
    7f0c:	8e32                	mv	t3,a2
    7f0e:	22f50863          	beq	a0,a5,813e <_malloc_r+0x38a>
    7f12:	43d8                	lw	a4,4(a5)
    7f14:	843e                	mv	s0,a5
    7f16:	47dc                	lw	a5,12(a5)
    7f18:	9b71                	andi	a4,a4,-4
    7f1a:	409706b3          	sub	a3,a4,s1
    7f1e:	22d84763          	blt	a6,a3,814c <_malloc_r+0x398>
    7f22:	fe06c6e3          	bltz	a3,7f0e <_malloc_r+0x15a>
    7f26:	9722                	add	a4,a4,s0
    7f28:	4354                	lw	a3,4(a4)
    7f2a:	4410                	lw	a2,8(s0)
    7f2c:	854a                	mv	a0,s2
    7f2e:	0016e693          	ori	a3,a3,1
    7f32:	c354                	sw	a3,4(a4)
    7f34:	c65c                	sw	a5,12(a2)
    7f36:	c790                	sw	a2,8(a5)
    7f38:	29d5                	jal	842c <__malloc_unlock>
    7f3a:	00840513          	addi	a0,s0,8
    7f3e:	a029                	j	7f48 <_malloc_r+0x194>
    7f40:	47b1                	li	a5,12
    7f42:	00f92023          	sw	a5,0(s2) # 800000 <_global_impure_ptr+0x7f5a78>
    7f46:	4501                	li	a0,0
    7f48:	50b2                	lw	ra,44(sp)
    7f4a:	5422                	lw	s0,40(sp)
    7f4c:	5492                	lw	s1,36(sp)
    7f4e:	5902                	lw	s2,32(sp)
    7f50:	49f2                	lw	s3,28(sp)
    7f52:	4a62                	lw	s4,24(sp)
    7f54:	4ad2                	lw	s5,20(sp)
    7f56:	4b42                	lw	s6,16(sp)
    7f58:	4bb2                	lw	s7,12(sp)
    7f5a:	4c22                	lw	s8,8(sp)
    7f5c:	4c92                	lw	s9,4(sp)
    7f5e:	6145                	addi	sp,sp,48
    7f60:	8082                	ret
    7f62:	20000693          	li	a3,512
    7f66:	04000613          	li	a2,64
    7f6a:	03f00513          	li	a0,63
    7f6e:	b5c5                	j	7e4e <_malloc_r+0x9a>
    7f70:	47c0                	lw	s0,12(a5)
    7f72:	0609                	addi	a2,a2,2
    7f74:	e88793e3          	bne	a5,s0,7dfa <_malloc_r+0x46>
    7f78:	0109a403          	lw	s0,16(s3)
    7f7c:	1fff8897          	auipc	a7,0x1fff8
    7f80:	0b088893          	addi	a7,a7,176 # 2000002c <__malloc_av_+0x8>
    7f84:	f11414e3          	bne	s0,a7,7e8c <_malloc_r+0xd8>
    7f88:	0049a703          	lw	a4,4(s3)
    7f8c:	40265793          	srai	a5,a2,0x2
    7f90:	4585                	li	a1,1
    7f92:	00f595b3          	sll	a1,a1,a5
    7f96:	f4b777e3          	bgeu	a4,a1,7ee4 <_malloc_r+0x130>
    7f9a:	0089a403          	lw	s0,8(s3)
    7f9e:	00442a83          	lw	s5,4(s0)
    7fa2:	ffcafb13          	andi	s6,s5,-4
    7fa6:	009b6763          	bltu	s6,s1,7fb4 <_malloc_r+0x200>
    7faa:	409b07b3          	sub	a5,s6,s1
    7fae:	473d                	li	a4,15
    7fb0:	10f74563          	blt	a4,a5,80ba <_malloc_r+0x306>
    7fb4:	1fff9c97          	auipc	s9,0x1fff9
    7fb8:	900c8c93          	addi	s9,s9,-1792 # 200008b4 <__malloc_sbrk_base>
    7fbc:	000ca703          	lw	a4,0(s9)
    7fc0:	1fff9a97          	auipc	s5,0x1fff9
    7fc4:	940aaa83          	lw	s5,-1728(s5) # 20000900 <__malloc_top_pad>
    7fc8:	57fd                	li	a5,-1
    7fca:	01640a33          	add	s4,s0,s6
    7fce:	9aa6                	add	s5,s5,s1
    7fd0:	26f70e63          	beq	a4,a5,824c <_malloc_r+0x498>
    7fd4:	6785                	lui	a5,0x1
    7fd6:	07bd                	addi	a5,a5,15
    7fd8:	9abe                	add	s5,s5,a5
    7fda:	77fd                	lui	a5,0xfffff
    7fdc:	00fafab3          	and	s5,s5,a5
    7fe0:	85d6                	mv	a1,s5
    7fe2:	854a                	mv	a0,s2
    7fe4:	21a9                	jal	842e <_sbrk_r>
    7fe6:	57fd                	li	a5,-1
    7fe8:	8baa                	mv	s7,a0
    7fea:	1ef50a63          	beq	a0,a5,81de <_malloc_r+0x42a>
    7fee:	1f456663          	bltu	a0,s4,81da <_malloc_r+0x426>
    7ff2:	1fff9c17          	auipc	s8,0x1fff9
    7ff6:	8cec0c13          	addi	s8,s8,-1842 # 200008c0 <__malloc_current_mallinfo>
    7ffa:	000c2583          	lw	a1,0(s8)
    7ffe:	95d6                	add	a1,a1,s5
    8000:	00bc2023          	sw	a1,0(s8)
    8004:	87ae                	mv	a5,a1
    8006:	2caa0163          	beq	s4,a0,82c8 <_malloc_r+0x514>
    800a:	000ca683          	lw	a3,0(s9)
    800e:	577d                	li	a4,-1
    8010:	2ce68863          	beq	a3,a4,82e0 <_malloc_r+0x52c>
    8014:	414b8a33          	sub	s4,s7,s4
    8018:	97d2                	add	a5,a5,s4
    801a:	00fc2023          	sw	a5,0(s8)
    801e:	007bfc93          	andi	s9,s7,7
    8022:	240c8163          	beqz	s9,8264 <_malloc_r+0x4b0>
    8026:	6785                	lui	a5,0x1
    8028:	419b8bb3          	sub	s7,s7,s9
    802c:	00878593          	addi	a1,a5,8 # 1008 <encrypt+0x4fc>
    8030:	0ba1                	addi	s7,s7,8
    8032:	419585b3          	sub	a1,a1,s9
    8036:	9ade                	add	s5,s5,s7
    8038:	17fd                	addi	a5,a5,-1
    803a:	415585b3          	sub	a1,a1,s5
    803e:	00f5fa33          	and	s4,a1,a5
    8042:	85d2                	mv	a1,s4
    8044:	854a                	mv	a0,s2
    8046:	26e5                	jal	842e <_sbrk_r>
    8048:	57fd                	li	a5,-1
    804a:	2cf50d63          	beq	a0,a5,8324 <_malloc_r+0x570>
    804e:	41750533          	sub	a0,a0,s7
    8052:	01450ab3          	add	s5,a0,s4
    8056:	000c2583          	lw	a1,0(s8)
    805a:	0179a423          	sw	s7,8(s3)
    805e:	001aea93          	ori	s5,s5,1
    8062:	95d2                	add	a1,a1,s4
    8064:	00bc2023          	sw	a1,0(s8)
    8068:	015ba223          	sw	s5,4(s7)
    806c:	27340d63          	beq	s0,s3,82e6 <_malloc_r+0x532>
    8070:	46bd                	li	a3,15
    8072:	2766fc63          	bgeu	a3,s6,82ea <_malloc_r+0x536>
    8076:	4058                	lw	a4,4(s0)
    8078:	ff4b0793          	addi	a5,s6,-12
    807c:	9be1                	andi	a5,a5,-8
    807e:	8b05                	andi	a4,a4,1
    8080:	8f5d                	or	a4,a4,a5
    8082:	c058                	sw	a4,4(s0)
    8084:	4615                	li	a2,5
    8086:	00f40733          	add	a4,s0,a5
    808a:	c350                	sw	a2,4(a4)
    808c:	c710                	sw	a2,8(a4)
    808e:	2af6e163          	bltu	a3,a5,8330 <_malloc_r+0x57c>
    8092:	004baa83          	lw	s5,4(s7)
    8096:	845e                	mv	s0,s7
    8098:	1fff9797          	auipc	a5,0x1fff9
    809c:	86478793          	addi	a5,a5,-1948 # 200008fc <__malloc_max_sbrked_mem>
    80a0:	4398                	lw	a4,0(a5)
    80a2:	00b77363          	bgeu	a4,a1,80a8 <_malloc_r+0x2f4>
    80a6:	c38c                	sw	a1,0(a5)
    80a8:	1fff9797          	auipc	a5,0x1fff9
    80ac:	85078793          	addi	a5,a5,-1968 # 200008f8 <__malloc_max_total_mem>
    80b0:	4398                	lw	a4,0(a5)
    80b2:	12b77a63          	bgeu	a4,a1,81e6 <_malloc_r+0x432>
    80b6:	c38c                	sw	a1,0(a5)
    80b8:	a23d                	j	81e6 <_malloc_r+0x432>
    80ba:	0014e713          	ori	a4,s1,1
    80be:	c058                	sw	a4,4(s0)
    80c0:	94a2                	add	s1,s1,s0
    80c2:	0099a423          	sw	s1,8(s3)
    80c6:	0017e793          	ori	a5,a5,1
    80ca:	854a                	mv	a0,s2
    80cc:	c0dc                	sw	a5,4(s1)
    80ce:	2eb9                	jal	842c <__malloc_unlock>
    80d0:	00840513          	addi	a0,s0,8
    80d4:	bd95                	j	7f48 <_malloc_r+0x194>
    80d6:	4454                	lw	a3,12(s0)
    80d8:	4410                	lw	a2,8(s0)
    80da:	b325                	j	7e02 <_malloc_r+0x4e>
    80dc:	00955793          	srli	a5,a0,0x9
    80e0:	4711                	li	a4,4
    80e2:	0ef77463          	bgeu	a4,a5,81ca <_malloc_r+0x416>
    80e6:	4751                	li	a4,20
    80e8:	18f76d63          	bltu	a4,a5,8282 <_malloc_r+0x4ce>
    80ec:	05c78693          	addi	a3,a5,92
    80f0:	05b78593          	addi	a1,a5,91
    80f4:	068e                	slli	a3,a3,0x3
    80f6:	96ce                	add	a3,a3,s3
    80f8:	429c                	lw	a5,0(a3)
    80fa:	16e1                	addi	a3,a3,-8
    80fc:	14f68a63          	beq	a3,a5,8250 <_malloc_r+0x49c>
    8100:	43d8                	lw	a4,4(a5)
    8102:	9b71                	andi	a4,a4,-4
    8104:	00e57563          	bgeu	a0,a4,810e <_malloc_r+0x35a>
    8108:	479c                	lw	a5,8(a5)
    810a:	fef69be3          	bne	a3,a5,8100 <_malloc_r+0x34c>
    810e:	47d4                	lw	a3,12(a5)
    8110:	0049a703          	lw	a4,4(s3)
    8114:	c454                	sw	a3,12(s0)
    8116:	c41c                	sw	a5,8(s0)
    8118:	c680                	sw	s0,8(a3)
    811a:	c7c0                	sw	s0,12(a5)
    811c:	bb6d                	j	7ed6 <_malloc_r+0x122>
    811e:	4751                	li	a4,20
    8120:	0ef77063          	bgeu	a4,a5,8200 <_malloc_r+0x44c>
    8124:	05400713          	li	a4,84
    8128:	16f76963          	bltu	a4,a5,829a <_malloc_r+0x4e6>
    812c:	00c4d793          	srli	a5,s1,0xc
    8130:	06f78613          	addi	a2,a5,111
    8134:	06e78513          	addi	a0,a5,110
    8138:	00361693          	slli	a3,a2,0x3
    813c:	bb09                	j	7e4e <_malloc_r+0x9a>
    813e:	0e05                	addi	t3,t3,1
    8140:	003e7793          	andi	a5,t3,3
    8144:	0521                	addi	a0,a0,8
    8146:	cbe9                	beqz	a5,8218 <_malloc_r+0x464>
    8148:	455c                	lw	a5,12(a0)
    814a:	b3d1                	j	7f0e <_malloc_r+0x15a>
    814c:	4410                	lw	a2,8(s0)
    814e:	0014e593          	ori	a1,s1,1
    8152:	c04c                	sw	a1,4(s0)
    8154:	c65c                	sw	a5,12(a2)
    8156:	c790                	sw	a2,8(a5)
    8158:	94a2                	add	s1,s1,s0
    815a:	0099aa23          	sw	s1,20(s3)
    815e:	0099a823          	sw	s1,16(s3)
    8162:	0016e793          	ori	a5,a3,1
    8166:	0114a623          	sw	a7,12(s1)
    816a:	0114a423          	sw	a7,8(s1)
    816e:	c0dc                	sw	a5,4(s1)
    8170:	9722                	add	a4,a4,s0
    8172:	854a                	mv	a0,s2
    8174:	c314                	sw	a3,0(a4)
    8176:	2c5d                	jal	842c <__malloc_unlock>
    8178:	00840513          	addi	a0,s0,8
    817c:	b3f1                	j	7f48 <_malloc_r+0x194>
    817e:	0034d613          	srli	a2,s1,0x3
    8182:	00848793          	addi	a5,s1,8
    8186:	b185                	j	7de6 <_malloc_r+0x32>
    8188:	00a40733          	add	a4,s0,a0
    818c:	435c                	lw	a5,4(a4)
    818e:	854a                	mv	a0,s2
    8190:	0017e793          	ori	a5,a5,1
    8194:	c35c                	sw	a5,4(a4)
    8196:	2c59                	jal	842c <__malloc_unlock>
    8198:	00840513          	addi	a0,s0,8
    819c:	b375                	j	7f48 <_malloc_r+0x194>
    819e:	0014e713          	ori	a4,s1,1
    81a2:	c058                	sw	a4,4(s0)
    81a4:	94a2                	add	s1,s1,s0
    81a6:	0099aa23          	sw	s1,20(s3)
    81aa:	0099a823          	sw	s1,16(s3)
    81ae:	0017e713          	ori	a4,a5,1
    81b2:	0114a623          	sw	a7,12(s1)
    81b6:	0114a423          	sw	a7,8(s1)
    81ba:	c0d8                	sw	a4,4(s1)
    81bc:	9522                	add	a0,a0,s0
    81be:	c11c                	sw	a5,0(a0)
    81c0:	854a                	mv	a0,s2
    81c2:	24ad                	jal	842c <__malloc_unlock>
    81c4:	00840513          	addi	a0,s0,8
    81c8:	b341                	j	7f48 <_malloc_r+0x194>
    81ca:	00655793          	srli	a5,a0,0x6
    81ce:	03978693          	addi	a3,a5,57
    81d2:	03878593          	addi	a1,a5,56
    81d6:	068e                	slli	a3,a3,0x3
    81d8:	bf39                	j	80f6 <_malloc_r+0x342>
    81da:	0d340d63          	beq	s0,s3,82b4 <_malloc_r+0x500>
    81de:	0089a403          	lw	s0,8(s3)
    81e2:	00442a83          	lw	s5,4(s0)
    81e6:	ffcafa93          	andi	s5,s5,-4
    81ea:	409a87b3          	sub	a5,s5,s1
    81ee:	009ae563          	bltu	s5,s1,81f8 <_malloc_r+0x444>
    81f2:	473d                	li	a4,15
    81f4:	ecf743e3          	blt	a4,a5,80ba <_malloc_r+0x306>
    81f8:	854a                	mv	a0,s2
    81fa:	2c0d                	jal	842c <__malloc_unlock>
    81fc:	4501                	li	a0,0
    81fe:	b3a9                	j	7f48 <_malloc_r+0x194>
    8200:	05c78613          	addi	a2,a5,92
    8204:	05b78513          	addi	a0,a5,91
    8208:	00361693          	slli	a3,a2,0x3
    820c:	b189                	j	7e4e <_malloc_r+0x9a>
    820e:	00832783          	lw	a5,8(t1) # 10008 <_global_impure_ptr+0x5a80>
    8212:	167d                	addi	a2,a2,-1
    8214:	16679163          	bne	a5,t1,8376 <_malloc_r+0x5c2>
    8218:	00367793          	andi	a5,a2,3
    821c:	1361                	addi	t1,t1,-8
    821e:	fbe5                	bnez	a5,820e <_malloc_r+0x45a>
    8220:	0049a703          	lw	a4,4(s3)
    8224:	fff5c793          	not	a5,a1
    8228:	8ff9                	and	a5,a5,a4
    822a:	00f9a223          	sw	a5,4(s3)
    822e:	0586                	slli	a1,a1,0x1
    8230:	d6b7e5e3          	bltu	a5,a1,7f9a <_malloc_r+0x1e6>
    8234:	d60583e3          	beqz	a1,7f9a <_malloc_r+0x1e6>
    8238:	00f5f733          	and	a4,a1,a5
    823c:	e711                	bnez	a4,8248 <_malloc_r+0x494>
    823e:	0586                	slli	a1,a1,0x1
    8240:	00f5f733          	and	a4,a1,a5
    8244:	0e11                	addi	t3,t3,4
    8246:	df65                	beqz	a4,823e <_malloc_r+0x48a>
    8248:	8672                	mv	a2,t3
    824a:	b965                	j	7f02 <_malloc_r+0x14e>
    824c:	0ac1                	addi	s5,s5,16
    824e:	bb49                	j	7fe0 <_malloc_r+0x22c>
    8250:	0049a503          	lw	a0,4(s3)
    8254:	8589                	srai	a1,a1,0x2
    8256:	4705                	li	a4,1
    8258:	00b71733          	sll	a4,a4,a1
    825c:	8f49                	or	a4,a4,a0
    825e:	00e9a223          	sw	a4,4(s3)
    8262:	bd4d                	j	8114 <_malloc_r+0x360>
    8264:	015b85b3          	add	a1,s7,s5
    8268:	40b005b3          	neg	a1,a1
    826c:	05d2                	slli	a1,a1,0x14
    826e:	0145da13          	srli	s4,a1,0x14
    8272:	85d2                	mv	a1,s4
    8274:	854a                	mv	a0,s2
    8276:	2a65                	jal	842e <_sbrk_r>
    8278:	57fd                	li	a5,-1
    827a:	dcf51ae3          	bne	a0,a5,804e <_malloc_r+0x29a>
    827e:	4a01                	li	s4,0
    8280:	bbd9                	j	8056 <_malloc_r+0x2a2>
    8282:	05400713          	li	a4,84
    8286:	06f76663          	bltu	a4,a5,82f2 <_malloc_r+0x53e>
    828a:	00c55793          	srli	a5,a0,0xc
    828e:	06f78693          	addi	a3,a5,111
    8292:	06e78593          	addi	a1,a5,110
    8296:	068e                	slli	a3,a3,0x3
    8298:	bdb9                	j	80f6 <_malloc_r+0x342>
    829a:	15400713          	li	a4,340
    829e:	06f76663          	bltu	a4,a5,830a <_malloc_r+0x556>
    82a2:	00f4d793          	srli	a5,s1,0xf
    82a6:	07878613          	addi	a2,a5,120
    82aa:	07778513          	addi	a0,a5,119
    82ae:	00361693          	slli	a3,a2,0x3
    82b2:	be71                	j	7e4e <_malloc_r+0x9a>
    82b4:	1fff8c17          	auipc	s8,0x1fff8
    82b8:	60cc0c13          	addi	s8,s8,1548 # 200008c0 <__malloc_current_mallinfo>
    82bc:	000c2783          	lw	a5,0(s8)
    82c0:	97d6                	add	a5,a5,s5
    82c2:	00fc2023          	sw	a5,0(s8)
    82c6:	b391                	j	800a <_malloc_r+0x256>
    82c8:	014a1713          	slli	a4,s4,0x14
    82cc:	d2071fe3          	bnez	a4,800a <_malloc_r+0x256>
    82d0:	0089a403          	lw	s0,8(s3)
    82d4:	9ada                	add	s5,s5,s6
    82d6:	001aea93          	ori	s5,s5,1
    82da:	01542223          	sw	s5,4(s0)
    82de:	bb6d                	j	8098 <_malloc_r+0x2e4>
    82e0:	017ca023          	sw	s7,0(s9)
    82e4:	bb2d                	j	801e <_malloc_r+0x26a>
    82e6:	845e                	mv	s0,s7
    82e8:	bb45                	j	8098 <_malloc_r+0x2e4>
    82ea:	4785                	li	a5,1
    82ec:	00fba223          	sw	a5,4(s7)
    82f0:	b721                	j	81f8 <_malloc_r+0x444>
    82f2:	15400713          	li	a4,340
    82f6:	04f76863          	bltu	a4,a5,8346 <_malloc_r+0x592>
    82fa:	00f55793          	srli	a5,a0,0xf
    82fe:	07878693          	addi	a3,a5,120
    8302:	07778593          	addi	a1,a5,119
    8306:	068e                	slli	a3,a3,0x3
    8308:	b3fd                	j	80f6 <_malloc_r+0x342>
    830a:	55400713          	li	a4,1364
    830e:	04f76863          	bltu	a4,a5,835e <_malloc_r+0x5aa>
    8312:	0124d793          	srli	a5,s1,0x12
    8316:	07d78613          	addi	a2,a5,125
    831a:	07c78513          	addi	a0,a5,124
    831e:	00361693          	slli	a3,a2,0x3
    8322:	b635                	j	7e4e <_malloc_r+0x9a>
    8324:	1ce1                	addi	s9,s9,-8
    8326:	9ae6                	add	s5,s5,s9
    8328:	417a8ab3          	sub	s5,s5,s7
    832c:	4a01                	li	s4,0
    832e:	b325                	j	8056 <_malloc_r+0x2a2>
    8330:	00840593          	addi	a1,s0,8
    8334:	854a                	mv	a0,s2
    8336:	245d                	jal	85dc <_free_r>
    8338:	0089a403          	lw	s0,8(s3)
    833c:	000c2583          	lw	a1,0(s8)
    8340:	00442a83          	lw	s5,4(s0)
    8344:	bb91                	j	8098 <_malloc_r+0x2e4>
    8346:	55400713          	li	a4,1364
    834a:	02f76163          	bltu	a4,a5,836c <_malloc_r+0x5b8>
    834e:	01255793          	srli	a5,a0,0x12
    8352:	07d78693          	addi	a3,a5,125
    8356:	07c78593          	addi	a1,a5,124
    835a:	068e                	slli	a3,a3,0x3
    835c:	bb69                	j	80f6 <_malloc_r+0x342>
    835e:	3f800693          	li	a3,1016
    8362:	07f00613          	li	a2,127
    8366:	07e00513          	li	a0,126
    836a:	b4d5                	j	7e4e <_malloc_r+0x9a>
    836c:	3f800693          	li	a3,1016
    8370:	07e00593          	li	a1,126
    8374:	b349                	j	80f6 <_malloc_r+0x342>
    8376:	0049a783          	lw	a5,4(s3)
    837a:	bd55                	j	822e <_malloc_r+0x47a>

0000837c <memset>:
    837c:	433d                	li	t1,15
    837e:	872a                	mv	a4,a0
    8380:	02c37563          	bgeu	t1,a2,83aa <memset+0x2e>
    8384:	00f77793          	andi	a5,a4,15
    8388:	e3c9                	bnez	a5,840a <memset+0x8e>
    838a:	06059763          	bnez	a1,83f8 <memset+0x7c>
    838e:	ff067693          	andi	a3,a2,-16
    8392:	8a3d                	andi	a2,a2,15
    8394:	96ba                	add	a3,a3,a4
    8396:	c30c                	sw	a1,0(a4)
    8398:	c34c                	sw	a1,4(a4)
    839a:	c70c                	sw	a1,8(a4)
    839c:	c74c                	sw	a1,12(a4)
    839e:	0741                	addi	a4,a4,16
    83a0:	fed76be3          	bltu	a4,a3,8396 <memset+0x1a>
    83a4:	00061363          	bnez	a2,83aa <memset+0x2e>
    83a8:	8082                	ret
    83aa:	40c306b3          	sub	a3,t1,a2
    83ae:	068a                	slli	a3,a3,0x2
    83b0:	00000297          	auipc	t0,0x0
    83b4:	9696                	add	a3,a3,t0
    83b6:	00a68067          	jr	10(a3)
    83ba:	00b70723          	sb	a1,14(a4) # 100000e <_global_impure_ptr+0xff5a86>
    83be:	00b706a3          	sb	a1,13(a4)
    83c2:	00b70623          	sb	a1,12(a4)
    83c6:	00b705a3          	sb	a1,11(a4)
    83ca:	00b70523          	sb	a1,10(a4)
    83ce:	00b704a3          	sb	a1,9(a4)
    83d2:	00b70423          	sb	a1,8(a4)
    83d6:	00b703a3          	sb	a1,7(a4)
    83da:	00b70323          	sb	a1,6(a4)
    83de:	00b702a3          	sb	a1,5(a4)
    83e2:	00b70223          	sb	a1,4(a4)
    83e6:	00b701a3          	sb	a1,3(a4)
    83ea:	00b70123          	sb	a1,2(a4)
    83ee:	00b700a3          	sb	a1,1(a4)
    83f2:	00b70023          	sb	a1,0(a4)
    83f6:	8082                	ret
    83f8:	0ff5f593          	andi	a1,a1,255
    83fc:	00859693          	slli	a3,a1,0x8
    8400:	8dd5                	or	a1,a1,a3
    8402:	01059693          	slli	a3,a1,0x10
    8406:	8dd5                	or	a1,a1,a3
    8408:	b759                	j	838e <memset+0x12>
    840a:	00279693          	slli	a3,a5,0x2
    840e:	00000297          	auipc	t0,0x0
    8412:	9696                	add	a3,a3,t0
    8414:	8286                	mv	t0,ra
    8416:	fa8680e7          	jalr	-88(a3)
    841a:	8096                	mv	ra,t0
    841c:	17c1                	addi	a5,a5,-16
    841e:	8f1d                	sub	a4,a4,a5
    8420:	963e                	add	a2,a2,a5
    8422:	f8c374e3          	bgeu	t1,a2,83aa <memset+0x2e>
    8426:	b795                	j	838a <memset+0xe>
	...

0000842a <__malloc_lock>:
    842a:	8082                	ret

0000842c <__malloc_unlock>:
    842c:	8082                	ret

0000842e <_sbrk_r>:
    842e:	1141                	addi	sp,sp,-16
    8430:	c422                	sw	s0,8(sp)
    8432:	842a                	mv	s0,a0
    8434:	852e                	mv	a0,a1
    8436:	1fff8797          	auipc	a5,0x1fff8
    843a:	4c07a723          	sw	zero,1230(a5) # 20000904 <errno>
    843e:	c606                	sw	ra,12(sp)
    8440:	2355                	jal	89e4 <_sbrk>
    8442:	57fd                	li	a5,-1
    8444:	00f50663          	beq	a0,a5,8450 <_sbrk_r+0x22>
    8448:	40b2                	lw	ra,12(sp)
    844a:	4422                	lw	s0,8(sp)
    844c:	0141                	addi	sp,sp,16
    844e:	8082                	ret
    8450:	1fff8797          	auipc	a5,0x1fff8
    8454:	4b47a783          	lw	a5,1204(a5) # 20000904 <errno>
    8458:	dbe5                	beqz	a5,8448 <_sbrk_r+0x1a>
    845a:	40b2                	lw	ra,12(sp)
    845c:	c01c                	sw	a5,0(s0)
    845e:	4422                	lw	s0,8(sp)
    8460:	0141                	addi	sp,sp,16
    8462:	8082                	ret

00008464 <strdup>:
    8464:	85aa                	mv	a1,a0
    8466:	1fff8517          	auipc	a0,0x1fff8
    846a:	45652503          	lw	a0,1110(a0) # 200008bc <_impure_ptr>
    846e:	a009                	j	8470 <_strdup_r>

00008470 <_strdup_r>:
    8470:	1141                	addi	sp,sp,-16
    8472:	c422                	sw	s0,8(sp)
    8474:	842a                	mv	s0,a0
    8476:	852e                	mv	a0,a1
    8478:	c606                	sw	ra,12(sp)
    847a:	c226                	sw	s1,4(sp)
    847c:	c04a                	sw	s2,0(sp)
    847e:	84ae                	mv	s1,a1
    8480:	2025                	jal	84a8 <strlen>
    8482:	00150913          	addi	s2,a0,1
    8486:	85ca                	mv	a1,s2
    8488:	8522                	mv	a0,s0
    848a:	92bff0ef          	jal	ra,7db4 <_malloc_r>
    848e:	842a                	mv	s0,a0
    8490:	c501                	beqz	a0,8498 <_strdup_r+0x28>
    8492:	864a                	mv	a2,s2
    8494:	85a6                	mv	a1,s1
    8496:	2e8d                	jal	8808 <memcpy>
    8498:	40b2                	lw	ra,12(sp)
    849a:	8522                	mv	a0,s0
    849c:	4422                	lw	s0,8(sp)
    849e:	4492                	lw	s1,4(sp)
    84a0:	4902                	lw	s2,0(sp)
    84a2:	0141                	addi	sp,sp,16
    84a4:	8082                	ret
	...

000084a8 <strlen>:
    84a8:	00357793          	andi	a5,a0,3
    84ac:	872a                	mv	a4,a0
    84ae:	ef9d                	bnez	a5,84ec <strlen+0x44>
    84b0:	7f7f86b7          	lui	a3,0x7f7f8
    84b4:	f7f68693          	addi	a3,a3,-129 # 7f7f7f7f <__kernel_stack+0x5f737f87>
    84b8:	55fd                	li	a1,-1
    84ba:	4310                	lw	a2,0(a4)
    84bc:	0711                	addi	a4,a4,4
    84be:	00d677b3          	and	a5,a2,a3
    84c2:	97b6                	add	a5,a5,a3
    84c4:	8fd1                	or	a5,a5,a2
    84c6:	8fd5                	or	a5,a5,a3
    84c8:	feb789e3          	beq	a5,a1,84ba <strlen+0x12>
    84cc:	ffc74683          	lbu	a3,-4(a4)
    84d0:	ffd74603          	lbu	a2,-3(a4)
    84d4:	ffe74783          	lbu	a5,-2(a4)
    84d8:	8f09                	sub	a4,a4,a0
    84da:	c695                	beqz	a3,8506 <strlen+0x5e>
    84dc:	02060263          	beqz	a2,8500 <strlen+0x58>
    84e0:	00f03533          	snez	a0,a5
    84e4:	953a                	add	a0,a0,a4
    84e6:	1579                	addi	a0,a0,-2
    84e8:	8082                	ret
    84ea:	d2f9                	beqz	a3,84b0 <strlen+0x8>
    84ec:	00074783          	lbu	a5,0(a4)
    84f0:	0705                	addi	a4,a4,1
    84f2:	00377693          	andi	a3,a4,3
    84f6:	fbf5                	bnez	a5,84ea <strlen+0x42>
    84f8:	8f09                	sub	a4,a4,a0
    84fa:	fff70513          	addi	a0,a4,-1
    84fe:	8082                	ret
    8500:	ffd70513          	addi	a0,a4,-3
    8504:	8082                	ret
    8506:	ffc70513          	addi	a0,a4,-4
    850a:	8082                	ret
	...

0000850e <_malloc_trim_r>:
    850e:	1101                	addi	sp,sp,-32
    8510:	cc22                	sw	s0,24(sp)
    8512:	ca26                	sw	s1,20(sp)
    8514:	c84a                	sw	s2,16(sp)
    8516:	c64e                	sw	s3,12(sp)
    8518:	c452                	sw	s4,8(sp)
    851a:	89ae                	mv	s3,a1
    851c:	ce06                	sw	ra,28(sp)
    851e:	1fff8a17          	auipc	s4,0x1fff8
    8522:	b06a0a13          	addi	s4,s4,-1274 # 20000024 <__malloc_av_>
    8526:	892a                	mv	s2,a0
    8528:	3709                	jal	842a <__malloc_lock>
    852a:	008a2703          	lw	a4,8(s4)
    852e:	6785                	lui	a5,0x1
    8530:	fef78413          	addi	s0,a5,-17 # fef <encrypt+0x4e3>
    8534:	4344                	lw	s1,4(a4)
    8536:	41340433          	sub	s0,s0,s3
    853a:	98f1                	andi	s1,s1,-4
    853c:	9426                	add	s0,s0,s1
    853e:	8031                	srli	s0,s0,0xc
    8540:	147d                	addi	s0,s0,-1
    8542:	0432                	slli	s0,s0,0xc
    8544:	00f44a63          	blt	s0,a5,8558 <_malloc_trim_r+0x4a>
    8548:	4581                	li	a1,0
    854a:	854a                	mv	a0,s2
    854c:	35cd                	jal	842e <_sbrk_r>
    854e:	008a2783          	lw	a5,8(s4)
    8552:	97a6                	add	a5,a5,s1
    8554:	00f50d63          	beq	a0,a5,856e <_malloc_trim_r+0x60>
    8558:	854a                	mv	a0,s2
    855a:	3dc9                	jal	842c <__malloc_unlock>
    855c:	40f2                	lw	ra,28(sp)
    855e:	4462                	lw	s0,24(sp)
    8560:	44d2                	lw	s1,20(sp)
    8562:	4942                	lw	s2,16(sp)
    8564:	49b2                	lw	s3,12(sp)
    8566:	4a22                	lw	s4,8(sp)
    8568:	4501                	li	a0,0
    856a:	6105                	addi	sp,sp,32
    856c:	8082                	ret
    856e:	408005b3          	neg	a1,s0
    8572:	854a                	mv	a0,s2
    8574:	3d6d                	jal	842e <_sbrk_r>
    8576:	57fd                	li	a5,-1
    8578:	02f50b63          	beq	a0,a5,85ae <_malloc_trim_r+0xa0>
    857c:	1fff8717          	auipc	a4,0x1fff8
    8580:	34470713          	addi	a4,a4,836 # 200008c0 <__malloc_current_mallinfo>
    8584:	431c                	lw	a5,0(a4)
    8586:	008a2683          	lw	a3,8(s4)
    858a:	8c81                	sub	s1,s1,s0
    858c:	0014e493          	ori	s1,s1,1
    8590:	40878433          	sub	s0,a5,s0
    8594:	854a                	mv	a0,s2
    8596:	c2c4                	sw	s1,4(a3)
    8598:	c300                	sw	s0,0(a4)
    859a:	3d49                	jal	842c <__malloc_unlock>
    859c:	40f2                	lw	ra,28(sp)
    859e:	4462                	lw	s0,24(sp)
    85a0:	44d2                	lw	s1,20(sp)
    85a2:	4942                	lw	s2,16(sp)
    85a4:	49b2                	lw	s3,12(sp)
    85a6:	4a22                	lw	s4,8(sp)
    85a8:	4505                	li	a0,1
    85aa:	6105                	addi	sp,sp,32
    85ac:	8082                	ret
    85ae:	4581                	li	a1,0
    85b0:	854a                	mv	a0,s2
    85b2:	3db5                	jal	842e <_sbrk_r>
    85b4:	008a2703          	lw	a4,8(s4)
    85b8:	46bd                	li	a3,15
    85ba:	40e507b3          	sub	a5,a0,a4
    85be:	f8f6dde3          	bge	a3,a5,8558 <_malloc_trim_r+0x4a>
    85c2:	1fff8697          	auipc	a3,0x1fff8
    85c6:	2f26a683          	lw	a3,754(a3) # 200008b4 <__malloc_sbrk_base>
    85ca:	8d15                	sub	a0,a0,a3
    85cc:	0017e793          	ori	a5,a5,1
    85d0:	1fff8697          	auipc	a3,0x1fff8
    85d4:	2ea6a823          	sw	a0,752(a3) # 200008c0 <__malloc_current_mallinfo>
    85d8:	c35c                	sw	a5,4(a4)
    85da:	bfbd                	j	8558 <_malloc_trim_r+0x4a>

000085dc <_free_r>:
    85dc:	cde9                	beqz	a1,86b6 <_free_r+0xda>
    85de:	1141                	addi	sp,sp,-16
    85e0:	c422                	sw	s0,8(sp)
    85e2:	c226                	sw	s1,4(sp)
    85e4:	842e                	mv	s0,a1
    85e6:	84aa                	mv	s1,a0
    85e8:	c606                	sw	ra,12(sp)
    85ea:	3581                	jal	842a <__malloc_lock>
    85ec:	ffc42583          	lw	a1,-4(s0)
    85f0:	ff840713          	addi	a4,s0,-8
    85f4:	1fff8817          	auipc	a6,0x1fff8
    85f8:	a3080813          	addi	a6,a6,-1488 # 20000024 <__malloc_av_>
    85fc:	ffe5f793          	andi	a5,a1,-2
    8600:	00f70633          	add	a2,a4,a5
    8604:	4254                	lw	a3,4(a2)
    8606:	00882503          	lw	a0,8(a6)
    860a:	9af1                	andi	a3,a3,-4
    860c:	12c50363          	beq	a0,a2,8732 <_free_r+0x156>
    8610:	c254                	sw	a3,4(a2)
    8612:	8985                	andi	a1,a1,1
    8614:	00d60533          	add	a0,a2,a3
    8618:	e9b5                	bnez	a1,868c <_free_r+0xb0>
    861a:	ff842303          	lw	t1,-8(s0)
    861e:	414c                	lw	a1,4(a0)
    8620:	1fff8897          	auipc	a7,0x1fff8
    8624:	a0c88893          	addi	a7,a7,-1524 # 2000002c <__malloc_av_+0x8>
    8628:	40670733          	sub	a4,a4,t1
    862c:	4708                	lw	a0,8(a4)
    862e:	979a                	add	a5,a5,t1
    8630:	8985                	andi	a1,a1,1
    8632:	0d150f63          	beq	a0,a7,8710 <_free_r+0x134>
    8636:	00c72303          	lw	t1,12(a4)
    863a:	00652623          	sw	t1,12(a0)
    863e:	00a32423          	sw	a0,8(t1)
    8642:	14058463          	beqz	a1,878a <_free_r+0x1ae>
    8646:	0017e693          	ori	a3,a5,1
    864a:	c354                	sw	a3,4(a4)
    864c:	c21c                	sw	a5,0(a2)
    864e:	1ff00693          	li	a3,511
    8652:	06f6ec63          	bltu	a3,a5,86ca <_free_r+0xee>
    8656:	ff87f693          	andi	a3,a5,-8
    865a:	06a1                	addi	a3,a3,8
    865c:	00482583          	lw	a1,4(a6)
    8660:	96c2                	add	a3,a3,a6
    8662:	4290                	lw	a2,0(a3)
    8664:	0057d513          	srli	a0,a5,0x5
    8668:	4785                	li	a5,1
    866a:	00a797b3          	sll	a5,a5,a0
    866e:	8fcd                	or	a5,a5,a1
    8670:	ff868593          	addi	a1,a3,-8
    8674:	c74c                	sw	a1,12(a4)
    8676:	c710                	sw	a2,8(a4)
    8678:	00f82223          	sw	a5,4(a6)
    867c:	c298                	sw	a4,0(a3)
    867e:	c658                	sw	a4,12(a2)
    8680:	4422                	lw	s0,8(sp)
    8682:	40b2                	lw	ra,12(sp)
    8684:	8526                	mv	a0,s1
    8686:	4492                	lw	s1,4(sp)
    8688:	0141                	addi	sp,sp,16
    868a:	b34d                	j	842c <__malloc_unlock>
    868c:	414c                	lw	a1,4(a0)
    868e:	8985                	andi	a1,a1,1
    8690:	e585                	bnez	a1,86b8 <_free_r+0xdc>
    8692:	97b6                	add	a5,a5,a3
    8694:	1fff8897          	auipc	a7,0x1fff8
    8698:	99888893          	addi	a7,a7,-1640 # 2000002c <__malloc_av_+0x8>
    869c:	4614                	lw	a3,8(a2)
    869e:	0017e513          	ori	a0,a5,1
    86a2:	00f705b3          	add	a1,a4,a5
    86a6:	0f168a63          	beq	a3,a7,879a <_free_r+0x1be>
    86aa:	4650                	lw	a2,12(a2)
    86ac:	c6d0                	sw	a2,12(a3)
    86ae:	c614                	sw	a3,8(a2)
    86b0:	c348                	sw	a0,4(a4)
    86b2:	c19c                	sw	a5,0(a1)
    86b4:	bf69                	j	864e <_free_r+0x72>
    86b6:	8082                	ret
    86b8:	0017e693          	ori	a3,a5,1
    86bc:	fed42e23          	sw	a3,-4(s0)
    86c0:	c21c                	sw	a5,0(a2)
    86c2:	1ff00693          	li	a3,511
    86c6:	f8f6f8e3          	bgeu	a3,a5,8656 <_free_r+0x7a>
    86ca:	0097d693          	srli	a3,a5,0x9
    86ce:	4611                	li	a2,4
    86d0:	08d66e63          	bltu	a2,a3,876c <_free_r+0x190>
    86d4:	0067d693          	srli	a3,a5,0x6
    86d8:	03968593          	addi	a1,a3,57
    86dc:	03868613          	addi	a2,a3,56
    86e0:	058e                	slli	a1,a1,0x3
    86e2:	95c2                	add	a1,a1,a6
    86e4:	4194                	lw	a3,0(a1)
    86e6:	15e1                	addi	a1,a1,-8
    86e8:	0cd58463          	beq	a1,a3,87b0 <_free_r+0x1d4>
    86ec:	42d0                	lw	a2,4(a3)
    86ee:	9a71                	andi	a2,a2,-4
    86f0:	00c7f563          	bgeu	a5,a2,86fa <_free_r+0x11e>
    86f4:	4694                	lw	a3,8(a3)
    86f6:	fed59be3          	bne	a1,a3,86ec <_free_r+0x110>
    86fa:	46cc                	lw	a1,12(a3)
    86fc:	c74c                	sw	a1,12(a4)
    86fe:	c714                	sw	a3,8(a4)
    8700:	4422                	lw	s0,8(sp)
    8702:	40b2                	lw	ra,12(sp)
    8704:	c598                	sw	a4,8(a1)
    8706:	8526                	mv	a0,s1
    8708:	4492                	lw	s1,4(sp)
    870a:	c6d8                	sw	a4,12(a3)
    870c:	0141                	addi	sp,sp,16
    870e:	bb39                	j	842c <__malloc_unlock>
    8710:	e5fd                	bnez	a1,87fe <_free_r+0x222>
    8712:	464c                	lw	a1,12(a2)
    8714:	4610                	lw	a2,8(a2)
    8716:	97b6                	add	a5,a5,a3
    8718:	4422                	lw	s0,8(sp)
    871a:	c64c                	sw	a1,12(a2)
    871c:	c590                	sw	a2,8(a1)
    871e:	0017e693          	ori	a3,a5,1
    8722:	40b2                	lw	ra,12(sp)
    8724:	c354                	sw	a3,4(a4)
    8726:	8526                	mv	a0,s1
    8728:	973e                	add	a4,a4,a5
    872a:	4492                	lw	s1,4(sp)
    872c:	c31c                	sw	a5,0(a4)
    872e:	0141                	addi	sp,sp,16
    8730:	b9f5                	j	842c <__malloc_unlock>
    8732:	8985                	andi	a1,a1,1
    8734:	97b6                	add	a5,a5,a3
    8736:	e989                	bnez	a1,8748 <_free_r+0x16c>
    8738:	ff842583          	lw	a1,-8(s0)
    873c:	8f0d                	sub	a4,a4,a1
    873e:	4754                	lw	a3,12(a4)
    8740:	4710                	lw	a2,8(a4)
    8742:	97ae                	add	a5,a5,a1
    8744:	c654                	sw	a3,12(a2)
    8746:	c690                	sw	a2,8(a3)
    8748:	0017e693          	ori	a3,a5,1
    874c:	c354                	sw	a3,4(a4)
    874e:	00e82423          	sw	a4,8(a6)
    8752:	1fff8717          	auipc	a4,0x1fff8
    8756:	16672703          	lw	a4,358(a4) # 200008b8 <__malloc_trim_threshold>
    875a:	f2e7e3e3          	bltu	a5,a4,8680 <_free_r+0xa4>
    875e:	1fff8597          	auipc	a1,0x1fff8
    8762:	1a25a583          	lw	a1,418(a1) # 20000900 <__malloc_top_pad>
    8766:	8526                	mv	a0,s1
    8768:	335d                	jal	850e <_malloc_trim_r>
    876a:	bf19                	j	8680 <_free_r+0xa4>
    876c:	4651                	li	a2,20
    876e:	02d67063          	bgeu	a2,a3,878e <_free_r+0x1b2>
    8772:	05400613          	li	a2,84
    8776:	04d66763          	bltu	a2,a3,87c4 <_free_r+0x1e8>
    877a:	00c7d693          	srli	a3,a5,0xc
    877e:	06f68593          	addi	a1,a3,111
    8782:	06e68613          	addi	a2,a3,110
    8786:	058e                	slli	a1,a1,0x3
    8788:	bfa9                	j	86e2 <_free_r+0x106>
    878a:	97b6                	add	a5,a5,a3
    878c:	bf01                	j	869c <_free_r+0xc0>
    878e:	05c68593          	addi	a1,a3,92
    8792:	05b68613          	addi	a2,a3,91
    8796:	058e                	slli	a1,a1,0x3
    8798:	b7a9                	j	86e2 <_free_r+0x106>
    879a:	00e82a23          	sw	a4,20(a6)
    879e:	00e82823          	sw	a4,16(a6)
    87a2:	01172623          	sw	a7,12(a4)
    87a6:	01172423          	sw	a7,8(a4)
    87aa:	c348                	sw	a0,4(a4)
    87ac:	c19c                	sw	a5,0(a1)
    87ae:	bdc9                	j	8680 <_free_r+0xa4>
    87b0:	00482503          	lw	a0,4(a6)
    87b4:	8609                	srai	a2,a2,0x2
    87b6:	4785                	li	a5,1
    87b8:	00c79633          	sll	a2,a5,a2
    87bc:	8e49                	or	a2,a2,a0
    87be:	00c82223          	sw	a2,4(a6)
    87c2:	bf2d                	j	86fc <_free_r+0x120>
    87c4:	15400613          	li	a2,340
    87c8:	00d66a63          	bltu	a2,a3,87dc <_free_r+0x200>
    87cc:	00f7d693          	srli	a3,a5,0xf
    87d0:	07868593          	addi	a1,a3,120
    87d4:	07768613          	addi	a2,a3,119
    87d8:	058e                	slli	a1,a1,0x3
    87da:	b721                	j	86e2 <_free_r+0x106>
    87dc:	55400613          	li	a2,1364
    87e0:	00d66a63          	bltu	a2,a3,87f4 <_free_r+0x218>
    87e4:	0127d693          	srli	a3,a5,0x12
    87e8:	07d68593          	addi	a1,a3,125
    87ec:	07c68613          	addi	a2,a3,124
    87f0:	058e                	slli	a1,a1,0x3
    87f2:	bdc5                	j	86e2 <_free_r+0x106>
    87f4:	3f800593          	li	a1,1016
    87f8:	07e00613          	li	a2,126
    87fc:	b5dd                	j	86e2 <_free_r+0x106>
    87fe:	0017e693          	ori	a3,a5,1
    8802:	c354                	sw	a3,4(a4)
    8804:	c21c                	sw	a5,0(a2)
    8806:	bdad                	j	8680 <_free_r+0xa4>

00008808 <memcpy>:
    8808:	00a5c7b3          	xor	a5,a1,a0
    880c:	8b8d                	andi	a5,a5,3
    880e:	00c508b3          	add	a7,a0,a2
    8812:	e7a1                	bnez	a5,885a <memcpy+0x52>
    8814:	478d                	li	a5,3
    8816:	04c7f263          	bgeu	a5,a2,885a <memcpy+0x52>
    881a:	00357793          	andi	a5,a0,3
    881e:	872a                	mv	a4,a0
    8820:	eba9                	bnez	a5,8872 <memcpy+0x6a>
    8822:	ffc8f613          	andi	a2,a7,-4
    8826:	fe060793          	addi	a5,a2,-32
    882a:	06f76763          	bltu	a4,a5,8898 <memcpy+0x90>
    882e:	02c77363          	bgeu	a4,a2,8854 <memcpy+0x4c>
    8832:	86ae                	mv	a3,a1
    8834:	87ba                	mv	a5,a4
    8836:	0006a803          	lw	a6,0(a3)
    883a:	0791                	addi	a5,a5,4
    883c:	0691                	addi	a3,a3,4
    883e:	ff07ae23          	sw	a6,-4(a5)
    8842:	fec7eae3          	bltu	a5,a2,8836 <memcpy+0x2e>
    8846:	fff60793          	addi	a5,a2,-1
    884a:	8f99                	sub	a5,a5,a4
    884c:	9bf1                	andi	a5,a5,-4
    884e:	0791                	addi	a5,a5,4
    8850:	973e                	add	a4,a4,a5
    8852:	95be                	add	a1,a1,a5
    8854:	01176663          	bltu	a4,a7,8860 <memcpy+0x58>
    8858:	8082                	ret
    885a:	872a                	mv	a4,a0
    885c:	ff157ee3          	bgeu	a0,a7,8858 <memcpy+0x50>
    8860:	0005c783          	lbu	a5,0(a1)
    8864:	0705                	addi	a4,a4,1
    8866:	0585                	addi	a1,a1,1
    8868:	fef70fa3          	sb	a5,-1(a4)
    886c:	ff176ae3          	bltu	a4,a7,8860 <memcpy+0x58>
    8870:	8082                	ret
    8872:	0005c683          	lbu	a3,0(a1)
    8876:	0705                	addi	a4,a4,1
    8878:	00377793          	andi	a5,a4,3
    887c:	fed70fa3          	sb	a3,-1(a4)
    8880:	0585                	addi	a1,a1,1
    8882:	d3c5                	beqz	a5,8822 <memcpy+0x1a>
    8884:	0005c683          	lbu	a3,0(a1)
    8888:	0705                	addi	a4,a4,1
    888a:	00377793          	andi	a5,a4,3
    888e:	fed70fa3          	sb	a3,-1(a4)
    8892:	0585                	addi	a1,a1,1
    8894:	fff9                	bnez	a5,8872 <memcpy+0x6a>
    8896:	b771                	j	8822 <memcpy+0x1a>
    8898:	41d4                	lw	a3,4(a1)
    889a:	0005a283          	lw	t0,0(a1)
    889e:	0085af83          	lw	t6,8(a1)
    88a2:	00c5af03          	lw	t5,12(a1)
    88a6:	0105ae83          	lw	t4,16(a1)
    88aa:	0145ae03          	lw	t3,20(a1)
    88ae:	0185a303          	lw	t1,24(a1)
    88b2:	01c5a803          	lw	a6,28(a1)
    88b6:	c354                	sw	a3,4(a4)
    88b8:	5194                	lw	a3,32(a1)
    88ba:	00572023          	sw	t0,0(a4)
    88be:	01f72423          	sw	t6,8(a4)
    88c2:	01e72623          	sw	t5,12(a4)
    88c6:	01d72823          	sw	t4,16(a4)
    88ca:	01c72a23          	sw	t3,20(a4)
    88ce:	00672c23          	sw	t1,24(a4)
    88d2:	01072e23          	sw	a6,28(a4)
    88d6:	d314                	sw	a3,32(a4)
    88d8:	02470713          	addi	a4,a4,36
    88dc:	02458593          	addi	a1,a1,36
    88e0:	faf76ce3          	bltu	a4,a5,8898 <memcpy+0x90>
    88e4:	b7a9                	j	882e <memcpy+0x26>

000088e6 <cleanup_glue>:
    88e6:	1101                	addi	sp,sp,-32
    88e8:	c84a                	sw	s2,16(sp)
    88ea:	0005a903          	lw	s2,0(a1)
    88ee:	cc22                	sw	s0,24(sp)
    88f0:	ca26                	sw	s1,20(sp)
    88f2:	ce06                	sw	ra,28(sp)
    88f4:	c64e                	sw	s3,12(sp)
    88f6:	c452                	sw	s4,8(sp)
    88f8:	842e                	mv	s0,a1
    88fa:	84aa                	mv	s1,a0
    88fc:	02090763          	beqz	s2,892a <cleanup_glue+0x44>
    8900:	00092983          	lw	s3,0(s2)
    8904:	02098063          	beqz	s3,8924 <cleanup_glue+0x3e>
    8908:	0009aa03          	lw	s4,0(s3)
    890c:	000a0963          	beqz	s4,891e <cleanup_glue+0x38>
    8910:	000a2583          	lw	a1,0(s4)
    8914:	c191                	beqz	a1,8918 <cleanup_glue+0x32>
    8916:	3fc1                	jal	88e6 <cleanup_glue>
    8918:	85d2                	mv	a1,s4
    891a:	8526                	mv	a0,s1
    891c:	31c1                	jal	85dc <_free_r>
    891e:	85ce                	mv	a1,s3
    8920:	8526                	mv	a0,s1
    8922:	396d                	jal	85dc <_free_r>
    8924:	85ca                	mv	a1,s2
    8926:	8526                	mv	a0,s1
    8928:	3955                	jal	85dc <_free_r>
    892a:	85a2                	mv	a1,s0
    892c:	4462                	lw	s0,24(sp)
    892e:	40f2                	lw	ra,28(sp)
    8930:	4942                	lw	s2,16(sp)
    8932:	49b2                	lw	s3,12(sp)
    8934:	4a22                	lw	s4,8(sp)
    8936:	8526                	mv	a0,s1
    8938:	44d2                	lw	s1,20(sp)
    893a:	6105                	addi	sp,sp,32
    893c:	b145                	j	85dc <_free_r>

0000893e <_reclaim_reent>:
    893e:	1fff8797          	auipc	a5,0x1fff8
    8942:	f7e7a783          	lw	a5,-130(a5) # 200008bc <_impure_ptr>
    8946:	08a78e63          	beq	a5,a0,89e2 <_reclaim_reent+0xa4>
    894a:	456c                	lw	a1,76(a0)
    894c:	1101                	addi	sp,sp,-32
    894e:	ca26                	sw	s1,20(sp)
    8950:	ce06                	sw	ra,28(sp)
    8952:	cc22                	sw	s0,24(sp)
    8954:	c84a                	sw	s2,16(sp)
    8956:	c64e                	sw	s3,12(sp)
    8958:	84aa                	mv	s1,a0
    895a:	c19d                	beqz	a1,8980 <_reclaim_reent+0x42>
    895c:	4901                	li	s2,0
    895e:	08000993          	li	s3,128
    8962:	012587b3          	add	a5,a1,s2
    8966:	4380                	lw	s0,0(a5)
    8968:	c419                	beqz	s0,8976 <_reclaim_reent+0x38>
    896a:	85a2                	mv	a1,s0
    896c:	4000                	lw	s0,0(s0)
    896e:	8526                	mv	a0,s1
    8970:	31b5                	jal	85dc <_free_r>
    8972:	fc65                	bnez	s0,896a <_reclaim_reent+0x2c>
    8974:	44ec                	lw	a1,76(s1)
    8976:	0911                	addi	s2,s2,4
    8978:	ff3915e3          	bne	s2,s3,8962 <_reclaim_reent+0x24>
    897c:	8526                	mv	a0,s1
    897e:	39b9                	jal	85dc <_free_r>
    8980:	40ac                	lw	a1,64(s1)
    8982:	c199                	beqz	a1,8988 <_reclaim_reent+0x4a>
    8984:	8526                	mv	a0,s1
    8986:	3999                	jal	85dc <_free_r>
    8988:	1484a403          	lw	s0,328(s1)
    898c:	c819                	beqz	s0,89a2 <_reclaim_reent+0x64>
    898e:	14c48913          	addi	s2,s1,332
    8992:	01240863          	beq	s0,s2,89a2 <_reclaim_reent+0x64>
    8996:	85a2                	mv	a1,s0
    8998:	4000                	lw	s0,0(s0)
    899a:	8526                	mv	a0,s1
    899c:	3181                	jal	85dc <_free_r>
    899e:	fe891ce3          	bne	s2,s0,8996 <_reclaim_reent+0x58>
    89a2:	48ec                	lw	a1,84(s1)
    89a4:	c199                	beqz	a1,89aa <_reclaim_reent+0x6c>
    89a6:	8526                	mv	a0,s1
    89a8:	3915                	jal	85dc <_free_r>
    89aa:	5c9c                	lw	a5,56(s1)
    89ac:	c785                	beqz	a5,89d4 <_reclaim_reent+0x96>
    89ae:	5cdc                	lw	a5,60(s1)
    89b0:	8526                	mv	a0,s1
    89b2:	9782                	jalr	a5
    89b4:	2e04a403          	lw	s0,736(s1)
    89b8:	cc11                	beqz	s0,89d4 <_reclaim_reent+0x96>
    89ba:	400c                	lw	a1,0(s0)
    89bc:	c199                	beqz	a1,89c2 <_reclaim_reent+0x84>
    89be:	8526                	mv	a0,s1
    89c0:	371d                	jal	88e6 <cleanup_glue>
    89c2:	85a2                	mv	a1,s0
    89c4:	4462                	lw	s0,24(sp)
    89c6:	40f2                	lw	ra,28(sp)
    89c8:	4942                	lw	s2,16(sp)
    89ca:	49b2                	lw	s3,12(sp)
    89cc:	8526                	mv	a0,s1
    89ce:	44d2                	lw	s1,20(sp)
    89d0:	6105                	addi	sp,sp,32
    89d2:	b129                	j	85dc <_free_r>
    89d4:	40f2                	lw	ra,28(sp)
    89d6:	4462                	lw	s0,24(sp)
    89d8:	44d2                	lw	s1,20(sp)
    89da:	4942                	lw	s2,16(sp)
    89dc:	49b2                	lw	s3,12(sp)
    89de:	6105                	addi	sp,sp,32
    89e0:	8082                	ret
    89e2:	8082                	ret

000089e4 <_sbrk>:
    89e4:	1fff8317          	auipc	t1,0x1fff8
    89e8:	f2430313          	addi	t1,t1,-220 # 20000908 <heap_end.0>
    89ec:	00032783          	lw	a5,0(t1)
    89f0:	1141                	addi	sp,sp,-16
    89f2:	c606                	sw	ra,12(sp)
    89f4:	882a                	mv	a6,a0
    89f6:	e385                	bnez	a5,8a16 <_sbrk+0x32>
    89f8:	4501                	li	a0,0
    89fa:	4581                	li	a1,0
    89fc:	4601                	li	a2,0
    89fe:	4681                	li	a3,0
    8a00:	4701                	li	a4,0
    8a02:	0d600893          	li	a7,214
    8a06:	00000073          	ecall
    8a0a:	577d                	li	a4,-1
    8a0c:	87aa                	mv	a5,a0
    8a0e:	02e50a63          	beq	a0,a4,8a42 <_sbrk+0x5e>
    8a12:	00a32023          	sw	a0,0(t1)
    8a16:	00f80533          	add	a0,a6,a5
    8a1a:	4581                	li	a1,0
    8a1c:	4601                	li	a2,0
    8a1e:	4681                	li	a3,0
    8a20:	4701                	li	a4,0
    8a22:	4781                	li	a5,0
    8a24:	0d600893          	li	a7,214
    8a28:	00000073          	ecall
    8a2c:	00032783          	lw	a5,0(t1)
    8a30:	983e                	add	a6,a6,a5
    8a32:	01051863          	bne	a0,a6,8a42 <_sbrk+0x5e>
    8a36:	40b2                	lw	ra,12(sp)
    8a38:	00a32023          	sw	a0,0(t1)
    8a3c:	853e                	mv	a0,a5
    8a3e:	0141                	addi	sp,sp,16
    8a40:	8082                	ret
    8a42:	2039                	jal	8a50 <__errno>
    8a44:	40b2                	lw	ra,12(sp)
    8a46:	47b1                	li	a5,12
    8a48:	c11c                	sw	a5,0(a0)
    8a4a:	557d                	li	a0,-1
    8a4c:	0141                	addi	sp,sp,16
    8a4e:	8082                	ret

00008a50 <__errno>:
    8a50:	1fff8517          	auipc	a0,0x1fff8
    8a54:	e6c52503          	lw	a0,-404(a0) # 200008bc <_impure_ptr>
    8a58:	8082                	ret
    8a5a:	0000                	unimp
    8a5c:	0000                	unimp
	...
